;
; File generated by cc65 v 2.19 - N/A
;
	.fopt		compiler,"cc65 v 2.19 - N/A"
	.setcpu		"6502"
	.smart		on
	.autoimport	on
	.case		on
	.debuginfo	on
	.importzp	sp, sreg, regsave, regbank
	.importzp	tmp1, tmp2, tmp3, tmp4, ptr1, ptr2, ptr3, ptr4
	.macpack	longbranch
	.dbg		file, "SAUCE/famidash.c", 5576, 1771337452
	.dbg		file, "SAUCE/include.h", 2812, 1771337452
	.dbg		file, "./BUILD_FLAGS.h", 2801, 1771337452
	.dbg		file, "LIB/headers/stdint.h", 6196, 1771337452
	.dbg		file, "LIB/headers/stddef.h", 3037, 1771337452
	.dbg		file, "LIB/headers/nonstdint.h", 604, 1771337452
	.dbg		file, "LIB/headers/arr_macros.h", 9224, 1771337452
	.dbg		file, "LIB/headers/neslib.h", 10766, 1771337452
	.dbg		file, "LIB/headers/nesdoug.h", 8147, 1771337452
	.dbg		file, "LIB/headers/mapper.h", 2381, 1771337452
	.dbg		file, "LIB/headers/nesdash.h", 11660, 1771337452
	.dbg		file, "LIB/headers/famistudio_cc65.h", 5921, 1771337452
	.dbg		file, "MUSIC/EXPORTS/lvlset_A/musicDefines.h", 1120, 1771337452
	.dbg		file, "MUSIC/EXPORTS/lvlset_A/sfxDefines.h", 277, 1771337452
	.dbg		file, "LEVELS/include/lvlset_A/level_defines.h", 1387, 1771727209
	.dbg		file, "SAUCE/defines/space_defines.h", 1519, 1771337452
	.dbg		file, "SAUCE/defines/physics_defines.h", 146, 1771337452
	.dbg		file, "SAUCE/defines/physics_table_defines.cmp.h", 14672, 1771337452
	.dbg		file, "SAUCE/mouse.h", 1196, 1771337452
	.dbg		file, "SAUCE/core.h", 10178, 1771337452
	.dbg		file, "LEVELS/include/lvlset_A/grounddata.h", 1269, 1771337452
	.dbg		file, "LEVELS/include/lvlset_A/groundlist.h", 541, 1771337452
	.dbg		file, "LEVELS/include/lvlset_A/objdefines.h", 5388, 1771337452
	.dbg		file, "SAUCE/defines/difficulty.h", 267, 1771337452
	.dbg		file, "LEVELS/include/lvlset_A/levellist.h", 1986, 1771727209
	.dbg		file, "LEVELS/include/lvlset_A/const_levellist.h", 344, 1771337452
	.dbg		file, "SAUCE/defines/dialogbox.h", 2370, 1771337452
	.dbg		file, "./menus/h/DialogBox.h", 1376, 1771337452
	.dbg		file, "SAUCE/defines/charmap/dialogbox_charmap.h", 3333, 1771337452
	.dbg		file, "SAUCE/defines/charmap/no_remap_charmap.h", 3296, 1771337452
	.dbg		file, "SAUCE/famidash.h", 14008, 1771337452
	.dbg		file, "SAUCE/defines/palette/palettes_PRG.c", 1307, 1771337452
	.dbg		file, "./METATILES/metatiles.h", 2132, 1771337452
	.dbg		file, "SAUCE/defines/sprites.h", 64806, 1771337452
	.dbg		file, "SAUCE/functions/sprite_loading.h", 40266, 1771337452
	.dbg		file, "SAUCE/functions/practice_state.h", 10009, 1771337452
	.dbg		file, "SAUCE/functions/draw_sprites.h", 7900, 1771337452
	.dbg		file, "SAUCE/functions/level_loading.h", 4472, 1771337452
	.dbg		file, "SAUCE/defines/charmap/bg_charmap.h", 3392, 1771337452
	.dbg		file, "SAUCE/functions/scroll.h", 3754, 1771337452
	.dbg		file, "SAUCE/functions/collision.h", 25719, 1771337452
	.dbg		file, "SAUCE/functions/reset_level.h", 4063, 1771337452
	.dbg		file, "SAUCE/functions/x_movement.h", 4050, 1771337452
	.dbg		file, "SAUCE/gamemodes/gamemode_ufo.h", 751, 1771337452
	.dbg		file, "SAUCE/gamemodes/gamemode_ball.h", 4033, 1771337452
	.dbg		file, "SAUCE/gamemodes/gamemode_cube.h", 8501, 1771337452
	.dbg		file, "SAUCE/gamemodes/gamemode_ship.h", 1801, 1771337452
	.dbg		file, "SAUCE/gamemodes/gamemode_spider.h", 3671, 1771337452
	.dbg		file, "SAUCE/gamemodes/gamemode_wave.h", 2475, 1771337452
	.dbg		file, "SAUCE/include_menus.h", 1736, 1771337452
	.dbg		file, "SAUCE/defines/nametable/menunametable_XCD03.c", 11828, 1771337452
	.dbg		file, "SAUCE/menustates/common_xcd_bank_03.c", 1049, 1771337452
	.dbg		file, "SAUCE/menustates/levelselection.c", 4939, 1771337452
	.dbg		file, "SAUCE/defines/charmap/mainmenu_charmap.h", 3568, 1771337452
	.dbg		file, "SAUCE/menustates/progressbar.c", 2824, 1771337452
	.dbg		file, "SAUCE/menustates/customize.c", 8722, 1771337452
	.dbg		file, "SAUCE/defines/customize_buttons.c", 716, 1771337452
	.dbg		file, "SAUCE/defines/charmap/mainmenu_customize.h", 3572, 1771337452
	.dbg		file, "SAUCE/menustates/titlescreen.c", 30821, 1771337452
	.dbg		file, "SAUCE/defines/titlescreen_buttons.c", 1728, 1771337452
	.dbg		file, "SAUCE/menustates/bgmtest.c", 8232, 1771337452
	.dbg		file, "SAUCE/defines/charmap/bgm_charmap.h", 3568, 1771337452
	.dbg		file, "MUSIC/EXPORTS/lvlset_A/music_soundTestTables.h", 11225, 1771337452
	.dbg		file, "MUSIC/EXPORTS/lvlset_A/sfx_soundTestTables.h", 1383, 1771337452
	.dbg		file, "SAUCE/defines/nametable/menunametable_XCD06.c", 7793, 1771337452
	.dbg		file, "SAUCE/menustates/funsettings.c", 9376, 1771337452
	.dbg		file, "SAUCE/menustates/refreshmenu.c", 3278, 1771337452
	.dbg		file, "SAUCE/defines/charmap/color1_charmap.h", 3464, 1771337452
	.dbg		file, "LEVELS/include/lvlset_A/menutext.h", 5273, 1771727209
	.dbg		file, "SAUCE/menustates/progressbar_pt2.c", 2188, 1771337452
	.dbg		file, "SAUCE/defines/palette/palettes_XCD02.c", 419, 1771337452
	.dbg		file, "SAUCE/defines/nametable/menunametable_XCD02.c", 9798, 1771337452
	.dbg		file, "SAUCE/menustates/instructions.c", 2932, 1771337452
	.dbg		file, "SAUCE/menustates/settings.c", 6169, 1771337452
	.dbg		file, "SAUCE/menustates/credits.c", 2661, 1771337452
	.dbg		file, "SAUCE/gamestates/state_game.h", 19247, 1771337452
	.dbg		file, "SAUCE/gamestates/state_lvldone.h", 7316, 1771337452
	.dbg		file, "SAUCE/defines/charmap/endlevel_charmap.h", 3384, 1771337452
	.dbg		file, "SAUCE/gamestates/state_savefile_validate.h", 1388, 1771337452
	.forceimport	__STARTUP__
	.dbg		sym, "joypad1", "00", extern, "_joypad1"
	.dbg		sym, "joypad2", "00", extern, "_joypad2"
	.dbg		sym, "controllingplayer", "00", extern, "_controllingplayer"
	.dbg		sym, "xargs", "00", extern, "_xargs"
	.dbg		sym, "irqTable", "00", extern, "_irqTable"
	.dbg		sym, "auto_fs_updates", "00", extern, "_auto_fs_updates"
	.dbg		sym, "PAL_UPDATE", "00", extern, "_PAL_UPDATE"
	.dbg		sym, "PAL_PTR", "00", extern, "_PAL_PTR"
	.dbg		sym, "PAL_BUF_RAW", "00", extern, "_PAL_BUF_RAW"
	.dbg		sym, "PAL_BUF", "00", extern, "_PAL_BUF"
	.dbg		sym, "mouse", "00", extern, "_mouse"
	.dbg		sym, "mouse_mask", "00", extern, "_mouse_mask"
	.dbg		sym, "cc65_tmp1", "00", extern, "_cc65_tmp1"
	.dbg		sym, "cc65_ptr1", "00", extern, "_cc65_ptr1"
	.dbg		sym, "cc65_ptr2", "00", extern, "_cc65_ptr2"
	.dbg		sym, "VRAM_UPDATE", "00", extern, "_VRAM_UPDATE"
	.dbg		sym, "framerate", "00", extern, "_framerate"
	.dbg		sym, "cpuRegion", "00", extern, "_cpuRegion"
	.dbg		sym, "fullRegion", "00", extern, "_fullRegion"
	.dbg		sym, "trueFramerate", "00", extern, "_trueFramerate"
	.dbg		sym, "trueCpuRegion", "00", extern, "_trueCpuRegion"
	.dbg		sym, "trueFullRegion", "00", extern, "_trueFullRegion"
	.dbg		sym, "parallax_scroll_column", "00", extern, "_parallax_scroll_column"
	.dbg		sym, "parallax_scroll_column_start", "00", extern, "_parallax_scroll_column_start"
	.dbg		sym, "famistudio_song_speed", "00", extern, "_famistudio_song_speed"
	.dbg		sym, "min_scroll_y", "00", extern, "_min_scroll_y"
	.dbg		sym, "seam_scroll_y", "00", extern, "_seam_scroll_y"
	.dbg		sym, "hexToDecOutputBuffer", "00", extern, "_hexToDecOutputBuffer"
	.dbg		sym, "old_draw_scroll_y", "00", extern, "_old_draw_scroll_y"
	.dbg		sym, "famistudio_state", "00", extern, "_famistudio_state"
	.dbg		sym, "famistudio_output_buf", "00", extern, "_famistudio_output_buf"
	.dbg		sym, "drawing_frame", "00", extern, "_drawing_frame"
	.dbg		sym, "PARALLAX_CHR", "00", extern, "_PARALLAX_CHR"
	.import		_pal_bg
	.import		_pal_spr
	.import		_pal_bright
	.import		_ppu_wait_nmi
	.import		_ppu_off
	.import		_ppu_on_all
	.import		_ppu_mask
	.import		_oam_clear
	.import		_oam_clear_player
	.import		_oam_clear_two_players
	.import		__oam_spr
	.import		__oam_meta_spr
	.import		__oam_meta_spr_disco
	.import		_bank_spr
	.import		_newrand
	.import		__vram_fill
	.import		_vram_unrle
	.import		__memcpy
	.import		__memfill
	.importzp	_joypad1
	.importzp	_joypad2
	.importzp	_controllingplayer
	.import		_set_vram_buffer
	.import		__one_vram_buffer
	.import		__multi_vram_buffer
	.import		_check_collision
	.import		__pal_fade_to
	.import		_set_scroll_x
	.import		_set_scroll_y
	.import		__add_scroll_y
	.import		__sub_scroll_y
	.import		__sub_scroll_y_ext
	.import		_flush_vram_update2
	.import		_color_emphasis
	.export		_gameboy_check_table
	.import		_gray_line
	.import		_mmc3_set_prg_bank_1
	.import		_mmc3_set_2kb_chr_bank_0
	.import		_mmc3_set_2kb_chr_bank_1
	.import		_mmc3_set_1kb_chr_bank_0
	.import		_mmc3_set_1kb_chr_bank_1
	.import		_mmc3_set_1kb_chr_bank_2
	.import		_mmc3_set_1kb_chr_bank_3
	.importzp	_xargs
	.export		__mmc3_set_8kb_chr
	.import		_irqTable
	.import		_mmc3_disable_irq
	.import		_set_irq_ptr
	.import		_write_irq_table
	.import		__edit_irq_table
	.import		__one_vram_buffer_repeat
	.import		__draw_padded_text
	.import		_music_play
	.import		__sfx_play
	.import		_music_update
	.import		_calculate_linear_scroll_y
	.import		_cap_scroll_y_at_top
	.import		_cap_scroll_y_at_bottom
	.import		_playPCM
	.import		_hexToDec
	.import		__printDecimal
	.import		_update_level_completeness
	.import		_increment_attempt_count
	.import		__display_attempt_counter
	.import		__famistudio_sfx_clear_channel
	.import		_update_currplayer_table_idx
	.import		_auto_fs_updates
	.importzp	_PAL_UPDATE
	.importzp	_PAL_PTR
	.import		_PAL_BUF_RAW
	.import		_PAL_BUF
	.import		_famistudio_music_pause
	.import		_famistudio_music_stop
	.import		_famistudio_update
	.export		_CUBE_WIDTH
	.export		_CUBE_HEIGHT
	.export		_CUBE_SPEED_50
	.export		_CUBE_SPEED_60
	.export		_CUBE_SPEED
	.export		_sprite_gamemode_adjust_heights_50_mg
	.export		_sprite_gamemode_adjust_heights_50_mG
	.export		_sprite_gamemode_adjust_heights_50_Mg
	.export		_sprite_gamemode_adjust_heights_50_MG
	.export		_sprite_gamemode_adjust_heights_60_mg
	.export		_sprite_gamemode_adjust_heights_60_mG
	.export		_sprite_gamemode_adjust_heights_60_Mg
	.export		_sprite_gamemode_adjust_heights_60_MG
	.export		_sprite_gamemode_adjust_heights
	.export		_PAD_HEIGHT_BLUE_lo
	.export		_PAD_HEIGHT_BLUE_hi
	.export		_ORB_BALL_HEIGHT_BLUE_lo
	.export		_ORB_BALL_HEIGHT_BLUE_hi
	.export		_POS_DUAL_CAP_CHECK_lo
	.export		_NEG_DUAL_CAP_CHECK_lo
	.export		_JUMP_VEL_lo
	.export		_JUMP_VEL_hi
	.export		_BALL_SWITCH_VEL_lo
	.export		_BALL_SWITCH_VEL_hi
	.export		_UFO_JUMP_VEL_lo
	.export		_UFO_JUMP_VEL_hi
	.export		_ROBOT_JUMP_VEL_lo
	.export		_ROBOT_JUMP_VEL_hi
	.export		_ROBOT_JUMP_TIME
	.export		_CUBE_MAX_FALLSPEED_lo
	.export		_CUBE_MAX_FALLSPEED_hi
	.export		_SHIP_MAX_FALLSPEED_lo
	.export		_SHIP_MAX_FALLSPEED_hi
	.export		_SHIP_MAX_FALLSPEED_HOLD_lo
	.export		_SHIP_MAX_FALLSPEED_HOLD_hi
	.export		_BALL_MAX_FALLSPEED_lo
	.export		_BALL_MAX_FALLSPEED_hi
	.export		_UFO_MAX_FALLSPEED_lo
	.export		_UFO_MAX_FALLSPEED_hi
	.export		_SPIDER_MAX_FALLSPEED_lo
	.export		_SPIDER_MAX_FALLSPEED_hi
	.export		_SWING_MAX_FALLSPEED_lo
	.export		_SWING_MAX_FALLSPEED_hi
	.export		_SHIP_SCROLL_SPEED_lo
	.export		_CUBE_GRAVITY_lo
	.export		_CUBE_GRAVITY_hi
	.export		_SHIP_GRAVITY_BASE_lo
	.export		_SHIP_GRAVITY_BASE_hi
	.export		_SHIP_GRAVITY_lo
	.export		_SHIP_GRAVITY_hi
	.export		_SHIP_GRAVITY_AFTER_HOLD_lo
	.export		_SHIP_GRAVITY_AFTER_HOLD_hi
	.export		_SHIP_GRAVITY_HOLD_FALL_lo
	.export		_SHIP_GRAVITY_HOLD_FALL_hi
	.export		_BALL_GRAVITY_lo
	.export		_BALL_GRAVITY_hi
	.export		_UFO_GRAVITY_lo
	.export		_UFO_GRAVITY_hi
	.export		_SPIDER_GRAVITY_lo
	.export		_SPIDER_GRAVITY_hi
	.export		_SWING_GRAVITY_lo
	.export		_SWING_GRAVITY_hi
	.export		_MAKE_CUBE_JUMP_HIGHER_lo
	.export		_MAKE_CUBE_JUMP_HIGHER_hi
	.export		_EXIT_SLOPE_BALL_22_lo
	.export		_EXIT_SLOPE_BALL_22_hi
	.export		_EXIT_SLOPE_BALL_66_lo
	.export		_EXIT_SLOPE_BALL_66_hi
	.export		_EXIT_SLOPE_CUBE_22_lo
	.export		_EXIT_SLOPE_CUBE_22_hi
	.export		_DASH_END_VEL_RESET_lo
	.export		_DASH_END_VEL_RESET_hi
	.importzp	_mouse
	.importzp	_mouse_mask
	.export		_ground0
	.export		_ground
	.export		_difficulty_list
	.export		_stars_list
	.export		_colors_list
	.export		_DialogBox
	.import		_draw_dialog_box
	.export		_dialogBox_saveFileSafetyHeader
	.export		_dialogBox_pleasePressB
	.export		_dialogBox_itIsNowSafe
	.export		_dialogBox_wrongSaveFileVersion
	.export		_dialogBox_nolder
	.export		_dialogBox_newer
	.export		_dialogBox_saveFileMissingCorrupt
	.export		_dialogBox_saveIssues
	.export		_tmp1
	.export		_tmp2
	.export		_tmp3
	.export		_tmp4
	.export		_tmp5
	.export		_tmp6
	.export		_tmp7
	.export		_tmp8
	.export		_tmp9
	.export		_tmpA
	.export		_tmpB
	.export		_tmpfallspeed
	.export		_tmpgravity
	.export		_iconbank1
	.export		_iconbank2
	.export		_iconbank3
	.exportzp	_tmpptr1
	.exportzp	_tmpptr2
	.export		_tmplong
	.export		_selectedbgm
	.export		_selectedsfx
	.export		_tmpi8
	.importzp	_cc65_tmp1
	.importzp	_cc65_ptr1
	.importzp	_cc65_ptr2
	.importzp	_VRAM_UPDATE
	.export		_currplayer_mini
	.export		_currplayer_x
	.export		_currplayer_y
	.export		_currplayer_vel_x
	.export		_currplayer_vel_y
	.export		_currplayer_gravity
	.export		_currplayer_x_small
	.export		_currplayer_y_small
	.export		_currplayer_vel_y_small
	.export		_currplayer_slope_frames
	.export		_currplayer_was_on_slope_counter
	.export		_currplayer_slope_type
	.export		_currplayer_last_slope_type
	.export		_currplayer_direction
	.export		_currplayer_table_idx
	.export		_gamemode
	.export		_cube_data
	.export		_cube_rotate
	.export		_collision
	.export		_collision_L
	.export		_collision_R
	.export		_collision_U
	.export		_collision_D
	.export		_old_x
	.export		_old_y
	.export		_eject_L
	.export		_eject_R
	.export		_eject_D
	.export		_eject_U
	.export		_address
	.export		_x
	.export		_y
	.export		_index
	.export		_temp_x
	.export		_temp_y
	.export		_temp_room
	.export		_dual
	.export		_slope_frames
	.export		_slope_type
	.export		_was_on_slope_counter
	.exportzp	_sprite_data
	.exportzp	_level_data
	.importzp	_framerate
	.importzp	_cpuRegion
	.importzp	_fullRegion
	.export		_SRAM_VALIDATE
	.export		_coin1_obtained
	.export		_coin2_obtained
	.export		_coin3_obtained
	.export		_LEVELCOMPLETE
	.export		_level_completeness_normal
	.export		_achievements
	.export		_invisible
	.export		_twoplayer
	.export		_options
	.export		_practice_music_sync
	.export		_icon
	.export		_icon_colors
	.export		_cursedmusic
	.export		_discomode
	.export		_trails
	.export		_viseffects
	.export		_retro_mode
	.export		_palette_cycle_mode
	.export		_gameboy_mode
	.export		_invisblocks
	.export		_cam_seesaw
	.export		_forced_credits
	.export		_drawBarFlag
	.export		_exitPortalTimer
	.export		_menu_music
	.export		_auto_practicepoints
	.export		_practice_point_count
	.export		_curr_practice_point
	.export		_latest_practice_point
	.export		_practice_player_1_x_lo
	.export		_practice_player_1_x_hi
	.export		_practice_player_1_vel_x_lo
	.export		_practice_player_1_vel_x_hi
	.export		_practice_player_1_y_lo
	.export		_practice_player_1_y_hi
	.export		_practice_player_1_vel_y_lo
	.export		_practice_player_1_vel_y_hi
	.export		_practice_cube_1_rotate_lo
	.export		_practice_cube_1_rotate_hi
	.export		_practice_player_2_x_lo
	.export		_practice_player_2_x_hi
	.export		_practice_player_2_vel_x_lo
	.export		_practice_player_2_vel_x_hi
	.export		_practice_player_2_y_lo
	.export		_practice_player_2_y_hi
	.export		_practice_player_2_vel_y_lo
	.export		_practice_player_2_vel_y_hi
	.export		_practice_cube_2_rotate_lo
	.export		_practice_cube_2_rotate_hi
	.export		_practice_player_1_gravity
	.export		_practice_player_2_gravity
	.export		_practice_player_1_mini
	.export		_practice_player_2_mini
	.export		_practice_player_1_was_on_slope_counter
	.export		_practice_player_2_was_on_slope_counter
	.export		_practice_player_1_slope_frames
	.export		_practice_player_2_slope_frames
	.export		_practice_player_1_slope_type
	.export		_practice_player_2_slope_type
	.export		_practice_player_1_last_slope_type
	.export		_practice_player_2_last_slope_type
	.export		_practice_scroll_x_lo
	.export		_practice_scroll_x_md
	.export		_practice_scroll_x_hi
	.export		_practice_scroll_x_ex
	.export		_practice_scroll_y_lo
	.export		_practice_scroll_y_hi
	.export		_practice_scroll_y_subpx
	.export		_practice_min_scroll_y_lo
	.export		_practice_min_scroll_y_hi
	.export		_practice_seam_scroll_y_lo
	.export		_practice_seam_scroll_y_hi
	.export		_practice_old_draw_scroll_y_lo
	.export		_practice_old_draw_scroll_y_hi
	.export		_practice_target_scroll_y_lo
	.export		_practice_target_scroll_y_hi
	.export		_practice_nocamlockforced
	.export		_practice_disco_sprites
	.export		_practice_slowmode
	.export		_practice_forced_trails
	.export		_practice_gravity_mod
	.export		_practice_player_gamemode
	.export		_practice_dual
	.export		_practice_speed
	.export		_practice_parallax_scroll_x
	.export		_practice_outline_color
	.export		_practice_g_color_type
	.export		_practice_bg_color_type
	.export		_practice_orbactive
	.export		_practice_nullscapes_active
	.export		_practice_nullscapes_orb_type
	.export		_practice_kandoframecnt
	.export		_practice_song
	.export		_practice_player_invis
	.export		_practice_famistudio_state
	.export		_practice_famistudio_registers
	.import		_trueFramerate
	.import		_trueCpuRegion
	.import		_trueFullRegion
	.export		_last_gameState
	.export		_player_x
	.export		_player_y
	.export		_player_vel_x
	.export		_player_vel_y
	.export		_player_gravity
	.export		_player_mini
	.export		_orbhitonthisframe
	.export		_chargepower
	.export		_practice_sprite_x_pos
	.export		_kandokidshack
	.export		_kandokidshack2
	.export		_kandokidshack3
	.export		_kandokidshack4
	.export		_menuthemechosen
	.export		_menutheme
	.export		_exittimer
	.export		_jumps
	.export		_orbed
	.export		_speed
	.export		_shuffle_offset
	.export		_count
	.export		_coins
	.export		_currplayer
	.export		_menuMusicCurrentlyPlaying
	.export		_ball_switched
	.export		_processXMovement
	.export		_kandoframecnt
	.export		_spiderframe
	.export		_robotframe
	.export		_ballframe
	.export		_robotjumpframe
	.export		_robotjumptime
	.export		_hblocked
	.export		_jblocked
	.export		_fblocked
	.export		_ninjajumps
	.export		_slowmode
	.export		_use_auto_chrswitch
	.export		_level
	.export		_level_data_bank
	.export		_sprite_data_bank
	.export		_menuselection
	.export		_settingvalue
	.export		_mouseframe
	.export		_hold_timer
	.export		_titlemode
	.export		_titlecolor1
	.export		_titlecolor2
	.export		_titlecolor3
	.export		_titleicon
	.export		_kandodebugmode
	.export		_all_levels_complete
	.export		_triggers
	.export		_top_triggers
	.export		_current_deco_type
	.export		_current_spike_set
	.export		_current_block_set
	.export		_current_saw_set
	.export		_nocamlock
	.export		_nocamlockforced
	.export		_nestopia
	.export		_nullscapes_orb_type
	.export		_nullscapes_active
	.export		_last_slope_type
	.export		_gameState
	.export		_teleport_output
	.export		_normalorcommlevels
	.export		_mouse_timer
	.export		_prev_mouse_x
	.export		_prev_mouse_y
	.export		_level_resetting_flag
	.export		_timewarp_done
	.import		_parallax_scroll_column
	.import		_parallax_scroll_column_start
	.export		_parallax_scroll_x
	.export		_invincible_counter
	.export		_scroll_x
	.export		_scroll_y
	.export		_scroll_y_subpx
	.export		_old_trail_scroll_y
	.export		_target_scroll_y
	.export		_song
	.export		_songplaying
	.export		_tempsong
	.export		_temptemp6
	.export		_make_cube_jump_higher
	.export		_animating
	.export		_coin1_timer
	.export		_coin2_timer
	.export		_coin3_timer
	.export		_coin1_speed
	.export		_coin2_speed
	.export		_coin3_speed
	.export		_spawn_y_pos
	.export		_spawn_scroll_y_pos
	.export		_max_fallspeed
	.export		_orbactive
	.export		_trail_sprites_visible
	.export		_ufo_orbed
	.export		_black_orbed
	.export		_dashing
	.export		_wrap_mode
	.export		_minicoins
	.export		_auto_practicepoint_timer
	.export		_cheated
	.export		_activesprites_x_lo
	.export		_activesprites_x_hi
	.export		_activesprites_y_lo
	.export		_activesprites_y_hi
	.export		_activesprites_type
	.export		_activesprites_anim_frame
	.export		_activesprites_anim_frame_count
	.export		_activesprites_realx
	.export		_activesprites_realy
	.export		_activesprites_active
	.export		_activesprites_activated
	.export		_activesprites_animated
	.export		_DEBUG_MODE
	.export		_lastgcolortype
	.export		_lastbgcolortype
	.export		_iconbank
	.export		_dblocked
	.export		_player_old_posy
	.export		_discorefreshrate
	.export		_discoframe
	.export		_no_parallax
	.export		_force_platformer
	.export		_outline_color
	.export		_forced_trails
	.export		_skipProcessingCubeRotationLogic
	.export		_attemptCounter
	.export		_triggers_hit
	.export		_pauseStatus
	.export		_forceNoFadeOut
	.export		_target_x_scroll_stop
	.export		_curr_x_scroll_stop
	.export		_disco_sprites
	.export		_gravity_mod
	.export		_practicebuffer
	.export		_tempplat
	.export		_END_LEVEL_TIMER
	.export		_donotresetrng
	.export		_player_invis
	.import		_famistudio_song_speed
	.import		_min_scroll_y
	.import		_seam_scroll_y
	.import		_hexToDecOutputBuffer
	.export		_Generic
	.export		_Generic2
	.export		_paletteDefault
	.export		_paletteDefaultSP
	.export		_paletteMenu
	.export		_splashMenu
	.export		_oldsplashMenu
	.export		_splashMenu2
	.export		_paletteLVLSelectSP
	.export		_Skull_Trigger_1
	.export		_Skull_Trigger_2
	.export		_Skull_Trigger_3
	.export		_Skull_Trigger_4
	.export		_MINICOIN_SPRITE1
	.export		_MINICOIN_SPRITE2
	.export		_MINICOIN_SPRITE3
	.export		_MINICOIN_SPRITE4
	.export		_Explode_1
	.export		_Explode_2
	.export		_Explode_3
	.export		_Explode_4
	.export		_Explode_5
	.export		_Explode_Sprites
	.export		_ExplodeR_1
	.export		_ExplodeR_Sprites
	.export		_Explode2_1
	.export		_Explode2_2
	.export		_Explode2_3
	.export		_Explode2_4
	.export		_Explode2_5
	.export		_Explode_Sprites2
	.export		_ExplodeR2_1
	.export		_ExplodeR_Sprites2
	.export		_Practice_Diamond
	.export		_Practice_Sprites
	.export		_Mini_Cube_0
	.export		_Mini_Cube_1
	.export		_Mini_Cube_2
	.export		_Mini_Cube_3
	.export		_Mini_Cube_4
	.export		_MINI_CUBE
	.export		_Mini_Cube2_0
	.export		_Mini_Cube2_1
	.export		_Mini_Cube2_2
	.export		_Mini_Cube2_3
	.export		_Mini_Cube2_4
	.export		_MINI_CUBE2
	.export		_Mini_Ball
	.export		_Mini_Ball_Alt
	.export		_MINI_BALL
	.export		_MINI_BALL_ALT
	.export		_WAVE_0
	.export		_WAVE_1
	.export		_WAVE_2
	.export		_WAVE_5
	.export		_WAVE_6
	.export		_WAVE
	.export		_WAVE2_0
	.export		_WAVE2_1
	.export		_WAVE2_2
	.export		_WAVE2_5
	.export		_WAVE2_6
	.export		_WAVE2
	.export		_MINI_WAVE_0
	.export		_MINI_WAVE_2
	.export		_MINI_WAVE_6
	.export		_MINI_WAVE
	.export		_MINI_WAVE2_0
	.export		_MINI_WAVE2_2
	.export		_MINI_WAVE2_6
	.export		_MINI_WAVE2
	.export		_SNAKE_0
	.export		_SNAKE_2
	.export		_SNAKE_6
	.export		_SNAKE
	.export		_SNAKE2_0
	.export		_SNAKE2_2
	.export		_SNAKE2_6
	.export		_SNAKE2
	.export		_MINI_SNAKE_0
	.export		_MINI_SNAKE_2
	.export		_MINI_SNAKE_6
	.export		_MINI_SNAKE
	.export		_MINI_SNAKE2_0
	.export		_MINI_SNAKE2_2
	.export		_MINI_SNAKE2_6
	.export		_MINI_SNAKE2
	.export		_UFO_0
	.export		_UFO_U
	.export		_UFO_D
	.export		_UFO
	.export		_MINI_UFO_0
	.export		_MINI_UFO_U
	.export		_MINI_UFO_D
	.export		_MINI_UFO
	.export		_Mini_Ball2
	.export		_MINI_BALL2
	.export		_UFO2_0
	.export		_UFO2_U
	.export		_UFO2_D
	.export		_UFO2
	.export		_MINI_UFO2_0
	.export		_MINI_UFO2_U
	.export		_MINI_UFO2_D
	.export		_MINI_UFO2
	.export		_Cube_0
	.export		_Cube_1
	.export		_Cube_2
	.export		_Cube_3
	.export		_Cube_4
	.export		_Cube_5
	.export		_Cube_6
	.export		_CUBE
	.export		_Pogo_0
	.export		_Pogo_1
	.export		_POGO
	.export		_Pogo2_0
	.export		_Pogo2_1
	.export		_POGO2
	.export		_Mini_Pogo_0
	.export		_Mini_Pogo_1
	.export		_MINI_POGO
	.export		_Mini_Pogo2_0
	.export		_Mini_Pogo2_1
	.export		_MINI_POGO2
	.export		_Cube2_0
	.export		_Cube2_1
	.export		_Cube2_2
	.export		_Cube2_3
	.export		_Cube2_4
	.export		_Cube2_5
	.export		_Cube2_6
	.export		_CUBE2
	.export		_Ship_0
	.export		_Ship_1
	.export		_Ship_2
	.export		_Ship_5
	.export		_Ship_6
	.export		_SHIP
	.export		_Swing_0
	.export		_Swing_1
	.export		_Swing_2
	.export		_Swing_5
	.export		_Swing_6
	.export		_SWING
	.export		_Swing2_0
	.export		_Swing2_1
	.export		_Swing2_2
	.export		_Swing2_5
	.export		_Swing2_6
	.export		_SWING2
	.export		_Mini_Swing_6
	.export		_Mini_Swing_5
	.export		_Mini_Swing_2
	.export		_Mini_Swing_1
	.export		_Mini_Swing_0
	.export		_MINI_SWING
	.export		_Mini_Swing_6_ALT
	.export		_Mini_Swing_5_ALT
	.export		_Mini_Swing_2_ALT
	.export		_Mini_Swing_1_ALT
	.export		_Mini_Swing_0_ALT
	.export		_MINI_SWING_ALT
	.export		_Mini_Swing2_6
	.export		_Mini_Swing2_5
	.export		_Mini_Swing2_2
	.export		_Mini_Swing2_1
	.export		_Mini_Swing2_0
	.export		_MINI_SWING2
	.export		_Mini_Ship_0
	.export		_Mini_Ship_1
	.export		_Mini_Ship_2
	.export		_Mini_Ship_5
	.export		_Mini_Ship_6
	.export		_MINI_SHIP
	.export		_Ship2_0
	.export		_Ship2_1
	.export		_Ship2_2
	.export		_Ship2_5
	.export		_Ship2_6
	.export		_SHIP2
	.export		_Mini_Ship2_0
	.export		_Mini_Ship2_1
	.export		_Mini_Ship2_2
	.export		_Mini_Ship2_5
	.export		_Mini_Ship2_6
	.export		_MINI_SHIP2
	.export		_COIN_SPRITE
	.export		_COIN_1_SPRITE
	.export		_COIN_2_SPRITE
	.export		_COIN_3_SPRITE
	.export		_COIN_SPRITE_X
	.export		_COIN_1_X
	.export		_COIN_2_X
	.export		_COIN_3_X
	.export		_Ball_0
	.export		_Ball_1
	.export		_BALL
	.export		_Ball2_0
	.export		_Ball2_1
	.export		_BALL2
	.export		_Robot_0
	.export		_Robot_1
	.export		_Robot_2
	.export		_Robot_3
	.export		_Robot_Jump_1
	.export		_Robot_0_Alt
	.export		_Robot_1_Alt
	.export		_Robot_2_Alt
	.export		_Robot_Jump_1_Alt
	.export		_ROBOT
	.export		_ROBOT_ALT
	.export		_ROBOT_JUMP
	.export		_Mini_Robot_0
	.export		_Mini_Robot_1
	.export		_Mini_Robot_2
	.export		_Mini_Robot_Jump_1
	.export		_MINI_ROBOT
	.export		_MINI_ROBOT_JUMP
	.export		_Mini_Robot_ALT_0
	.export		_Mini_Robot_ALT_1
	.export		_Mini_Robot_ALT_2
	.export		_Mini_Robot_Jump_ALT_1
	.export		_MINI_ROBOT_ALT
	.export		_MINI_ROBOT_JUMP_ALT
	.export		_Robot2_0
	.export		_Robot2_1
	.export		_Robot2_2
	.export		_Robot2_3
	.export		_Robot_Jump2_1
	.export		_Robot_0_Alt2
	.export		_Robot_1_Alt2
	.export		_Robot_2_Alt2
	.export		_Robot_Jump_1_Alt2
	.export		_ROBOT2
	.export		_ROBOT_ALT2
	.export		_ROBOT_JUMP2
	.export		_Mini_Robot2_0
	.export		_Mini_Robot2_1
	.export		_Mini_Robot2_2
	.export		_Mini_Robot_Jump2_1
	.export		_MINI_ROBOT2
	.export		_MINI_ROBOT_JUMP2
	.export		_Spider_0
	.export		_Spider_1
	.export		_Spider_2
	.export		_Spider_3
	.export		_Spider_Jump
	.export		_Spider_0_Alt
	.export		_Spider_1_Alt
	.export		_Spider_2_Alt
	.export		_Spider_3_Alt
	.export		_SPIDER
	.export		_SPIDER_ALT
	.export		_SPIDER_JUMP
	.export		_Spider_0_Alt2
	.export		_Spider_1_Alt2
	.export		_Spider_2_Alt2
	.export		_Spider_3_Alt2
	.export		_SPIDER_ALT2
	.export		_Spider2_0
	.export		_Spider2_1
	.export		_Spider2_2
	.export		_Spider2_3
	.export		_Spider2_Jump
	.export		_SPIDER2
	.export		_SPIDER_JUMP2
	.export		_Mini_Spider_0
	.export		_Mini_Spider_1
	.export		_Mini_Spider_2
	.export		_Mini_Spider_3
	.export		_Mini_Spider_0_ALT
	.export		_Mini_Spider_1_ALT
	.export		_Mini_Spider_2_ALT
	.export		_Mini_Spider_3_ALT
	.export		_MINI_SPIDER
	.export		_MINI_SPIDER_ALT
	.export		_MINI_SPIDER_JUMP
	.export		_Mini_Spider2_0
	.export		_Mini_Spider2_1
	.export		_Mini_Spider2_2
	.export		_Mini_Spider2_3
	.export		_MINI_SPIDER2
	.export		_MINI_SPIDER_JUMP2
	.export		_Speed_SLOW_Portal
	.export		_Speed_05_Portal
	.export		_Speed_10_Portal
	.export		_Speed_20_Portal
	.export		_Speed_30_Portal
	.export		_Speed_40_Portal
	.export		_Mini_Portal
	.export		_Growth_Portal
	.export		_Gravity_2x_Portal
	.export		_Gravity_12_Portal
	.export		_Gravity_1x_Portal
	.export		_Gravity_23_Portal
	.export		_Gravity_13_Portal
	.export		_Teleport_Portal_Enter
	.export		_Teleport_Portal_Exit
	.export		_Portal_Gamemode_Cube
	.export		_Portal_Gamemode_Ship
	.export		_Portal_Gamemode_Ball
	.export		_Portal_Gamemode_UFO
	.export		_Portal_Gamemode_Robot
	.export		_Portal_Gamemode_Spider
	.export		_Portal_Gamemode_Ninja
	.export		_Portal_Gamemode_Snake
	.export		_Portal_Gamemode_Swing
	.export		_Portal_Gamemode_Football
	.export		_Portal_Gamemode_Pogo
	.export		_Portal_Gamemode_Wave
	.export		_Portal_Gravity_Down
	.export		_Portal_Gravity_Up
	.export		_Portal_Dual
	.export		_Portal_Single
	.export		_Teleport_Portal_Horizontal_Upwards_Enter
	.export		_Teleport_Portal_Horizontal_Upwards_Exit
	.export		_Teleport_Portal_Horizontal_Downwards_Enter
	.export		_Teleport_Portal_Horizontal_Downwards_Exit
	.export		_Portal_Gravity_Down_Horizontal_Downwards
	.export		_Portal_Gravity_Down_Horizontal_Upwards
	.export		_Portal_Gravity_Up_Horizontal_Downwards
	.export		_Portal_Gravity_Up_Horizontal_Upwards
	.export		_Dash_Orb
	.export		_Black_Orb
	.export		_Dash_Orb_Upwards
	.export		_Dash_Gravity_Orb_Upwards
	.export		_Dash_Orb_Downwards
	.export		_Dash_Gravity_Orb_Downwards
	.export		_Dash_Gravity_Orb
	.export		_Dash_Orb_45Deg_UP
	.export		_Dash_Gravity_Orb_45Deg_UP
	.export		_Spider_Orb_UP
	.export		_Spider_Orb_DOWN
	.export		_Dash_Orb_45Deg_DOWN
	.export		_Dash_Gravity_Orb_45Deg_DOWN
	.export		_Yellow_Jump_Orb
	.export		_Yellow_Jump_Orb2
	.export		_Yellow_Jump_Orb3
	.export		_Yellow_Jump_Orb4
	.export		_WHITE_ORB1
	.export		_WHITE_ORB2
	.export		_WHITE_ORB3
	.export		_WHITE_ORB4
	.export		_Blue_Jump_Orb
	.export		_Blue_Jump_Orb2
	.export		_Blue_Jump_Orb3
	.export		_Blue_Jump_Orb4
	.export		_Pink_Jump_Orb
	.export		_Pink_Jump_Orb2
	.export		_Pink_Jump_Orb3
	.export		_Pink_Jump_Orb4
	.export		_Green_Jump_Orb
	.export		_Green_Jump_Orb2
	.export		_Green_Jump_Orb3
	.export		_Green_Jump_Orb4
	.export		_Red_Jump_Orb
	.export		_Red_Jump_Orb2
	.export		_Red_Jump_Orb3
	.export		_Red_Jump_Orb4
	.export		_Yellow_Jump_Pad
	.export		_Yellow_Jump_Pad2
	.export		_Yellow_Jump_Pad3
	.export		_Yellow_Jump_Pad4
	.export		_Yellow_Jump_Pad_U
	.export		_Yellow_Jump_Pad_U2
	.export		_Yellow_Jump_Pad_U3
	.export		_Yellow_Jump_Pad_U4
	.export		_Pink_Jump_Pad
	.export		_Pink_Jump_Pad2
	.export		_Pink_Jump_Pad3
	.export		_Pink_Jump_Pad4
	.export		_Green_Jump_Pad
	.export		_Green_Jump_Pad2
	.export		_Green_Jump_Pad3
	.export		_Green_Jump_Pad4
	.export		_Red_Jump_Pad
	.export		_Red_Jump_Pad2
	.export		_Red_Jump_Pad3
	.export		_Red_Jump_Pad4
	.export		_Pink_Jump_Pad_U
	.export		_Pink_Jump_Pad_U2
	.export		_Pink_Jump_Pad_U3
	.export		_Pink_Jump_Pad_U4
	.export		_Red_Jump_Pad_U
	.export		_Red_Jump_Pad_U2
	.export		_Red_Jump_Pad_U3
	.export		_Red_Jump_Pad_U4
	.export		_Gravity_Pad
	.export		_Gravity_Pad2
	.export		_Gravity_Pad3
	.export		_Gravity_Pad4
	.export		_Gravity_Pad_U
	.export		_Gravity_Pad_U2
	.export		_Gravity_Pad_U3
	.export		_Gravity_Pad_U4
	.export		_Teleport_Square_Enter
	.export		_Teleport_Square_Exit
	.export		_Spider_Pad_Up
	.export		_Spider_Pad_Down
	.export		_Short_Light
	.export		_Short_Light_U
	.export		_Medium_Light
	.export		_Medium_Light_U
	.export		_Long_Light
	.export		_Long_Light_U
	.export		_Short_Light_Left
	.export		_Short_Light_Right
	.export		_Medium_Light_Left
	.export		_Medium_Light_Right
	.export		_Long_Light_Left
	.export		_Long_Light_Right
	.export		_Chain
	.export		_Chain_U
	.export		_BG_Spike_Group1
	.export		_BG_Spike_Group2
	.export		_BG_Spike_Group3
	.export		_BG_Spike_Group4
	.export		_Big_Diamond
	.export		_Right_Half_Diamond
	.export		_Question_Mark
	.export		_Exclamation_Mark
	.export		_Star
	.export		_Big_X
	.export		_Diamond_Shifted_Right
	.export		_Pulsing_Ball
	.export		_Music_Note
	.export		_Skull_Open_Sprites
	.export		_COIN_SPRITES
	.export		_COIN_SPRITES_X
	.export		_YELLOW_PAD_SPRITES
	.export		_YELLOW_PAD_U_SPRITES
	.export		_PINK_PAD_SPRITES
	.export		_RED_PAD_SPRITES
	.export		_RED_PAD_U_SPRITES
	.export		_PINK_PAD_U_SPRITES
	.export		_GREEN_PAD_SPRITES
	.export		_GRAVITY_PAD_SPRITES
	.export		_GRAVITY_PAD_U_SPRITES
	.export		_YELLOW_ORB_SPRITES
	.export		_WHITE_ORB_SPRITES
	.export		_BLUE_ORB_SPRITES
	.export		_PINK_ORB_SPRITES
	.export		_GREEN_ORB_SPRITES
	.export		_RED_ORB_SPRITES
	.export		_RANDOM_GAMEMODE_PORTAL
	.export		_SUPER_RANDOM_GAMEMODE_PORTAL
	.export		_MINI_COIN_SPRITES
	.export		_nometa
	.export		_Menu_0
	.export		_Menu_1
	.export		_Menu_2
	.export		_Menu_3
	.export		_Menu_4
	.export		_Menu_5
	.export		_Menu_6
	.export		_Menu_7
	.export		_Menu_8
	.export		_Menu_9
	.export		_Menu_Percentage
	.export		_Menu_0_Pal3
	.export		_Menu_1_Pal3
	.export		_Menu_2_Pal3
	.export		_Menu_3_Pal3
	.export		_Menu_4_Pal3
	.export		_Menu_5_Pal3
	.export		_Menu_6_Pal3
	.export		_Menu_7_Pal3
	.export		_Menu_8_Pal3
	.export		_Menu_9_Pal3
	.export		_Menu_Percentage_Pal3
	.export		_Menu_Percentage_Mask
	.export		_Menu_Percentage_Coarse
	.export		_Menu_Percentage_Coarse_Pal1
	.export		_Menu_Percentage_Hidder
	.export		_Menu_Percentage_Hidder_Flipped
	.export		_Progress_0
	.export		_Progress_1
	.export		_Progress_2
	.export		_Progress_3
	.export		_Progress_4
	.export		_Progress_5
	.export		_Progress_6
	.export		_Progress_7
	.export		_Progress_8
	.export		_Progress_9
	.export		_Progress_Percentage
	.export		_Number_Sprites
	.export		_Metasprites
	.export		_animation_frame_list
	.export		_animation_frame_length
	.import		_check_spr_objects
	.import		_init_sprites
	.export		_dual_cap_check
	.export		_spider_up_wait
	.export		_spider_down_wait
	.export		_bg_coll_U
	.export		_bg_coll_D
	.export		_clearrobotjumpframes
	.export		_settrailstuff
	.export		_OUTLINES
	.export		_sprite_heights
	.export		_sprite_widths
	.export		_sprite_x_offset
	.export		_sprite_y_offset
	.export		_animate_coin_1
	.export		_animate_coin_2
	.export		_animate_coin_3
	.export		_clear_slope_stuff
	.export		_sprite_load_special_behavior
	.export		_common_dash_orb_routine
	.export		_gamemode_stuff
	.export		_pad_stuff
	.export		_sprite_collide_lookup
	.export		_sprite_collide
	.export		_multBufLookup
	.export		_multStateLookup_lo
	.export		_multStateLookup_hi
	.import		_old_draw_scroll_y
	.import		_famistudio_state
	.import		_famistudio_output_buf
	.export		_store_practice_state
	.export		_load_practice_state
	.export		_music_restore
	.export		_reset_level
	.export		_minus15y
	.export		_minus15x
	.export		_plus15y
	.export		_plus15x
	.export		_trail_loop
	.import		_drawplayerone
	.import		_drawplayertwo
	.export		_draw_sprites
	.export		_put_progress_bar_sprite
	.export		_put_number
	.export		_attempttext
	.export		_setdefaultoptions
	.import		_init_rld
	.import		_draw_screen
	.import		_load_ground
	.import		_dummy_unrle_columns
	.export		_increase_parallax_scroll_column
	.import		_drawing_frame
	.export		_unrle_first_screen
	.export		_process_x_scroll
	.export		_process_y_scroll
	.export		_do_the_scroll_thing
	.import		_bg_collision_sub
	.export		_commonly_used_store
	.export		_commonly_stored_routine_2
	.export		_commonly_used_death_check
	.export		_bg_coll_sides
	.export		_col_death_bottom_routine
	.export		_col_death_top_routine
	.export		_col_death_right_routine
	.export		_col_death_left_routine
	.export		_bg_coll_spikes
	.export		_bg_coll_floor_spikes
	.export		_bg_coll_mini_blocks
	.export		_bg_coll_slope
	.export		_bg_side_coll_common
	.export		_bg_coll_R
	.export		_bg_coll_L
	.export		_bg_coll_U_D_checks
	.export		_unstick
	.export		_clear_slope_vars
	.export		_a_check_lookup
	.export		_bg_coll_return_D
	.export		_bg_coll_return_U
	.export		_bg_coll_return_slope_D
	.export		_bg_coll_return_slope_U
	.export		_bg_coll_U_spider
	.export		_bg_coll_D_spider
	.export		_bg_coll_death
	.import		_PARALLAX_CHR
	.export		_check_practice_point_deletion
	.export		_death_animation
	.export		_slope_vel
	.export		_apply_slope_vel
	.export		_x_movement_coll
	.export		_x_movement
	.export		_ufo_ship_eject
	.export		_common_gravity_routine
	.export		_ufo_movement
	.export		_ball_eject
	.export		_ball_movement
	.export		_slope_jump_check
	.export		_cube_eject
	.export		_cube_movement
	.export		_is_player_falling
	.export		_ship_movement
	.export		_spider_eject
	.export		_spider_movement
	.export		_wave_eject
	.export		_wave_movement
	.export		_level_select_screen
	.export		_game_start_screen
	.export		_mouse_and_cursor
	.export		_xbgmlookuptable
	.export		_dec_mouse_timer
	.export		_check_if_music_stopped
	.export		_loop_routine_update
	.export		_draw_both_progress_bars
	.export		_leveldec
	.export		_levelinc
	.export		_refreshmenu
	.export		_start_the_level
	.export		_lvlselect_irq_table
	.export		_state_levelselect
	.export		_draw_full_progress_bar
	.export		_draw_percentage
	.export		_draw_progress_bar
	.export		_calculate_sprite_pos
	.export		_draw_bar_sprites
	.export		_draw_level_progress
	.export		_clear_shit
	.export		_colorinc
	.export		_colordec
	.export		_updateColors
	.export		_customizescreen
	.export		_loNTAddrTableCustomizeScreen
	.export		_hiNTAddrTableCustomizeScreen
	.export		_state_customize
	.export		_loNTAddrTableTitleScreen
	.export		_hiNTAddrTableTitleScreen
	.export		_color_picker
	.export		_bounds_check
	.export		_title_cube_shit
	.export		_title_ship_shit
	.export		_title_ball_shit
	.export		_title_ufo_shit
	.export		_title_robot_shit
	.export		_title_wave_shit
	.export		_title_mini_wave_shit
	.export		_title_swing_shit
	.export		_roll_new_mode
	.export		_set_title_icon
	.export		_BG_Table2
	.export		_G_Table2
	.export		_menu_color_table
	.export		_UFO_Title_Jump_Table
	.export		_BALL_Title_Jump_Table
	.export		_shipFrameTable
	.export		_robotFrameTable1
	.export		_robotFrameTable2
	.export		_robotFrameTable3
	.export		_spiderFrameTable1
	.export		_spiderFrameTable2
	.export		_spiderFrameTable3
	.export		_swingFrameTable1
	.export		_swingFrameTable2
	.export		_miniShipFrameTable
	.export		_miniSwingFrameTable
	.export		_mysteryFrameTable
	.export		_menu_irq_table
	.export		_palsystem
	.export		_state_menu
	.export		_end_level_debug
	.export		_decrement_was_on_slope
	.export		_code_checker
	.export		_musicSoundTestString00
	.export		_musicSoundTestString01
	.export		_musicSoundTestString02
	.export		_musicSoundTestString03
	.export		_musicSoundTestString04
	.export		_musicSoundTestString05
	.export		_musicSoundTestString06
	.export		_musicSoundTestString07
	.export		_musicSoundTestString08
	.export		_musicSoundTestString09
	.export		_musicSoundTestString0A
	.export		_musicSoundTestString0B
	.export		_musicSoundTestString0C
	.export		_musicSoundTestString0D
	.export		_musicSoundTestString0E
	.export		_musicSoundTestString0F
	.export		_musicSoundTestString10
	.export		_musicSoundTestString11
	.export		_musicSoundTestString12
	.export		_musicSoundTestString13
	.export		_musicSoundTestString14
	.export		_musicSoundTestString15
	.export		_musicSoundTestString16
	.export		_musicSoundTestString17
	.export		_musicSoundTestString18
	.export		_musicSoundTestString19
	.export		_musicSoundTestString1A
	.export		_musicSoundTestString1B
	.export		_musicSoundTestString1C
	.export		_musicSoundTestString1D
	.export		_musicSoundTestString1E
	.export		_musicSoundTestString1F
	.export		_musicSoundTestString20
	.export		_musicSoundTestString21
	.export		_musicSoundTestString22
	.export		_musicSoundTestString23
	.export		_musicSoundTestString24
	.export		_musicSoundTestString25
	.export		_musicSoundTestString26
	.export		_musicSoundTestString27
	.export		_musicSoundTestString28
	.export		_musicSoundTestString29
	.export		_musicSoundTestString2A
	.export		_musicSoundTestString2B
	.export		_musicSoundTestString2C
	.export		_musicSoundTestString2D
	.export		_musicSoundTestString2E
	.export		_musicSoundTestString2F
	.export		_musicSoundTestString30
	.export		_musicSoundTestString31
	.export		_musicSoundTestString32
	.export		_musicSoundTestString33
	.export		_musicSoundTestString34
	.export		_musicSoundTestString35
	.export		_musicSoundTestString36
	.export		_musicSoundTestString37
	.export		_musicSoundTestString38
	.export		_musicSoundTestString39
	.export		_musicSoundTestString3A
	.export		_musicSoundTestString3B
	.export		_musicSoundTestString3C
	.export		_musicSoundTestString3D
	.export		_musicSoundTestString3E
	.export		_musicSoundTestString3F
	.export		_musicSoundTestString40
	.export		_musicSoundTestString41
	.export		_musicSoundTestString42
	.export		_musicSoundTestString43
	.export		_musicSoundTestString44
	.export		_musicSoundTestString45
	.export		_musicSoundTestString46
	.export		_xbgmtextsUpper
	.export		_xbgmtextsUpperSize
	.export		_xbgmtextsLower
	.export		_xbgmtextsLowerSize
	.export		_xbgmtextsOriginalArtist
	.export		_xbgmtextsOriginalArtistSize
	.export		_sfxSoundTestString00
	.export		_sfxSoundTestString01
	.export		_sfxSoundTestString02
	.export		_sfxSoundTestString03
	.export		_sfxSoundTestString04
	.export		_sfxSoundTestString05
	.export		_sfxSoundTestString06
	.export		_sfxSoundTestString07
	.export		_sfxSoundTestString08
	.export		_sfxSoundTestString09
	.export		_sfxSoundTestString0A
	.export		_sfxtexts
	.export		_sfxtextSizes
	.export		_bgmtestscreen
	.export		_state_soundtest
	.export		_leveldone
	.export		_practicedone
	.export		_set_fun_settings
	.export		_gameboytext1
	.export		_gameboytext2
	.export		_gameboytext3
	.export		_gameboytext4
	.export		_gameboytext5
	.export		_gameboytext6
	.export		_gameboytext7
	.export		_gameboytext8
	.export		_gameboytexts
	.export		_gameboy_text_size
	.export		_funsettingscreen
	.export		_state_funsettings
	.export		_difficulty_pal_A
	.export		_difficulty_pal_B
	.export		_levelText00
	.export		_levelText01
	.export		_levelText02
	.export		_levelText03
	.export		_levelText04
	.export		_levelText05
	.export		_levelText06
	.export		_levelText07
	.export		_levelText08
	.export		_levelText09
	.export		_levelText0A
	.export		_levelText0B
	.export		_levelText0C
	.export		_levelText0D
	.export		_levelText0E
	.export		_levelText0F
	.export		_levelText10
	.export		_levelText11
	.export		_levelText12
	.export		_levelText13
	.export		_levelText14
	.export		_levelText15
	.export		_levelText16
	.export		_levelText17
	.export		_levelText18
	.export		_levelText19
	.export		_levelText1A
	.export		_levelText1B
	.export		_levelText1C
	.export		_levelText1D
	.export		_levelText1E
	.export		_levelText1F
	.export		_levelText20
	.export		_levelText21
	.export		_levelText22
	.export		_levelText23
	.export		_levelText24
	.export		_levelText25
	.export		_levelText26
	.export		_levelText27
	.export		_levelText28
	.export		_levelText29
	.export		_levelText2A
	.export		_levelText2B
	.export		_levelText2C
	.export		_levelText2D
	.export		_levelText2E
	.export		_levelText2F
	.export		_levelText30
	.export		_levelText31
	.export		_levelText32
	.export		_levelText33
	.export		_levelText34
	.export		_levelText35
	.export		_levelText36
	.export		_levelText37
	.export		_levelText38
	.export		_levelText39
	.export		_levelText3A
	.export		_levelText3B
	.export		_levelText3C
	.export		_levelTextsUpper
	.export		_levelTextsUpperSize
	.export		_levelTextsLower
	.export		_levelTextsLowerSize
	.export		_coin_counter
	.export		_paletteSettings
	.export		_palette_Credits
	.export		_settingscreen
	.export		_Credits
	.export		_Credits2
	.export		_Credits3
	.export		_instructions
	.export		_state_instructions
	.export		_set_settings
	.export		_state_settings
	.export		_ver
	.export		_verNum
	.export		_credits_loop
	.export		_state_credits
	.import		_movement
	.export		_everything_else
	.export		_BG_Table
	.export		_G_Table
	.export		_check_for_cube_data_2_set
	.export		_runthecolls
	.export		_set_player_banks
	.export		_state_game
	.export		_checkcointimer
	.export		_checkcoinproceed
	.export		_lvl_done_update
	.export		_cheater
	.export		_cheatersize
	.export		_state_lvldone
	.export		_state_savefile_validate
	.export		_main

.segment	"DATA"

.segment	"XCD_BANK_00"
_sprite_heights:
	.byte	$34
	.byte	$34
	.byte	$34
	.byte	$34
	.byte	$34
	.byte	$12
	.byte	$12
	.byte	$FF
	.byte	$28
	.byte	$28
	.byte	$03
	.byte	$12
	.byte	$03
	.byte	$03
	.byte	$03
	.byte	$FF
	.byte	$0E
	.byte	$0E
	.byte	$0E
	.byte	$0E
	.byte	$24
	.byte	$24
	.byte	$24
	.byte	$34
	.byte	$34
	.byte	$34
	.byte	$FF
	.byte	$FF
	.byte	$FF
	.byte	$FF
	.byte	$FF
	.byte	$12
	.byte	$24
	.byte	$24
	.byte	$34
	.byte	$34
	.byte	$34
	.byte	$03
	.byte	$03
	.byte	$12
	.byte	$12
	.byte	$12
	.byte	$FE
	.byte	$FE
	.byte	$FE
	.byte	$FE
	.byte	$FE
	.byte	$FE
	.byte	$FE
	.byte	$FE
	.byte	$FE
	.byte	$FE
	.byte	$FE
	.byte	$FE
	.byte	$FE
	.byte	$FE
	.byte	$FE
	.byte	$FE
	.byte	$FE
	.byte	$FE
	.byte	$FE
	.byte	$FE
	.byte	$FE
	.byte	$FE
	.byte	$FE
	.byte	$FE
	.byte	$FE
	.byte	$FE
	.byte	$12
	.byte	$12
	.byte	$12
	.byte	$28
	.byte	$28
	.byte	$FE
	.byte	$FE
	.byte	$34
	.byte	$12
	.byte	$12
	.byte	$30
	.byte	$FF
	.byte	$12
	.byte	$12
	.byte	$03
	.byte	$03
	.byte	$12
	.byte	$12
	.byte	$03
	.byte	$03
	.byte	$34
	.byte	$10
	.byte	$FF
	.byte	$12
	.byte	$12
	.byte	$12
	.byte	$12
	.byte	$34
	.byte	$34
	.byte	$34
	.byte	$34
	.byte	$34
	.byte	$34
	.byte	$02
	.byte	$10
	.byte	$FF
	.byte	$10
	.byte	$FF
	.byte	$34
	.byte	$34
	.byte	$34
	.byte	$20
	.byte	$08
	.byte	$FF
	.byte	$FF
	.byte	$FF
	.byte	$FF
	.byte	$FF
	.byte	$FF
	.byte	$10
	.byte	$FF
	.byte	$10
	.byte	$FF
	.byte	$12
	.byte	$12
	.byte	$12
	.byte	$12
	.byte	$FF
	.byte	$FF
	.byte	$FF
	.byte	$FD
	.byte	$FD
	.byte	$FD
	.byte	$FD
	.byte	$FD
	.byte	$FD
	.byte	$FD
	.byte	$FD
	.byte	$FD
	.byte	$FD
	.byte	$FD
	.byte	$FD
	.byte	$FD
	.byte	$00
	.byte	$FF
	.byte	$FD
	.byte	$FD
	.byte	$FD
	.byte	$FD
	.byte	$FD
	.byte	$FD
	.byte	$FD
	.byte	$FD
	.byte	$FD
	.byte	$FD
	.byte	$FD
	.byte	$FD
	.byte	$FD
	.byte	$FD
	.byte	$00
	.byte	$FF
	.byte	$FD
	.byte	$FD
	.byte	$FD
	.byte	$FD
	.byte	$FD
	.byte	$FD
	.byte	$FD
	.byte	$FD
	.byte	$FD
	.byte	$FD
	.byte	$FD
	.byte	$FD
	.byte	$FD
	.byte	$FD
	.byte	$00
	.byte	$FD
	.byte	$FC
	.byte	$FC
	.byte	$FC
	.byte	$FC
	.byte	$FC
	.byte	$FC
	.byte	$FC
	.byte	$FC
	.byte	$FC
	.byte	$FC
	.byte	$FC
	.byte	$FC
	.byte	$FC
	.byte	$FC
	.byte	$FC
	.byte	$FC
	.byte	$FC
	.byte	$FD
	.byte	$FD
	.byte	$FD
	.byte	$FD
	.byte	$FD
	.byte	$FD
	.byte	$FD
	.byte	$FD
	.byte	$FD
	.byte	$FD
	.byte	$FD
	.byte	$FD
	.byte	$FD
	.byte	$00
	.byte	$00
	.byte	$FD
	.byte	$FD
	.byte	$FD
	.byte	$FD
	.byte	$FD
	.byte	$FD
	.byte	$FD
	.byte	$FD
	.byte	$FD
	.byte	$FD
	.byte	$FD
	.byte	$FD
	.byte	$FD
	.byte	$FD
	.byte	$FF
	.byte	$FF
	.byte	$FF
	.byte	$FD
	.byte	$FD
	.byte	$FD
	.byte	$FD
	.byte	$FD
	.byte	$FD
	.byte	$FD
	.byte	$FD
	.byte	$FD
	.byte	$FD
	.byte	$FD
	.byte	$FD
	.byte	$FD
	.byte	$FF
	.byte	$FF
	.byte	$FF
	.byte	$FF
	.byte	$FF
	.byte	$FF
	.byte	$FF
	.byte	$FF
	.byte	$FF
	.byte	$10
	.byte	$10
	.byte	$10
	.byte	$10
	.byte	$1F
	.byte	$10
	.byte	$10
	.byte	$03
	.byte	$03
	.byte	$00
_sprite_widths:
	.byte	$10
	.byte	$10
	.byte	$10
	.byte	$10
	.byte	$10
	.byte	$10
	.byte	$10
	.byte	$10
	.byte	$0E
	.byte	$0E
	.byte	$0F
	.byte	$10
	.byte	$0F
	.byte	$0F
	.byte	$0F
	.byte	$10
	.byte	$28
	.byte	$28
	.byte	$28
	.byte	$28
	.byte	$10
	.byte	$10
	.byte	$10
	.byte	$10
	.byte	$10
	.byte	$10
	.byte	$10
	.byte	$10
	.byte	$10
	.byte	$10
	.byte	$10
	.byte	$10
	.byte	$10
	.byte	$10
	.byte	$10
	.byte	$10
	.byte	$10
	.byte	$0F
	.byte	$0F
	.byte	$10
	.byte	$10
	.byte	$10
	.byte	$10
	.byte	$10
	.byte	$10
	.byte	$10
	.byte	$10
	.byte	$10
	.byte	$10
	.byte	$10
	.byte	$10
	.byte	$10
	.byte	$10
	.byte	$10
	.byte	$10
	.byte	$10
	.byte	$10
	.byte	$10
	.byte	$10
	.byte	$10
	.byte	$10
	.byte	$10
	.byte	$10
	.byte	$10
	.byte	$10
	.byte	$10
	.byte	$10
	.byte	$10
	.byte	$10
	.byte	$10
	.byte	$10
	.byte	$0E
	.byte	$0E
	.byte	$10
	.byte	$10
	.byte	$10
	.byte	$10
	.byte	$10
	.byte	$10
	.byte	$10
	.byte	$10
	.byte	$10
	.byte	$0F
	.byte	$0F
	.byte	$10
	.byte	$10
	.byte	$0F
	.byte	$0F
	.byte	$10
	.byte	$10
	.byte	$10
	.byte	$10
	.byte	$10
	.byte	$10
	.byte	$10
	.byte	$10
	.byte	$10
	.byte	$10
	.byte	$10
	.byte	$10
	.byte	$10
	.byte	$0E
	.byte	$30
	.byte	$30
	.byte	$30
	.byte	$30
	.byte	$10
	.byte	$10
	.byte	$10
	.byte	$10
	.byte	$08
	.byte	$10
	.byte	$10
	.byte	$10
	.byte	$10
	.byte	$10
	.byte	$10
	.byte	$30
	.byte	$30
	.byte	$30
	.byte	$30
	.byte	$10
	.byte	$10
	.byte	$10
	.byte	$10
	.byte	$10
	.byte	$10
	.byte	$10
	.byte	$10
	.byte	$10
	.byte	$10
	.byte	$10
	.byte	$10
	.byte	$10
	.byte	$10
	.byte	$10
	.byte	$10
	.byte	$10
	.byte	$10
	.byte	$10
	.byte	$10
	.byte	$10
	.byte	$10
	.byte	$10
	.byte	$10
	.byte	$10
	.byte	$10
	.byte	$10
	.byte	$10
	.byte	$10
	.byte	$10
	.byte	$10
	.byte	$10
	.byte	$10
	.byte	$10
	.byte	$10
	.byte	$10
	.byte	$10
	.byte	$10
	.byte	$10
	.byte	$10
	.byte	$10
	.byte	$10
	.byte	$10
	.byte	$10
	.byte	$10
	.byte	$10
	.byte	$10
	.byte	$10
	.byte	$10
	.byte	$10
	.byte	$10
	.byte	$10
	.byte	$10
	.byte	$10
	.byte	$10
	.byte	$10
	.byte	$10
	.byte	$10
	.byte	$10
	.byte	$10
	.byte	$10
	.byte	$10
	.byte	$10
	.byte	$10
	.byte	$10
	.byte	$10
	.byte	$10
	.byte	$10
	.byte	$10
	.byte	$10
	.byte	$10
	.byte	$10
	.byte	$10
	.byte	$10
	.byte	$10
	.byte	$10
	.byte	$10
	.byte	$10
	.byte	$10
	.byte	$10
	.byte	$10
	.byte	$10
	.byte	$10
	.byte	$10
	.byte	$10
	.byte	$10
	.byte	$10
	.byte	$10
	.byte	$10
	.byte	$10
	.byte	$10
	.byte	$10
	.byte	$10
	.byte	$10
	.byte	$10
	.byte	$10
	.byte	$10
	.byte	$10
	.byte	$10
	.byte	$10
	.byte	$10
	.byte	$10
	.byte	$10
	.byte	$10
	.byte	$10
	.byte	$10
	.byte	$10
	.byte	$10
	.byte	$10
	.byte	$10
	.byte	$10
	.byte	$10
	.byte	$10
	.byte	$10
	.byte	$10
	.byte	$10
	.byte	$10
	.byte	$10
	.byte	$10
	.byte	$10
	.byte	$10
	.byte	$10
	.byte	$10
	.byte	$10
	.byte	$10
	.byte	$10
	.byte	$10
	.byte	$10
	.byte	$08
	.byte	$1B
	.byte	$10
	.byte	$10
	.byte	$0E
	.byte	$0E
	.byte	$10
_sprite_x_offset:
	.byte	$00
	.byte	$00
	.byte	$00
	.byte	$00
	.byte	$00
	.byte	$00
	.byte	$00
	.byte	$00
	.byte	$01
	.byte	$01
	.byte	$00
	.byte	$00
	.byte	$00
	.byte	$00
	.byte	$00
	.byte	$00
	.byte	$04
	.byte	$04
	.byte	$04
	.byte	$04
	.byte	$00
	.byte	$00
	.byte	$00
	.byte	$00
	.byte	$08
	.byte	$08
	.byte	$00
	.byte	$00
	.byte	$00
	.byte	$00
	.byte	$00
	.byte	$00
	.byte	$00
	.byte	$00
	.byte	$00
	.byte	$00
	.byte	$00
	.byte	$00
	.byte	$00
	.byte	$00
	.byte	$00
	.byte	$00
	.byte	$00
	.byte	$00
	.byte	$00
	.byte	$00
	.byte	$00
	.byte	$00
	.byte	$00
	.byte	$00
	.byte	$00
	.byte	$00
	.byte	$00
	.byte	$00
	.byte	$00
	.byte	$00
	.byte	$00
	.byte	$00
	.byte	$00
	.byte	$00
	.byte	$00
	.byte	$00
	.byte	$00
	.byte	$00
	.byte	$00
	.byte	$00
	.byte	$00
	.byte	$00
	.byte	$00
	.byte	$00
	.byte	$00
	.byte	$01
	.byte	$01
	.byte	$00
	.byte	$00
	.byte	$00
	.byte	$00
	.byte	$00
	.byte	$00
	.byte	$00
	.byte	$00
	.byte	$00
	.byte	$00
	.byte	$00
	.byte	$00
	.byte	$00
	.byte	$00
	.byte	$00
	.byte	$00
	.byte	$00
	.byte	$00
	.byte	$00
	.byte	$00
	.byte	$00
	.byte	$00
	.byte	$00
	.byte	$00
	.byte	$00
	.byte	$00
	.byte	$00
	.byte	$00
	.byte	$00
	.byte	$00
	.byte	$00
	.byte	$00
	.byte	$00
	.byte	$00
	.byte	$00
	.byte	$00
	.byte	$00
	.byte	$04
	.byte	$00
	.byte	$00
	.byte	$00
	.byte	$00
	.byte	$00
	.byte	$00
	.byte	$00
	.byte	$00
	.byte	$00
	.byte	$00
	.byte	$00
	.byte	$00
	.byte	$00
	.byte	$00
	.byte	$00
	.byte	$00
	.byte	$00
	.byte	$00
	.byte	$00
	.byte	$00
	.byte	$00
	.byte	$00
	.byte	$00
	.byte	$00
	.byte	$00
	.byte	$00
	.byte	$00
	.byte	$00
	.byte	$00
	.byte	$00
	.byte	$00
	.byte	$00
	.byte	$00
	.byte	$00
	.byte	$00
	.byte	$00
	.byte	$00
	.byte	$00
	.byte	$00
	.byte	$00
	.byte	$00
	.byte	$00
	.byte	$00
	.byte	$00
	.byte	$00
	.byte	$00
	.byte	$00
	.byte	$00
	.byte	$00
	.byte	$00
	.byte	$00
	.byte	$00
	.byte	$00
	.byte	$00
	.byte	$00
	.byte	$00
	.byte	$00
	.byte	$00
	.byte	$00
	.byte	$00
	.byte	$00
	.byte	$00
	.byte	$00
	.byte	$00
	.byte	$00
	.byte	$00
	.byte	$00
	.byte	$00
	.byte	$00
	.byte	$00
	.byte	$00
	.byte	$00
	.byte	$00
	.byte	$00
	.byte	$00
	.byte	$00
	.byte	$00
	.byte	$00
	.byte	$00
	.byte	$00
	.byte	$00
	.byte	$00
	.byte	$00
	.byte	$00
	.byte	$00
	.byte	$00
	.byte	$00
	.byte	$00
	.byte	$00
	.byte	$00
	.byte	$00
	.byte	$00
	.byte	$00
	.byte	$00
	.byte	$00
	.byte	$00
	.byte	$00
	.byte	$00
	.byte	$00
	.byte	$00
	.byte	$00
	.byte	$00
	.byte	$00
	.byte	$00
	.byte	$00
	.byte	$00
	.byte	$00
	.byte	$00
	.byte	$00
	.byte	$00
	.byte	$00
	.byte	$00
	.byte	$00
	.byte	$00
	.byte	$00
	.byte	$00
	.byte	$00
	.byte	$00
	.byte	$00
	.byte	$00
	.byte	$00
	.byte	$00
	.byte	$00
	.byte	$00
	.byte	$00
	.byte	$00
	.byte	$00
	.byte	$00
	.byte	$00
	.byte	$00
	.byte	$00
	.byte	$00
	.byte	$00
	.byte	$00
	.byte	$00
	.byte	$00
	.byte	$00
	.byte	$00
	.byte	$08
	.byte	$F9
	.byte	$00
	.byte	$00
	.byte	$00
	.byte	$00
	.byte	$00
_sprite_y_offset:
	.byte	$FE
	.byte	$FE
	.byte	$FE
	.byte	$FE
	.byte	$FE
	.byte	$FF
	.byte	$FF
	.byte	$00
	.byte	$04
	.byte	$04
	.byte	$05
	.byte	$FF
	.byte	$00
	.byte	$05
	.byte	$00
	.byte	$00
	.byte	$01
	.byte	$01
	.byte	$01
	.byte	$01
	.byte	$FE
	.byte	$FE
	.byte	$FE
	.byte	$FE
	.byte	$FE
	.byte	$FE
	.byte	$00
	.byte	$00
	.byte	$00
	.byte	$00
	.byte	$00
	.byte	$FF
	.byte	$FE
	.byte	$FE
	.byte	$FE
	.byte	$FE
	.byte	$FE
	.byte	$05
	.byte	$00
	.byte	$FF
	.byte	$FF
	.byte	$FF
	.byte	$00
	.byte	$00
	.byte	$00
	.byte	$00
	.byte	$00
	.byte	$00
	.byte	$00
	.byte	$00
	.byte	$00
	.byte	$00
	.byte	$00
	.byte	$00
	.byte	$00
	.byte	$00
	.byte	$00
	.byte	$00
	.byte	$00
	.byte	$00
	.byte	$00
	.byte	$00
	.byte	$00
	.byte	$00
	.byte	$00
	.byte	$00
	.byte	$00
	.byte	$00
	.byte	$FF
	.byte	$FF
	.byte	$FF
	.byte	$04
	.byte	$04
	.byte	$00
	.byte	$00
	.byte	$FE
	.byte	$00
	.byte	$FF
	.byte	$FF
	.byte	$00
	.byte	$FF
	.byte	$FF
	.byte	$05
	.byte	$00
	.byte	$FF
	.byte	$FF
	.byte	$05
	.byte	$00
	.byte	$FE
	.byte	$00
	.byte	$00
	.byte	$FF
	.byte	$FF
	.byte	$FF
	.byte	$FF
	.byte	$FE
	.byte	$FE
	.byte	$FE
	.byte	$FE
	.byte	$FE
	.byte	$FE
	.byte	$00
	.byte	$00
	.byte	$00
	.byte	$00
	.byte	$00
	.byte	$FE
	.byte	$FE
	.byte	$FE
	.byte	$00
	.byte	$04
	.byte	$00
	.byte	$00
	.byte	$00
	.byte	$00
	.byte	$00
	.byte	$00
	.byte	$00
	.byte	$00
	.byte	$00
	.byte	$00
	.byte	$FF
	.byte	$FF
	.byte	$FF
	.byte	$FF
	.byte	$00
	.byte	$00
	.byte	$00
	.byte	$00
	.byte	$00
	.byte	$00
	.byte	$00
	.byte	$00
	.byte	$00
	.byte	$00
	.byte	$00
	.byte	$00
	.byte	$00
	.byte	$00
	.byte	$00
	.byte	$00
	.byte	$00
	.byte	$00
	.byte	$00
	.byte	$00
	.byte	$00
	.byte	$00
	.byte	$00
	.byte	$00
	.byte	$00
	.byte	$00
	.byte	$00
	.byte	$00
	.byte	$00
	.byte	$00
	.byte	$00
	.byte	$00
	.byte	$00
	.byte	$00
	.byte	$00
	.byte	$00
	.byte	$00
	.byte	$00
	.byte	$00
	.byte	$00
	.byte	$00
	.byte	$00
	.byte	$00
	.byte	$00
	.byte	$00
	.byte	$00
	.byte	$00
	.byte	$00
	.byte	$00
	.byte	$00
	.byte	$00
	.byte	$00
	.byte	$00
	.byte	$00
	.byte	$00
	.byte	$00
	.byte	$00
	.byte	$00
	.byte	$00
	.byte	$00
	.byte	$00
	.byte	$00
	.byte	$00
	.byte	$00
	.byte	$00
	.byte	$00
	.byte	$00
	.byte	$00
	.byte	$00
	.byte	$00
	.byte	$00
	.byte	$00
	.byte	$00
	.byte	$00
	.byte	$00
	.byte	$00
	.byte	$00
	.byte	$00
	.byte	$00
	.byte	$00
	.byte	$00
	.byte	$00
	.byte	$00
	.byte	$00
	.byte	$00
	.byte	$00
	.byte	$00
	.byte	$00
	.byte	$00
	.byte	$00
	.byte	$00
	.byte	$00
	.byte	$00
	.byte	$00
	.byte	$00
	.byte	$00
	.byte	$00
	.byte	$00
	.byte	$00
	.byte	$00
	.byte	$00
	.byte	$00
	.byte	$00
	.byte	$00
	.byte	$00
	.byte	$00
	.byte	$00
	.byte	$00
	.byte	$00
	.byte	$00
	.byte	$00
	.byte	$00
	.byte	$00
	.byte	$00
	.byte	$00
	.byte	$00
	.byte	$00
	.byte	$00
	.byte	$00
	.byte	$00
	.byte	$00
	.byte	$00
	.byte	$00
	.byte	$00
	.byte	$00
	.byte	$F9
	.byte	$00
	.byte	$00
	.byte	$05
	.byte	$02
	.byte	$00
.segment	"XCD_BANK_06"
.segment	"XCD_BANK_00"
.segment	"DATA"
.segment	"XCD_BANK_04"
.segment	"DATA"
.segment	"XCD_BANK_04"
.segment	"DATA"
.segment	"XCD_BANK_04"
.segment	"DATA"
.segment	"XCD_BANK_01"
_a_check_lookup:
	.byte	$01
	.byte	$00
	.byte	$00
	.byte	$01
	.byte	$01
	.byte	$00
	.byte	$00
	.byte	$01
.segment	"DATA"
.segment	"XCD_BANK_06"
.segment	"DATA"
.segment	"CODE"
.segment	"DATA"
.segment	"XCD_BANK_01"
.segment	"DATA"
.segment	"XCD_BANK_01"
.segment	"DATA"
.segment	"XCD_BANK_01"
.segment	"DATA"
.segment	"XCD_BANK_01"
.segment	"DATA"
.segment	"XCD_BANK_01"
.segment	"DATA"
.segment	"XCD_BANK_01"
.segment	"DATA"
.segment	"XCD_BANK_03"
.segment	"XCD_BANK_05"
.segment	"RODATA"
.segment	"XCD_BANK_05"
.segment	"XCD_BANK_06"
.segment	"XCD_BANK_02"
.segment	"DATA"
.segment	"XCD_BANK_06"
.segment	"DATA"
.segment	"XCD_BANK_02"
.segment	"DATA"

.segment	"RODATA"

_gameboy_check_table:
	.byte	$00
	.byte	$01
	.byte	$21
	.byte	$41
	.byte	$81
	.byte	$61
	.byte	$A1
	.byte	$C1
	.byte	$E1
.segment	"RODATA"
_CUBE_WIDTH:
	.byte	$0F
	.byte	$08
_CUBE_HEIGHT:
	.byte	$0F
	.byte	$07
_CUBE_SPEED_50:
	.word	$5203
	.word	$AE02
	.word	$2104
	.word	$FE04
	.word	$2406
	.word	$B701
_CUBE_SPEED_60:
	.word	$C402
	.word	$3B02
	.word	$7103
	.word	$2904
	.word	$1E05
	.word	$6E01
_CUBE_SPEED:
	.addr	_CUBE_SPEED_50
	.addr	_CUBE_SPEED_60
.segment	"XCD_BANK_06"
_sprite_gamemode_adjust_heights_50_mg:
	.word	$53F9
	.word	$D3FA
	.word	$20FB
	.word	$93FB
	.word	$53F9
	.word	$E6FA
	.word	$0000
	.word	$A6FB
	.word	$B3F6
	.word	$80FB
	.word	$13FA
	.word	$2DFC
	.word	$93F5
	.word	$00FA
	.word	$0000
	.word	$D3FA
	.word	$6DFB
	.word	$9AFD
	.word	$2DFC
	.word	$73FD
	.word	$D3FA
	.word	$06FC
	.word	$0000
	.word	$A0FC
	.word	$EDF9
	.word	$13FD
	.word	$F3FB
	.word	$3AFD
	.word	$A0F9
	.word	$06FC
	.word	$0000
	.word	$F3FB
	.word	$3AF7
	.word	$06F9
	.word	$A0F9
	.word	$EDF9
	.word	$3AF7
	.word	$00FA
	.word	$0000
	.word	$3AFA
	.word	$53F9
	.word	$53F9
	.word	$06F9
	.word	$53F9
	.word	$53F9
	.word	$53F9
	.word	$0000
	.word	$06F9
	.word	$7A0B
	.word	$7A0B
	.word	$530B
	.word	$7A0B
	.word	$7A0B
	.word	$7A0B
	.word	$0000
	.word	$530B
	.word	$B3F9
	.word	$B3F9
	.word	$AAFA
	.word	$60FA
	.word	$13F7
	.word	$60FA
	.word	$0000
	.word	$AAFA
	.word	$13F4
	.word	$A6F8
	.word	$93F8
	.word	$33FB
	.word	$A0F3
	.word	$20F8
	.word	$0000
	.word	$5AF8
_sprite_gamemode_adjust_heights_50_mG:
	.word	$AD06
	.word	$2D05
	.word	$E004
	.word	$6D04
	.word	$AD06
	.word	$1A05
	.word	$0000
	.word	$5A04
	.word	$4D09
	.word	$8004
	.word	$ED05
	.word	$D303
	.word	$6D0A
	.word	$0006
	.word	$0000
	.word	$2D05
	.word	$9304
	.word	$6602
	.word	$D303
	.word	$8D02
	.word	$2D05
	.word	$FA03
	.word	$0000
	.word	$6003
	.word	$1306
	.word	$ED02
	.word	$0D04
	.word	$C602
	.word	$6006
	.word	$FA03
	.word	$0000
	.word	$0D04
	.word	$C608
	.word	$FA06
	.word	$6006
	.word	$1306
	.word	$C608
	.word	$0006
	.word	$0000
	.word	$C605
	.word	$AD06
	.word	$AD06
	.word	$FA06
	.word	$AD06
	.word	$AD06
	.word	$AD06
	.word	$0000
	.word	$FA06
	.word	$86F4
	.word	$86F4
	.word	$ADF4
	.word	$86F4
	.word	$86F4
	.word	$86F4
	.word	$0000
	.word	$ADF4
	.word	$4D06
	.word	$4D06
	.word	$5605
	.word	$A005
	.word	$ED08
	.word	$A005
	.word	$0000
	.word	$5605
	.word	$ED0B
	.word	$5A07
	.word	$6D07
	.word	$CD04
	.word	$600C
	.word	$E007
	.word	$0000
	.word	$A607
_sprite_gamemode_adjust_heights_50_Mg:
	.word	$3AFA
	.word	$73FA
	.word	$D3FA
	.word	$6DFB
	.word	$ADFA
	.word	$06FC
	.word	$0000
	.word	$DAFC
	.word	$33F8
	.word	$FAFA
	.word	$3AFA
	.word	$A6FB
	.word	$60F7
	.word	$33FB
	.word	$0000
	.word	$1AFC
	.word	$06FC
	.word	$C0FD
	.word	$06FC
	.word	$FAFD
	.word	$E0FB
	.word	$60FD
	.word	$0000
	.word	$ADFD
	.word	$46FB
	.word	$C0FD
	.word	$BAFB
	.word	$6DFE
	.word	$06FC
	.word	$06FC
	.word	$0000
	.word	$73FD
	.word	$6DF8
	.word	$46F8
	.word	$00FA
	.word	$A0F9
	.word	$6DF8
	.word	$ADFA
	.word	$0000
	.word	$06FC
	.word	$53F9
	.word	$53F9
	.word	$8DF9
	.word	$53F9
	.word	$53F9
	.word	$53F9
	.word	$0000
	.word	$8DF9
	.word	$7A0B
	.word	$7A0B
	.word	$530B
	.word	$7A0B
	.word	$7A0B
	.word	$7A0B
	.word	$0000
	.word	$530B
	.word	$B3F9
	.word	$B3F9
	.word	$AAFA
	.word	$60FA
	.word	$13F7
	.word	$60FA
	.word	$0000
	.word	$AAFA
	.word	$2DF6
	.word	$E6F7
	.word	$2DF9
	.word	$A0F9
	.word	$6DF5
	.word	$A0F9
	.word	$0000
	.word	$A6FB
_sprite_gamemode_adjust_heights_50_MG:
	.word	$C605
	.word	$8D05
	.word	$2D05
	.word	$9304
	.word	$5305
	.word	$FA03
	.word	$0000
	.word	$2603
	.word	$CD07
	.word	$0605
	.word	$C605
	.word	$5A04
	.word	$A008
	.word	$CD04
	.word	$0000
	.word	$E603
	.word	$FA03
	.word	$4002
	.word	$FA03
	.word	$0602
	.word	$2004
	.word	$A002
	.word	$0000
	.word	$5302
	.word	$BA04
	.word	$4002
	.word	$4604
	.word	$9301
	.word	$FA03
	.word	$FA03
	.word	$0000
	.word	$8D02
	.word	$9307
	.word	$BA07
	.word	$0006
	.word	$6006
	.word	$9307
	.word	$5305
	.word	$0000
	.word	$FA03
	.word	$AD06
	.word	$AD06
	.word	$7306
	.word	$AD06
	.word	$AD06
	.word	$AD06
	.word	$0000
	.word	$7306
	.word	$86F4
	.word	$86F4
	.word	$ADF4
	.word	$86F4
	.word	$86F4
	.word	$86F4
	.word	$0000
	.word	$ADF4
	.word	$4D06
	.word	$4D06
	.word	$5605
	.word	$A005
	.word	$ED08
	.word	$A005
	.word	$0000
	.word	$5605
	.word	$D309
	.word	$1A08
	.word	$D306
	.word	$6006
	.word	$930A
	.word	$6006
	.word	$0000
	.word	$5A04
_sprite_gamemode_adjust_heights_60_mg:
	.word	$70FA
	.word	$B0FB
	.word	$F0FB
	.word	$50FC
	.word	$70FA
	.word	$C0FB
	.word	$0000
	.word	$60FC
	.word	$40F8
	.word	$40FC
	.word	$10FB
	.word	$D0FC
	.word	$50F7
	.word	$00FB
	.word	$0000
	.word	$B0FB
	.word	$30FC
	.word	$00FE
	.word	$D0FC
	.word	$E0FD
	.word	$B0FB
	.word	$B0FC
	.word	$0000
	.word	$30FD
	.word	$F0FA
	.word	$90FD
	.word	$A0FC
	.word	$B0FD
	.word	$B0FA
	.word	$B0FC
	.word	$0000
	.word	$A0FC
	.word	$B0F8
	.word	$30FA
	.word	$B0FA
	.word	$F0FA
	.word	$B0F8
	.word	$00FB
	.word	$0000
	.word	$30FB
	.word	$70FA
	.word	$70FA
	.word	$30FA
	.word	$70FA
	.word	$70FA
	.word	$70FA
	.word	$0000
	.word	$30FA
	.word	$9009
	.word	$9009
	.word	$7009
	.word	$9009
	.word	$9009
	.word	$9009
	.word	$0000
	.word	$7009
	.word	$C0FA
	.word	$C0FA
	.word	$8EFB
	.word	$50FB
	.word	$90F8
	.word	$50FB
	.word	$0000
	.word	$8EFB
	.word	$10F6
	.word	$E0F9
	.word	$D0F9
	.word	$00FC
	.word	$B0F5
	.word	$70F9
	.word	$0000
	.word	$A0F9
_sprite_gamemode_adjust_heights_60_mG:
	.word	$9005
	.word	$5004
	.word	$1004
	.word	$B003
	.word	$9005
	.word	$4004
	.word	$0000
	.word	$A003
	.word	$C007
	.word	$C003
	.word	$F004
	.word	$3003
	.word	$B008
	.word	$0005
	.word	$0000
	.word	$5004
	.word	$D003
	.word	$0002
	.word	$3003
	.word	$2002
	.word	$5004
	.word	$5003
	.word	$0000
	.word	$D002
	.word	$1005
	.word	$7002
	.word	$6003
	.word	$5002
	.word	$5005
	.word	$5003
	.word	$0000
	.word	$6003
	.word	$5007
	.word	$D005
	.word	$5005
	.word	$1005
	.word	$5007
	.word	$0005
	.word	$0000
	.word	$D004
	.word	$9005
	.word	$9005
	.word	$D005
	.word	$9005
	.word	$9005
	.word	$9005
	.word	$0000
	.word	$D005
	.word	$70F6
	.word	$70F6
	.word	$90F6
	.word	$70F6
	.word	$70F6
	.word	$70F6
	.word	$0000
	.word	$90F6
	.word	$4005
	.word	$4005
	.word	$7204
	.word	$B004
	.word	$7007
	.word	$B004
	.word	$0000
	.word	$7204
	.word	$F009
	.word	$2006
	.word	$3006
	.word	$0004
	.word	$500A
	.word	$9006
	.word	$0000
	.word	$6006
_sprite_gamemode_adjust_heights_60_Mg:
	.word	$30FB
	.word	$60FB
	.word	$B0FB
	.word	$30FC
	.word	$90FB
	.word	$B0FC
	.word	$0000
	.word	$60FD
	.word	$80F9
	.word	$D0FB
	.word	$30FB
	.word	$60FC
	.word	$D0F8
	.word	$00FC
	.word	$0000
	.word	$C0FC
	.word	$B0FC
	.word	$20FE
	.word	$B0FC
	.word	$50FE
	.word	$90FC
	.word	$D0FD
	.word	$0000
	.word	$10FE
	.word	$10FC
	.word	$20FE
	.word	$70FC
	.word	$B0FE
	.word	$B0FC
	.word	$B0FC
	.word	$0000
	.word	$E0FD
	.word	$B0F9
	.word	$90F9
	.word	$00FB
	.word	$B0FA
	.word	$B0F9
	.word	$90FB
	.word	$0000
	.word	$B0FC
	.word	$70FA
	.word	$70FA
	.word	$A0FA
	.word	$70FA
	.word	$70FA
	.word	$70FA
	.word	$0000
	.word	$A0FA
	.word	$9009
	.word	$9009
	.word	$7009
	.word	$9009
	.word	$9009
	.word	$9009
	.word	$0000
	.word	$7009
	.word	$C0FA
	.word	$C0FA
	.word	$8EFB
	.word	$50FB
	.word	$90F8
	.word	$50FB
	.word	$0000
	.word	$8EFB
	.word	$D0F7
	.word	$40F9
	.word	$50FA
	.word	$B0FA
	.word	$30F7
	.word	$B0FA
	.word	$0000
	.word	$60FC
_sprite_gamemode_adjust_heights_60_MG:
	.word	$D004
	.word	$A004
	.word	$5004
	.word	$D003
	.word	$7004
	.word	$5003
	.word	$0000
	.word	$A002
	.word	$8006
	.word	$3004
	.word	$D004
	.word	$A003
	.word	$3007
	.word	$0004
	.word	$0000
	.word	$4003
	.word	$5003
	.word	$E001
	.word	$5003
	.word	$B001
	.word	$7003
	.word	$3002
	.word	$0000
	.word	$F001
	.word	$F003
	.word	$E001
	.word	$9003
	.word	$5001
	.word	$5003
	.word	$5003
	.word	$0000
	.word	$2002
	.word	$5006
	.word	$7006
	.word	$0005
	.word	$5005
	.word	$5006
	.word	$7004
	.word	$0000
	.word	$5003
	.word	$9005
	.word	$9005
	.word	$6005
	.word	$9005
	.word	$9005
	.word	$9005
	.word	$0000
	.word	$6005
	.word	$70F6
	.word	$70F6
	.word	$90F6
	.word	$70F6
	.word	$70F6
	.word	$70F6
	.word	$0000
	.word	$90F6
	.word	$4005
	.word	$4005
	.word	$7204
	.word	$B004
	.word	$7007
	.word	$B004
	.word	$0000
	.word	$7204
	.word	$3008
	.word	$C006
	.word	$B005
	.word	$5005
	.word	$D008
	.word	$5005
	.word	$0000
	.word	$A003
_sprite_gamemode_adjust_heights:
	.addr	_sprite_gamemode_adjust_heights_50_mg
	.addr	_sprite_gamemode_adjust_heights_50_mG
	.addr	_sprite_gamemode_adjust_heights_50_Mg
	.addr	_sprite_gamemode_adjust_heights_50_MG
	.addr	_sprite_gamemode_adjust_heights_60_mg
	.addr	_sprite_gamemode_adjust_heights_60_mG
	.addr	_sprite_gamemode_adjust_heights_60_Mg
	.addr	_sprite_gamemode_adjust_heights_60_MG
.segment	"XCD_BANK_00"
_PAD_HEIGHT_BLUE_lo:
	.byte	$5A
	.byte	$A6
	.byte	$5A
	.byte	$A6
	.byte	$A0
	.byte	$60
	.byte	$A0
	.byte	$60
_PAD_HEIGHT_BLUE_hi:
	.byte	$04
	.byte	$FB
	.byte	$04
	.byte	$FB
	.byte	$03
	.byte	$FC
	.byte	$03
	.byte	$FC
_ORB_BALL_HEIGHT_BLUE_lo:
	.byte	$F3
	.byte	$0D
	.byte	$F3
	.byte	$0D
	.byte	$A0
	.byte	$60
	.byte	$A0
	.byte	$60
_ORB_BALL_HEIGHT_BLUE_hi:
	.byte	$01
	.byte	$FE
	.byte	$01
	.byte	$FE
	.byte	$01
	.byte	$FE
	.byte	$01
	.byte	$FE
_POS_DUAL_CAP_CHECK_lo:
	.byte	$C6
	.byte	$50
_NEG_DUAL_CAP_CHECK_lo:
	.byte	$3A
	.byte	$B0
.segment	"XCD_BANK_01"
_JUMP_VEL_lo:
	.byte	$53
	.byte	$AD
	.byte	$3A
	.byte	$C6
	.byte	$70
	.byte	$90
	.byte	$30
	.byte	$D0
_JUMP_VEL_hi:
	.byte	$F9
	.byte	$06
	.byte	$FA
	.byte	$05
	.byte	$FA
	.byte	$05
	.byte	$FB
	.byte	$04
_BALL_SWITCH_VEL_lo:
	.byte	$66
	.byte	$9A
	.byte	$5A
	.byte	$A6
	.byte	$00
	.byte	$00
	.byte	$20
	.byte	$E0
_BALL_SWITCH_VEL_hi:
	.byte	$02
	.byte	$FD
	.byte	$01
	.byte	$FE
	.byte	$02
	.byte	$FE
	.byte	$01
	.byte	$FE
_UFO_JUMP_VEL_lo:
	.byte	$2D
	.byte	$D3
	.byte	$A0
	.byte	$60
	.byte	$D0
	.byte	$30
	.byte	$30
	.byte	$D0
_UFO_JUMP_VEL_hi:
	.byte	$FC
	.byte	$03
	.byte	$FC
	.byte	$03
	.byte	$FC
	.byte	$03
	.byte	$FD
	.byte	$02
_ROBOT_JUMP_VEL_lo:
	.byte	$C6
	.byte	$3A
	.byte	$C6
	.byte	$3A
	.byte	$50
	.byte	$B0
	.byte	$50
	.byte	$B0
_ROBOT_JUMP_VEL_hi:
	.byte	$FC
	.byte	$03
	.byte	$FC
	.byte	$03
	.byte	$FD
	.byte	$02
	.byte	$FD
	.byte	$02
_ROBOT_JUMP_TIME:
	.byte	$10
	.byte	$13
_CUBE_MAX_FALLSPEED_lo:
	.byte	$33
	.byte	$CD
	.byte	$33
	.byte	$CD
	.byte	$00
	.byte	$00
	.byte	$00
	.byte	$00
_CUBE_MAX_FALLSPEED_hi:
	.byte	$07
	.byte	$F8
	.byte	$07
	.byte	$F8
	.byte	$06
	.byte	$FA
	.byte	$06
	.byte	$FA
_SHIP_MAX_FALLSPEED_lo:
	.byte	$69
	.byte	$97
	.byte	$03
	.byte	$FD
	.byte	$D7
	.byte	$29
	.byte	$57
	.byte	$A9
_SHIP_MAX_FALLSPEED_hi:
	.byte	$03
	.byte	$FC
	.byte	$04
	.byte	$FB
	.byte	$02
	.byte	$FD
	.byte	$03
	.byte	$FC
_SHIP_MAX_FALLSPEED_HOLD_lo:
	.byte	$43
	.byte	$BD
	.byte	$03
	.byte	$FD
	.byte	$8D
	.byte	$73
	.byte	$2D
	.byte	$D3
_SHIP_MAX_FALLSPEED_HOLD_hi:
	.byte	$04
	.byte	$FB
	.byte	$05
	.byte	$FA
	.byte	$03
	.byte	$FC
	.byte	$04
	.byte	$FB
_BALL_MAX_FALLSPEED_lo:
	.byte	$33
	.byte	$CD
	.byte	$00
	.byte	$00
	.byte	$00
	.byte	$00
	.byte	$00
	.byte	$00
_BALL_MAX_FALLSPEED_hi:
	.byte	$07
	.byte	$F8
	.byte	$06
	.byte	$FA
	.byte	$06
	.byte	$FA
	.byte	$05
	.byte	$FB
_UFO_MAX_FALLSPEED_lo:
	.byte	$C0
	.byte	$40
	.byte	$FA
	.byte	$06
	.byte	$20
	.byte	$E0
	.byte	$50
	.byte	$B0
_UFO_MAX_FALLSPEED_hi:
	.byte	$03
	.byte	$FC
	.byte	$03
	.byte	$FC
	.byte	$03
	.byte	$FC
	.byte	$03
	.byte	$FC
_SPIDER_MAX_FALLSPEED_lo:
	.byte	$33
	.byte	$CD
	.byte	$33
	.byte	$CD
	.byte	$00
	.byte	$00
	.byte	$00
	.byte	$00
_SPIDER_MAX_FALLSPEED_hi:
	.byte	$07
	.byte	$F8
	.byte	$07
	.byte	$F8
	.byte	$06
	.byte	$FA
	.byte	$06
	.byte	$FA
_SWING_MAX_FALLSPEED_lo:
	.byte	$06
	.byte	$FA
	.byte	$06
	.byte	$FA
	.byte	$30
	.byte	$D0
	.byte	$30
	.byte	$D0
_SWING_MAX_FALLSPEED_hi:
	.byte	$05
	.byte	$FA
	.byte	$05
	.byte	$FA
	.byte	$04
	.byte	$FB
	.byte	$04
	.byte	$FB
.segment	"XCD_BANK_04"
_SHIP_SCROLL_SPEED_lo:
	.byte	$66
	.byte	$00
.segment	"RODATA"
_CUBE_GRAVITY_lo:
	.byte	$9A
	.byte	$66
	.byte	$A0
	.byte	$60
	.byte	$6B
	.byte	$95
	.byte	$6F
	.byte	$91
_CUBE_GRAVITY_hi:
	.byte	$00
	.byte	$FF
	.byte	$00
	.byte	$FF
	.byte	$00
	.byte	$FF
	.byte	$00
	.byte	$FF
_SHIP_GRAVITY_BASE_lo:
	.byte	$3C
	.byte	$C4
	.byte	$47
	.byte	$B9
	.byte	$2A
	.byte	$D6
	.byte	$31
	.byte	$CF
_SHIP_GRAVITY_BASE_hi:
	.byte	$00
	.byte	$FF
	.byte	$00
	.byte	$FF
	.byte	$00
	.byte	$FF
	.byte	$00
	.byte	$FF
_SHIP_GRAVITY_lo:
	.byte	$30
	.byte	$D0
	.byte	$39
	.byte	$C7
	.byte	$22
	.byte	$DE
	.byte	$27
	.byte	$D9
_SHIP_GRAVITY_hi:
	.byte	$00
	.byte	$FF
	.byte	$00
	.byte	$FF
	.byte	$00
	.byte	$FF
	.byte	$00
	.byte	$FF
_SHIP_GRAVITY_AFTER_HOLD_lo:
	.byte	$49
	.byte	$B7
	.byte	$55
	.byte	$AB
	.byte	$32
	.byte	$CE
	.byte	$3B
	.byte	$C5
_SHIP_GRAVITY_AFTER_HOLD_hi:
	.byte	$00
	.byte	$FF
	.byte	$00
	.byte	$FF
	.byte	$00
	.byte	$FF
	.byte	$00
	.byte	$FF
_SHIP_GRAVITY_HOLD_FALL_lo:
	.byte	$4C
	.byte	$B4
	.byte	$59
	.byte	$A7
	.byte	$34
	.byte	$CC
	.byte	$3E
	.byte	$C2
_SHIP_GRAVITY_HOLD_FALL_hi:
	.byte	$00
	.byte	$FF
	.byte	$00
	.byte	$FF
	.byte	$00
	.byte	$FF
	.byte	$00
	.byte	$FF
_BALL_GRAVITY_lo:
	.byte	$66
	.byte	$9A
	.byte	$7D
	.byte	$83
	.byte	$47
	.byte	$B9
	.byte	$57
	.byte	$A9
_BALL_GRAVITY_hi:
	.byte	$00
	.byte	$FF
	.byte	$00
	.byte	$FF
	.byte	$00
	.byte	$FF
	.byte	$00
	.byte	$FF
_UFO_GRAVITY_lo:
	.byte	$48
	.byte	$B8
	.byte	$48
	.byte	$B8
	.byte	$32
	.byte	$CE
	.byte	$32
	.byte	$CE
_UFO_GRAVITY_hi:
	.byte	$00
	.byte	$FF
	.byte	$00
	.byte	$FF
	.byte	$00
	.byte	$FF
	.byte	$00
	.byte	$FF
_SPIDER_GRAVITY_lo:
	.byte	$6C
	.byte	$94
	.byte	$6C
	.byte	$94
	.byte	$4B
	.byte	$B5
	.byte	$4B
	.byte	$B5
_SPIDER_GRAVITY_hi:
	.byte	$00
	.byte	$FF
	.byte	$00
	.byte	$FF
	.byte	$00
	.byte	$FF
	.byte	$00
	.byte	$FF
_SWING_GRAVITY_lo:
	.byte	$48
	.byte	$B8
	.byte	$51
	.byte	$AF
	.byte	$32
	.byte	$CE
	.byte	$38
	.byte	$C8
_SWING_GRAVITY_hi:
	.byte	$00
	.byte	$FF
	.byte	$00
	.byte	$FF
	.byte	$00
	.byte	$FF
	.byte	$00
	.byte	$FF
_MAKE_CUBE_JUMP_HIGHER_lo:
	.byte	$66
	.byte	$9A
	.byte	$66
	.byte	$9A
	.byte	$80
	.byte	$80
	.byte	$80
	.byte	$80
_MAKE_CUBE_JUMP_HIGHER_hi:
	.byte	$FF
	.byte	$00
	.byte	$FF
	.byte	$00
	.byte	$FF
	.byte	$00
	.byte	$FF
	.byte	$00
_EXIT_SLOPE_BALL_22_lo:
	.byte	$A0
	.byte	$60
	.byte	$A0
	.byte	$60
	.byte	$B0
	.byte	$50
	.byte	$B0
	.byte	$50
_EXIT_SLOPE_BALL_22_hi:
	.byte	$FF
	.byte	$00
	.byte	$FF
	.byte	$00
	.byte	$FF
	.byte	$00
	.byte	$FF
	.byte	$00
_EXIT_SLOPE_BALL_66_lo:
	.byte	$93
	.byte	$6D
	.byte	$93
	.byte	$6D
	.byte	$50
	.byte	$B0
	.byte	$50
	.byte	$B0
_EXIT_SLOPE_BALL_66_hi:
	.byte	$01
	.byte	$FE
	.byte	$01
	.byte	$FE
	.byte	$01
	.byte	$FE
	.byte	$01
	.byte	$FE
_EXIT_SLOPE_CUBE_22_lo:
	.byte	$CD
	.byte	$33
	.byte	$CD
	.byte	$33
	.byte	$00
	.byte	$00
	.byte	$00
	.byte	$00
_EXIT_SLOPE_CUBE_22_hi:
	.byte	$FE
	.byte	$01
	.byte	$FE
	.byte	$01
	.byte	$FF
	.byte	$01
	.byte	$FF
	.byte	$01
_DASH_END_VEL_RESET_lo:
	.byte	$33
	.byte	$CD
	.byte	$33
	.byte	$CD
	.byte	$00
	.byte	$00
	.byte	$00
	.byte	$00
_DASH_END_VEL_RESET_hi:
	.byte	$01
	.byte	$FE
	.byte	$01
	.byte	$FE
	.byte	$01
	.byte	$FF
	.byte	$01
	.byte	$FF
.segment	"RODATA"
.segment	"XCD_BANK_05"
.segment	"RODATA"
.segment	"XCD_BANK_06"
_ground0:
	.byte	$00
	.byte	$88
	.byte	$02
	.byte	$89
	.byte	$00
	.byte	$88
	.byte	$02
	.byte	$89
	.byte	$00
	.byte	$88
	.byte	$02
	.byte	$89
	.byte	$00
	.byte	$88
	.byte	$02
	.byte	$89
	.byte	$82
	.byte	$02
	.byte	$06
	.byte	$82
	.byte	$02
	.byte	$06
	.byte	$82
	.byte	$02
	.byte	$06
	.byte	$82
	.byte	$02
	.byte	$06
	.byte	$82
	.byte	$02
	.byte	$06
	.byte	$82
	.byte	$02
	.byte	$06
	.byte	$82
	.byte	$02
	.byte	$06
	.byte	$82
	.byte	$02
	.byte	$06
_ground:
	.addr	_ground0
.segment	"RODATA"
_difficulty_list:
	.byte	$00
	.byte	$00
	.byte	$01
	.byte	$01
	.byte	$02
	.byte	$02
	.byte	$03
	.byte	$03
	.byte	$03
	.byte	$04
	.byte	$04
	.byte	$04
	.byte	$04
	.byte	$05
	.byte	$04
	.byte	$04
	.byte	$03
	.byte	$05
	.byte	$03
	.byte	$05
	.byte	$04
	.byte	$04
	.byte	$01
	.byte	$02
	.byte	$02
	.byte	$00
	.byte	$01
	.byte	$01
	.byte	$01
	.byte	$02
	.byte	$02
	.byte	$02
	.byte	$03
	.byte	$03
	.byte	$03
	.byte	$03
	.byte	$04
	.byte	$04
	.byte	$04
	.byte	$04
	.byte	$04
	.byte	$05
	.byte	$05
	.byte	$05
_stars_list:
	.byte	$01
	.byte	$02
	.byte	$03
	.byte	$04
	.byte	$05
	.byte	$06
	.byte	$07
	.byte	$08
	.byte	$09
	.byte	$0A
	.byte	$0B
	.byte	$0C
	.byte	$0A
	.byte	$0E
	.byte	$0C
	.byte	$0C
	.byte	$0A
	.byte	$0E
	.byte	$0A
	.byte	$0F
	.byte	$0C
	.byte	$0C
	.byte	$05
	.byte	$06
	.byte	$03
	.byte	$02
	.byte	$03
	.byte	$03
	.byte	$03
	.byte	$04
	.byte	$05
	.byte	$05
	.byte	$06
	.byte	$07
	.byte	$07
	.byte	$07
	.byte	$08
	.byte	$08
	.byte	$08
	.byte	$08
	.byte	$09
	.byte	$0A
	.byte	$0A
	.byte	$0A
_colors_list:
	.byte	$12
	.byte	$14
	.byte	$15
	.byte	$16
	.byte	$17
	.byte	$28
	.byte	$2A
	.byte	$2C
	.byte	$11
_iconTable:
	.byte	$00
	.byte	$02
	.byte	$04
	.byte	$06
	.byte	$08
	.byte	$0A
	.byte	$0C
	.byte	$0E
	.byte	$20
	.byte	$22
	.byte	$24
	.byte	$26
	.byte	$40
	.byte	$42
	.byte	$44
	.byte	$46
	.byte	$48
	.byte	$4A
	.byte	$4C
	.byte	$4E
	.byte	$60
	.byte	$62
	.byte	$64
	.byte	$66
	.byte	$68
	.byte	$6A
	.byte	$6C
	.byte	$6E
.segment	"XCD_BANK_02"
_DialogBox:
	.byte	$01
	.byte	$02
	.byte	$01
	.byte	$46
	.byte	$AE
	.byte	$02
	.byte	$01
	.byte	$0F
	.byte	$AE
	.byte	$02
	.byte	$01
	.byte	$0D
	.byte	$AF
	.byte	$02
	.byte	$01
	.byte	$0F
	.byte	$AF
	.byte	$02
	.byte	$01
	.byte	$0A
	.byte	$06
	.byte	$07
	.byte	$04
	.byte	$01
	.byte	$13
	.byte	$06
	.byte	$07
	.byte	$02
	.byte	$01
	.byte	$07
	.byte	$08
	.byte	$09
	.byte	$05
	.byte	$01
	.byte	$13
	.byte	$08
	.byte	$09
	.byte	$02
	.byte	$01
	.byte	$07
	.byte	$0C
	.byte	$FF
	.byte	$01
	.byte	$15
	.byte	$0D
	.byte	$02
	.byte	$01
	.byte	$07
	.byte	$0C
	.byte	$FF
	.byte	$01
	.byte	$15
	.byte	$0D
	.byte	$02
	.byte	$01
	.byte	$07
	.byte	$0C
	.byte	$FF
	.byte	$01
	.byte	$15
	.byte	$0D
	.byte	$02
	.byte	$01
	.byte	$07
	.byte	$0C
	.byte	$FF
	.byte	$01
	.byte	$15
	.byte	$0D
	.byte	$02
	.byte	$01
	.byte	$07
	.byte	$0C
	.byte	$FF
	.byte	$01
	.byte	$15
	.byte	$0D
	.byte	$02
	.byte	$01
	.byte	$07
	.byte	$0C
	.byte	$FF
	.byte	$01
	.byte	$15
	.byte	$0D
	.byte	$02
	.byte	$01
	.byte	$07
	.byte	$0C
	.byte	$FF
	.byte	$01
	.byte	$15
	.byte	$0D
	.byte	$02
	.byte	$01
	.byte	$07
	.byte	$0C
	.byte	$FF
	.byte	$01
	.byte	$15
	.byte	$0D
	.byte	$02
	.byte	$01
	.byte	$07
	.byte	$0C
	.byte	$FF
	.byte	$01
	.byte	$15
	.byte	$0D
	.byte	$02
	.byte	$01
	.byte	$07
	.byte	$0C
	.byte	$FF
	.byte	$01
	.byte	$15
	.byte	$0D
	.byte	$02
	.byte	$01
	.byte	$07
	.byte	$0C
	.byte	$FF
	.byte	$01
	.byte	$15
	.byte	$0D
	.byte	$02
	.byte	$01
	.byte	$07
	.byte	$0C
	.byte	$FF
	.byte	$01
	.byte	$15
	.byte	$0D
	.byte	$02
	.byte	$01
	.byte	$07
	.byte	$0C
	.byte	$FF
	.byte	$01
	.byte	$15
	.byte	$0D
	.byte	$02
	.byte	$01
	.byte	$07
	.byte	$0C
	.byte	$FF
	.byte	$01
	.byte	$15
	.byte	$0D
	.byte	$02
	.byte	$01
	.byte	$07
	.byte	$0C
	.byte	$FF
	.byte	$01
	.byte	$15
	.byte	$0D
	.byte	$02
	.byte	$01
	.byte	$07
	.byte	$0C
	.byte	$FF
	.byte	$01
	.byte	$15
	.byte	$0D
	.byte	$02
	.byte	$01
	.byte	$07
	.byte	$0C
	.byte	$FF
	.byte	$01
	.byte	$15
	.byte	$0D
	.byte	$02
	.byte	$01
	.byte	$07
	.byte	$0C
	.byte	$FF
	.byte	$01
	.byte	$15
	.byte	$0D
	.byte	$02
	.byte	$01
	.byte	$07
	.byte	$0A
	.byte	$0B
	.byte	$04
	.byte	$01
	.byte	$07
	.byte	$06
	.byte	$0E
	.byte	$0E
	.byte	$07
	.byte	$04
	.byte	$01
	.byte	$07
	.byte	$0A
	.byte	$0B
	.byte	$02
	.byte	$01
	.byte	$09
	.byte	$05
	.byte	$01
	.byte	$07
	.byte	$08
	.byte	$05
	.byte	$05
	.byte	$09
	.byte	$05
	.byte	$01
	.byte	$07
	.byte	$02
	.byte	$01
	.byte	$85
	.byte	$00
	.byte	$01
	.byte	$08
	.byte	$17
	.byte	$05
	.byte	$01
	.byte	$03
	.byte	$4D
	.byte	$00
	.byte	$00
	.byte	$11
	.byte	$00
	.byte	$01
	.byte	$03
	.byte	$44
	.byte	$00
	.byte	$00
	.byte	$11
	.byte	$00
	.byte	$01
	.byte	$03
	.byte	$44
	.byte	$00
	.byte	$00
	.byte	$11
	.byte	$00
	.byte	$01
	.byte	$03
	.byte	$44
	.byte	$00
	.byte	$00
	.byte	$11
	.byte	$00
	.byte	$01
	.byte	$03
	.byte	$44
	.byte	$00
	.byte	$00
	.byte	$07
	.byte	$05
	.byte	$0D
	.byte	$07
	.byte	$05
	.byte	$0D
	.byte	$00
	.byte	$01
	.byte	$07
	.byte	$00
	.byte	$01
	.byte	$00
_dialogBox_saveFileSafetyHeader:
	.byte	$FE,$FE,$CD,$BB,$DB,$BF,$FE,$FE,$C0,$C3,$C6,$BF,$FE,$FE,$CD,$BB
	.byte	$C0,$BF,$CE,$DE,$FE,$FE,$0B,$02,$00
_dialogBox_pleasePressB:
	.byte	$07,$FF,$F0,$EC,$E5,$E1,$F3,$E5,$FF,$E8,$EF,$EC,$E4,$FF,$FF,$7C
	.byte	$CC,$BF,$CD,$BF,$CE,$7D,$0B,$02,$FF,$FF,$F7,$E8,$E9,$EC,$E5,$FF
	.byte	$F0,$EF,$F7,$E5,$F2,$E9,$EE,$E7,$FF,$EF,$E6,$E6,$0B,$02,$09,$03
	.byte	$F2,$E5,$E1,$EC,$FF,$EE,$E5,$F3,$E0,$E6,$E1,$ED,$E9,$E3,$EF,$ED
	.byte	$FF,$0B,$02,$FF,$FF,$E8,$E1,$F2,$E4,$F7,$E1,$F2,$E5,$FF,$FF,$F4
	.byte	$EF,$FF,$E1,$F6,$EF,$E9,$E4,$0B,$02,$FF,$F3,$E1,$F6,$E5,$FF,$E6
	.byte	$E9,$EC,$E5,$FF,$E3,$EF,$F2,$F2,$F5,$F0,$F4,$E9,$EF,$EE,$0B,$02
	.byte	$08,$FF,$FF,$5C,$09,$10,$5D,$FF,$FF,$0A,$FF,$FF,$FE,$CA,$CC,$BF
	.byte	$CD,$CD,$FE,$BB,$C8,$DE,$FE,$BC,$CF,$CE,$CE,$C9,$C8,$FE,$0A,$FF
	.byte	$FF,$FE,$FE,$FE,$CE,$C9,$FE,$FE,$BD,$C9,$C8,$CE,$C3,$C8,$CF,$BF
	.byte	$FE,$FE,$FE,$0A,$08,$FF,$FF,$6C,$09,$10,$6D,$FF,$FF,$00
_dialogBox_itIsNowSafe:
	.byte	$07,$0A,$FF,$FF,$E9,$F4,$FF,$E9,$F3,$FF,$EE,$EF,$F7,$FF,$F3,$E1
	.byte	$E6,$E5,$FF,$F4,$EF,$0B,$02,$FF,$F4,$F5,$F2,$EE,$FF,$EF,$E6,$E6
	.byte	$FF,$F9,$EF,$F5,$F2,$FF,$F3,$F9,$F3,$F4,$E5,$ED,$0B,$06,$08,$FF
	.byte	$FF,$5C,$09,$10,$5D,$FF,$FF,$0A,$FF,$FF,$FE,$FE,$FE,$FE,$CA,$CC
	.byte	$BF,$CD,$CD,$FE,$BC,$FE,$CE,$C9,$FE,$FE,$FE,$FE,$0A,$FF,$FF,$FE
	.byte	$FE,$FE,$FE,$C1,$C9,$FE,$BC,$BB,$BD,$C5,$FE,$CE,$C9,$FE,$FE,$FE
	.byte	$FE,$0A,$FF,$FF,$FE,$CE,$C2,$BF,$FE,$CE,$C3,$CE,$C6,$BF,$FE,$CD
	.byte	$BD,$CC,$BF,$BF,$C8,$FE,$0A,$08,$FF,$FF,$6C,$09,$10,$6D,$FF,$FF
	.byte	$00
_dialogBox_wrongSaveFileVersion:
	.byte	$FF,$E6,$EF,$F2,$FF,$E1,$07,$FF,$F6,$E5,$F2,$F3,$E9,$EF,$EE,$00
_dialogBox_nolder:
	.byte	$EE,$FF,$EF,$EC,$E4,$E5,$F2,$00
_dialogBox_newer:
	.byte	$FF,$EE,$E5,$F7,$E5,$F2,$FF,$00
_dialogBox_saveFileMissingCorrupt:
	.byte	$FF,$FF,$ED,$E9,$F3,$F3,$E9,$EE,$E7,$FF,$EF,$F2,$FF,$E3,$EF,$F2
	.byte	$F2,$F5,$F0,$F4,$00
_dialogBox_saveIssues:
	.byte	$FE,$FE,$C3,$C8,$DB,$BB,$C6,$C3,$BE,$FE,$FE,$CD,$BB,$DB,$BF,$FE
	.byte	$C0,$C3,$C6,$BF,$FE,$FE,$0B,$05,$FF,$FF,$F9,$EF,$F5,$F2,$FF,$F3
	.byte	$E1,$F6,$E5,$FF,$FF,$E6,$E9,$EC,$E5,$FF,$E9,$F3,$0B,$02,$07,$0B
	.byte	$06,$FF,$7C,$BB,$FC,$FE,$BD,$CC,$BF,$BB,$CE,$BF,$FE,$C8,$BF,$DC
	.byte	$FE,$CD,$BB,$DB,$BF,$7D,$0B,$02,$FF,$7C,$BC,$FC,$FE,$C6,$C9,$BB
	.byte	$BE,$FE,$BB,$C8,$DE,$DC,$BB,$DE,$FE,$FE,$FE,$FE,$7D,$00
.segment	"RODATA"
_paletteDefault:
	.byte	$11
	.byte	$01
	.byte	$0F
	.byte	$30
	.byte	$00
	.byte	$01
	.byte	$11
	.byte	$30
	.byte	$00
	.byte	$01
	.byte	$0F
	.byte	$2A
	.byte	$11
	.byte	$01
	.byte	$0F
	.byte	$0F
_paletteDefaultSP:
	.byte	$00
	.byte	$0F
	.byte	$2A
	.byte	$21
	.byte	$00
	.byte	$0F
	.byte	$24
	.byte	$28
	.byte	$00
	.byte	$0F
	.byte	$16
	.byte	$30
	.byte	$00
	.byte	$0F
	.byte	$2A
	.byte	$2C
_paletteMenu:
	.byte	$17
	.byte	$0F
	.byte	$10
	.byte	$30
	.byte	$11
	.byte	$0F
	.byte	$2A
	.byte	$3A
	.byte	$17
	.byte	$0F
	.byte	$17
	.byte	$27
	.byte	$17
	.byte	$0F
	.byte	$11
	.byte	$21
_splashMenu:
	.byte	$11
	.byte	$0F
	.byte	$27
	.byte	$30
	.byte	$11
	.byte	$0F
	.byte	$2A
	.byte	$3A
	.byte	$11
	.byte	$0F
	.byte	$27
	.byte	$30
	.byte	$11
	.byte	$0F
	.byte	$11
	.byte	$30
_oldsplashMenu:
	.byte	$11
	.byte	$0F
	.byte	$11
	.byte	$30
	.byte	$11
	.byte	$0F
	.byte	$2A
	.byte	$3A
	.byte	$11
	.byte	$0F
	.byte	$27
	.byte	$30
	.byte	$11
	.byte	$0F
	.byte	$11
	.byte	$30
_splashMenu2:
	.byte	$11
	.byte	$0F
	.byte	$14
	.byte	$37
	.byte	$11
	.byte	$0F
	.byte	$2A
	.byte	$3A
	.byte	$11
	.byte	$0F
	.byte	$27
	.byte	$30
	.byte	$11
	.byte	$0F
	.byte	$11
	.byte	$30
_paletteLVLSelectSP:
	.byte	$11
	.byte	$0F
	.byte	$2A
	.byte	$30
	.byte	$11
	.byte	$0F
	.byte	$11
	.byte	$30
	.byte	$11
	.byte	$0F
	.byte	$11
	.byte	$30
	.byte	$11
	.byte	$0F
	.byte	$30
	.byte	$30
.segment	"XCD_BANK_04"
_Skull_Trigger_1:
	.byte	$00
	.byte	$00
	.byte	$C9
	.byte	$02
	.byte	$08
	.byte	$00
	.byte	$C9
	.byte	$42
	.byte	$80
_Skull_Trigger_2:
	.byte	$00
	.byte	$00
	.byte	$E9
	.byte	$02
	.byte	$08
	.byte	$00
	.byte	$E9
	.byte	$42
	.byte	$80
_Skull_Trigger_3:
	.byte	$00
	.byte	$00
	.byte	$ED
	.byte	$02
	.byte	$08
	.byte	$00
	.byte	$ED
	.byte	$42
	.byte	$80
_Skull_Trigger_4:
	.byte	$00
	.byte	$00
	.byte	$F7
	.byte	$02
	.byte	$08
	.byte	$00
	.byte	$F7
	.byte	$42
	.byte	$80
_MINICOIN_SPRITE1:
	.byte	$04
	.byte	$FC
	.byte	$E9
	.byte	$00
	.byte	$80
_MINICOIN_SPRITE2:
	.byte	$04
	.byte	$FC
	.byte	$ED
	.byte	$00
	.byte	$80
_MINICOIN_SPRITE3:
	.byte	$04
	.byte	$FC
	.byte	$F7
	.byte	$00
	.byte	$80
_MINICOIN_SPRITE4:
	.byte	$04
	.byte	$FC
	.byte	$ED
	.byte	$40
	.byte	$80
_Explode_1:
	.byte	$00
	.byte	$00
	.byte	$1D
	.byte	$03
	.byte	$08
	.byte	$00
	.byte	$1D
	.byte	$C3
	.byte	$80
_Explode_2:
	.byte	$00
	.byte	$00
	.byte	$7D
	.byte	$03
	.byte	$08
	.byte	$00
	.byte	$7D
	.byte	$C3
	.byte	$80
_Explode_3:
	.byte	$00
	.byte	$00
	.byte	$1F
	.byte	$03
	.byte	$08
	.byte	$00
	.byte	$1F
	.byte	$C3
	.byte	$80
_Explode_4:
	.byte	$00
	.byte	$00
	.byte	$7F
	.byte	$03
	.byte	$08
	.byte	$00
	.byte	$7F
	.byte	$C3
	.byte	$80
_Explode_5:
	.byte	$00
	.byte	$00
	.byte	$FF
	.byte	$03
	.byte	$08
	.byte	$00
	.byte	$FF
	.byte	$C3
	.byte	$80
_Explode_Sprites:
	.addr	_Explode_1
	.addr	_Explode_1
	.addr	_Explode_1
	.addr	_Explode_1
	.addr	_Explode_2
	.addr	_Explode_2
	.addr	_Explode_2
	.addr	_Explode_2
	.addr	_Explode_3
	.addr	_Explode_3
	.addr	_Explode_3
	.addr	_Explode_3
	.addr	_Explode_4
	.addr	_Explode_4
	.addr	_Explode_4
	.addr	_Explode_4
	.addr	_Explode_5
	.addr	_Explode_5
	.addr	_Explode_5
	.addr	_Explode_5
_ExplodeR_1:
	.byte	$00
	.byte	$00
	.byte	$1F
	.byte	$43
	.byte	$08
	.byte	$00
	.byte	$1F
	.byte	$03
	.byte	$80
_ExplodeR_Sprites:
	.addr	_ExplodeR_1
	.addr	_ExplodeR_1
	.addr	_ExplodeR_1
	.addr	_ExplodeR_1
	.addr	_ExplodeR_1
	.addr	_ExplodeR_1
	.addr	_ExplodeR_1
	.addr	_ExplodeR_1
	.addr	_ExplodeR_1
	.addr	_ExplodeR_1
	.addr	_ExplodeR_1
	.addr	_ExplodeR_1
	.addr	_ExplodeR_1
	.addr	_ExplodeR_1
	.addr	_ExplodeR_1
	.addr	_ExplodeR_1
	.addr	_ExplodeR_1
	.addr	_ExplodeR_1
	.addr	_ExplodeR_1
	.addr	_ExplodeR_1
_Explode2_1:
	.byte	$00
	.byte	$00
	.byte	$1D
	.byte	$01
	.byte	$08
	.byte	$00
	.byte	$1D
	.byte	$C1
	.byte	$80
_Explode2_2:
	.byte	$00
	.byte	$00
	.byte	$7D
	.byte	$01
	.byte	$08
	.byte	$00
	.byte	$7D
	.byte	$C1
	.byte	$80
_Explode2_3:
	.byte	$00
	.byte	$00
	.byte	$1F
	.byte	$01
	.byte	$08
	.byte	$00
	.byte	$1F
	.byte	$C1
	.byte	$80
_Explode2_4:
	.byte	$00
	.byte	$00
	.byte	$7F
	.byte	$01
	.byte	$08
	.byte	$00
	.byte	$7F
	.byte	$C1
	.byte	$80
_Explode2_5:
	.byte	$00
	.byte	$00
	.byte	$FF
	.byte	$01
	.byte	$08
	.byte	$00
	.byte	$FF
	.byte	$C1
	.byte	$80
_Explode_Sprites2:
	.addr	_Explode2_1
	.addr	_Explode2_1
	.addr	_Explode2_1
	.addr	_Explode2_1
	.addr	_Explode2_2
	.addr	_Explode2_2
	.addr	_Explode2_2
	.addr	_Explode2_2
	.addr	_Explode2_3
	.addr	_Explode2_3
	.addr	_Explode2_3
	.addr	_Explode2_3
	.addr	_Explode2_4
	.addr	_Explode2_4
	.addr	_Explode2_4
	.addr	_Explode2_4
	.addr	_Explode2_5
	.addr	_Explode2_5
	.addr	_Explode2_5
	.addr	_Explode2_5
_ExplodeR2_1:
	.byte	$00
	.byte	$00
	.byte	$1F
	.byte	$41
	.byte	$08
	.byte	$00
	.byte	$1F
	.byte	$01
	.byte	$80
_ExplodeR_Sprites2:
	.addr	_ExplodeR2_1
	.addr	_ExplodeR2_1
	.addr	_ExplodeR2_1
	.addr	_ExplodeR2_1
	.addr	_ExplodeR2_1
	.addr	_ExplodeR2_1
	.addr	_ExplodeR2_1
	.addr	_ExplodeR2_1
	.addr	_ExplodeR2_1
	.addr	_ExplodeR2_1
	.addr	_ExplodeR2_1
	.addr	_ExplodeR2_1
	.addr	_ExplodeR2_1
	.addr	_ExplodeR2_1
	.addr	_ExplodeR2_1
	.addr	_ExplodeR2_1
	.addr	_ExplodeR2_1
	.addr	_ExplodeR2_1
	.addr	_ExplodeR2_1
	.addr	_ExplodeR2_1
_Practice_Diamond:
	.byte	$00
	.byte	$00
	.byte	$57
	.byte	$00
	.byte	$80
_Practice_Sprites:
	.addr	_Practice_Diamond
.segment	"RODATA"
.segment	"XCD_BANK_05"
_Mini_Cube_0:
	.byte	$FC
	.byte	$FC
	.byte	$35
	.byte	$03
	.byte	$80
_Mini_Cube_1:
	.byte	$FC
	.byte	$FC
	.byte	$37
	.byte	$03
	.byte	$80
_Mini_Cube_2:
	.byte	$FC
	.byte	$FC
	.byte	$39
	.byte	$03
	.byte	$80
_Mini_Cube_3:
	.byte	$FC
	.byte	$FC
	.byte	$3B
	.byte	$03
	.byte	$80
_Mini_Cube_4:
	.byte	$FC
	.byte	$FC
	.byte	$3D
	.byte	$03
	.byte	$80
_MINI_CUBE:
	.addr	_Mini_Cube_0
	.addr	_Mini_Cube_1
	.addr	_Mini_Cube_1
	.addr	_Mini_Cube_2
	.addr	_Mini_Cube_2
	.addr	_Mini_Cube_3
	.addr	_Mini_Cube_4
	.addr	_Mini_Cube_4
_Mini_Cube2_0:
	.byte	$FC
	.byte	$FC
	.byte	$35
	.byte	$01
	.byte	$80
_Mini_Cube2_1:
	.byte	$FC
	.byte	$FC
	.byte	$37
	.byte	$01
	.byte	$80
_Mini_Cube2_2:
	.byte	$FC
	.byte	$FC
	.byte	$39
	.byte	$01
	.byte	$80
_Mini_Cube2_3:
	.byte	$FC
	.byte	$FC
	.byte	$3B
	.byte	$01
	.byte	$80
_Mini_Cube2_4:
	.byte	$FC
	.byte	$FC
	.byte	$3D
	.byte	$01
	.byte	$80
_MINI_CUBE2:
	.addr	_Mini_Cube2_0
	.addr	_Mini_Cube2_1
	.addr	_Mini_Cube2_1
	.addr	_Mini_Cube2_2
	.addr	_Mini_Cube2_2
	.addr	_Mini_Cube2_3
	.addr	_Mini_Cube2_4
	.addr	_Mini_Cube2_4
_Mini_Ball:
	.byte	$FC
	.byte	$04
	.byte	$3D
	.byte	$83
	.byte	$80
_Mini_Ball_Alt:
	.byte	$FC
	.byte	$04
	.byte	$3D
	.byte	$83
	.byte	$80
_MINI_BALL:
	.addr	_Mini_Ball
	.addr	_Mini_Ball
	.addr	_Mini_Ball
	.addr	_Mini_Ball
	.addr	_Mini_Ball
	.addr	_Mini_Ball
	.addr	_Mini_Ball
	.addr	_Mini_Ball
_MINI_BALL_ALT:
	.addr	_Mini_Ball_Alt
	.addr	_Mini_Ball_Alt
	.addr	_Mini_Ball_Alt
	.addr	_Mini_Ball_Alt
	.addr	_Mini_Ball_Alt
	.addr	_Mini_Ball_Alt
	.addr	_Mini_Ball_Alt
	.addr	_Mini_Ball_Alt
_WAVE_0:
	.byte	$F8
	.byte	$00
	.byte	$2D
	.byte	$03
	.byte	$00
	.byte	$00
	.byte	$2F
	.byte	$03
	.byte	$80
_WAVE_1:
	.byte	$F8
	.byte	$00
	.byte	$37
	.byte	$03
	.byte	$00
	.byte	$00
	.byte	$39
	.byte	$03
	.byte	$80
_WAVE_2:
	.byte	$F8
	.byte	$00
	.byte	$29
	.byte	$03
	.byte	$00
	.byte	$00
	.byte	$2B
	.byte	$03
	.byte	$80
_WAVE_5:
	.byte	$F8
	.byte	$00
	.byte	$37
	.byte	$83
	.byte	$00
	.byte	$00
	.byte	$39
	.byte	$83
	.byte	$80
_WAVE_6:
	.byte	$F8
	.byte	$00
	.byte	$2D
	.byte	$83
	.byte	$00
	.byte	$00
	.byte	$2F
	.byte	$83
	.byte	$80
_WAVE:
	.addr	_WAVE_0
	.addr	_WAVE_0
	.addr	_WAVE_1
	.addr	_WAVE_2
	.addr	_WAVE_2
	.addr	_WAVE_5
	.addr	_WAVE_6
	.addr	_WAVE_6
_WAVE2_0:
	.byte	$F8
	.byte	$00
	.byte	$2D
	.byte	$01
	.byte	$00
	.byte	$00
	.byte	$2F
	.byte	$01
	.byte	$80
_WAVE2_1:
	.byte	$F8
	.byte	$00
	.byte	$37
	.byte	$01
	.byte	$00
	.byte	$00
	.byte	$39
	.byte	$01
	.byte	$80
_WAVE2_2:
	.byte	$F8
	.byte	$00
	.byte	$29
	.byte	$01
	.byte	$00
	.byte	$00
	.byte	$2B
	.byte	$01
	.byte	$80
_WAVE2_5:
	.byte	$F8
	.byte	$00
	.byte	$37
	.byte	$81
	.byte	$00
	.byte	$00
	.byte	$39
	.byte	$81
	.byte	$80
_WAVE2_6:
	.byte	$F8
	.byte	$00
	.byte	$2D
	.byte	$81
	.byte	$00
	.byte	$00
	.byte	$2F
	.byte	$81
	.byte	$80
_WAVE2:
	.addr	_WAVE2_0
	.addr	_WAVE2_0
	.addr	_WAVE2_1
	.addr	_WAVE2_2
	.addr	_WAVE2_2
	.addr	_WAVE2_5
	.addr	_WAVE2_6
	.addr	_WAVE2_6
_MINI_WAVE_0:
	.byte	$FC
	.byte	$04
	.byte	$0F
	.byte	$83
	.byte	$80
_MINI_WAVE_2:
	.byte	$FC
	.byte	$FC
	.byte	$0B
	.byte	$03
	.byte	$80
_MINI_WAVE_6:
	.byte	$FC
	.byte	$FC
	.byte	$0F
	.byte	$03
	.byte	$80
_MINI_WAVE:
	.addr	_MINI_WAVE_0
	.addr	_MINI_WAVE_0
	.addr	_MINI_WAVE_0
	.addr	_MINI_WAVE_2
	.addr	_MINI_WAVE_2
	.addr	_MINI_WAVE_6
	.addr	_MINI_WAVE_6
	.addr	_MINI_WAVE_6
_MINI_WAVE2_0:
	.byte	$FC
	.byte	$FA
	.byte	$0F
	.byte	$81
	.byte	$80
_MINI_WAVE2_2:
	.byte	$FC
	.byte	$FA
	.byte	$0B
	.byte	$01
	.byte	$80
_MINI_WAVE2_6:
	.byte	$FC
	.byte	$FA
	.byte	$0F
	.byte	$01
	.byte	$80
_MINI_WAVE2:
	.addr	_MINI_WAVE2_0
	.addr	_MINI_WAVE2_0
	.addr	_MINI_WAVE2_0
	.addr	_MINI_WAVE2_2
	.addr	_MINI_WAVE2_2
	.addr	_MINI_WAVE2_6
	.addr	_MINI_WAVE2_6
	.addr	_MINI_WAVE2_6
_SNAKE_0:
	.byte	$F8
	.byte	$00
	.byte	$25
	.byte	$03
	.byte	$00
	.byte	$00
	.byte	$27
	.byte	$03
	.byte	$80
_SNAKE_2:
	.byte	$F8
	.byte	$00
	.byte	$21
	.byte	$03
	.byte	$00
	.byte	$00
	.byte	$23
	.byte	$03
	.byte	$80
_SNAKE_6:
	.byte	$F8
	.byte	$00
	.byte	$29
	.byte	$03
	.byte	$00
	.byte	$00
	.byte	$2B
	.byte	$03
	.byte	$80
_SNAKE:
	.addr	_SNAKE_0
	.addr	_SNAKE_0
	.addr	_SNAKE_2
	.addr	_SNAKE_2
	.addr	_SNAKE_2
	.addr	_SNAKE_2
	.addr	_SNAKE_6
	.addr	_SNAKE_6
_SNAKE2_0:
	.byte	$F8
	.byte	$00
	.byte	$25
	.byte	$01
	.byte	$00
	.byte	$00
	.byte	$27
	.byte	$01
	.byte	$80
_SNAKE2_2:
	.byte	$F8
	.byte	$00
	.byte	$21
	.byte	$01
	.byte	$00
	.byte	$00
	.byte	$23
	.byte	$01
	.byte	$80
_SNAKE2_6:
	.byte	$F8
	.byte	$00
	.byte	$29
	.byte	$01
	.byte	$00
	.byte	$00
	.byte	$2B
	.byte	$01
	.byte	$80
_SNAKE2:
	.addr	_SNAKE2_0
	.addr	_SNAKE2_0
	.addr	_SNAKE2_2
	.addr	_SNAKE2_2
	.addr	_SNAKE2_2
	.addr	_SNAKE2_2
	.addr	_SNAKE2_6
	.addr	_SNAKE2_6
_MINI_SNAKE_0:
	.byte	$FC
	.byte	$FC
	.byte	$2F
	.byte	$03
	.byte	$80
_MINI_SNAKE_2:
	.byte	$FC
	.byte	$FC
	.byte	$2D
	.byte	$03
	.byte	$80
_MINI_SNAKE_6:
	.byte	$FC
	.byte	$FC
	.byte	$31
	.byte	$03
	.byte	$80
_MINI_SNAKE:
	.addr	_MINI_SNAKE_0
	.addr	_MINI_SNAKE_0
	.addr	_MINI_SNAKE_2
	.addr	_MINI_SNAKE_2
	.addr	_MINI_SNAKE_2
	.addr	_MINI_SNAKE_2
	.addr	_MINI_SNAKE_6
	.addr	_MINI_SNAKE_6
_MINI_SNAKE2_0:
	.byte	$FC
	.byte	$FC
	.byte	$2F
	.byte	$01
	.byte	$80
_MINI_SNAKE2_2:
	.byte	$FC
	.byte	$FC
	.byte	$2D
	.byte	$01
	.byte	$80
_MINI_SNAKE2_6:
	.byte	$FC
	.byte	$FC
	.byte	$31
	.byte	$01
	.byte	$80
_MINI_SNAKE2:
	.addr	_MINI_SNAKE2_0
	.addr	_MINI_SNAKE2_0
	.addr	_MINI_SNAKE2_2
	.addr	_MINI_SNAKE2_2
	.addr	_MINI_SNAKE2_2
	.addr	_MINI_SNAKE2_2
	.addr	_MINI_SNAKE2_6
	.addr	_MINI_SNAKE2_6
_UFO_0:
	.byte	$F8
	.byte	$FF
	.byte	$3F
	.byte	$03
	.byte	$00
	.byte	$FF
	.byte	$3F
	.byte	$43
	.byte	$80
_UFO_U:
	.byte	$F8
	.byte	$FF
	.byte	$3F
	.byte	$03
	.byte	$00
	.byte	$FF
	.byte	$3F
	.byte	$43
	.byte	$80
_UFO_D:
	.byte	$F8
	.byte	$FF
	.byte	$3F
	.byte	$03
	.byte	$00
	.byte	$FF
	.byte	$3F
	.byte	$43
	.byte	$80
_UFO:
	.addr	_UFO_0
	.addr	_UFO_U
	.addr	_UFO_D
_MINI_UFO_0:
	.byte	$FC
	.byte	$FC
	.byte	$19
	.byte	$03
	.byte	$80
_MINI_UFO_U:
	.byte	$FC
	.byte	$FC
	.byte	$19
	.byte	$03
	.byte	$80
_MINI_UFO_D:
	.byte	$FC
	.byte	$FC
	.byte	$19
	.byte	$03
	.byte	$80
_MINI_UFO:
	.addr	_MINI_UFO_0
	.addr	_MINI_UFO_U
	.addr	_MINI_UFO_D
_Mini_Ball2:
	.byte	$FC
	.byte	$04
	.byte	$3D
	.byte	$81
	.byte	$80
_MINI_BALL2:
	.addr	_Mini_Ball2
	.addr	_Mini_Ball2
	.addr	_Mini_Ball2
	.addr	_Mini_Ball2
	.addr	_Mini_Ball2
	.addr	_Mini_Ball2
	.addr	_Mini_Ball2
	.addr	_Mini_Ball2
_UFO2_0:
	.byte	$F8
	.byte	$FF
	.byte	$3F
	.byte	$01
	.byte	$00
	.byte	$FF
	.byte	$3F
	.byte	$41
	.byte	$80
_UFO2_U:
	.byte	$F8
	.byte	$FF
	.byte	$3F
	.byte	$01
	.byte	$00
	.byte	$FF
	.byte	$3F
	.byte	$41
	.byte	$80
_UFO2_D:
	.byte	$F8
	.byte	$FF
	.byte	$3F
	.byte	$01
	.byte	$00
	.byte	$FF
	.byte	$3F
	.byte	$41
	.byte	$80
_UFO2:
	.addr	_UFO2_0
	.addr	_UFO2_U
	.addr	_UFO2_D
_MINI_UFO2_0:
	.byte	$FC
	.byte	$FC
	.byte	$19
	.byte	$01
	.byte	$80
_MINI_UFO2_U:
	.byte	$FC
	.byte	$FC
	.byte	$19
	.byte	$41
	.byte	$80
_MINI_UFO2_D:
	.byte	$FC
	.byte	$FC
	.byte	$19
	.byte	$01
	.byte	$80
_MINI_UFO2:
	.addr	_MINI_UFO2_0
	.addr	_MINI_UFO2_U
	.addr	_MINI_UFO2_D
_Cube_0:
	.byte	$F8
	.byte	$00
	.byte	$01
	.byte	$03
	.byte	$00
	.byte	$00
	.byte	$03
	.byte	$03
	.byte	$80
_Cube_1:
	.byte	$F8
	.byte	$00
	.byte	$05
	.byte	$03
	.byte	$00
	.byte	$00
	.byte	$07
	.byte	$03
	.byte	$80
_Cube_2:
	.byte	$F8
	.byte	$00
	.byte	$09
	.byte	$03
	.byte	$00
	.byte	$00
	.byte	$0B
	.byte	$03
	.byte	$80
_Cube_3:
	.byte	$F8
	.byte	$00
	.byte	$0D
	.byte	$03
	.byte	$00
	.byte	$00
	.byte	$0F
	.byte	$03
	.byte	$80
_Cube_4:
	.byte	$F8
	.byte	$00
	.byte	$11
	.byte	$03
	.byte	$00
	.byte	$00
	.byte	$13
	.byte	$03
	.byte	$80
_Cube_5:
	.byte	$F8
	.byte	$00
	.byte	$15
	.byte	$03
	.byte	$00
	.byte	$00
	.byte	$17
	.byte	$03
	.byte	$80
_Cube_6:
	.byte	$F8
	.byte	$00
	.byte	$19
	.byte	$03
	.byte	$00
	.byte	$00
	.byte	$1B
	.byte	$03
	.byte	$80
_CUBE:
	.addr	_Cube_0
	.addr	_Cube_1
	.addr	_Cube_2
	.addr	_Cube_3
	.addr	_Cube_4
	.addr	_Cube_5
	.addr	_Cube_6
	.addr	_Cube_6
_Pogo_0:
	.byte	$F8
	.byte	$00
	.byte	$11
	.byte	$03
	.byte	$00
	.byte	$00
	.byte	$11
	.byte	$43
	.byte	$80
_Pogo_1:
	.byte	$F8
	.byte	$00
	.byte	$13
	.byte	$03
	.byte	$00
	.byte	$00
	.byte	$13
	.byte	$43
	.byte	$80
_POGO:
	.addr	_Pogo_0
	.addr	_Pogo_1
_Pogo2_0:
	.byte	$F8
	.byte	$00
	.byte	$11
	.byte	$01
	.byte	$00
	.byte	$00
	.byte	$11
	.byte	$41
	.byte	$80
_Pogo2_1:
	.byte	$F8
	.byte	$00
	.byte	$13
	.byte	$01
	.byte	$00
	.byte	$00
	.byte	$13
	.byte	$41
	.byte	$80
_POGO2:
	.addr	_Pogo2_0
	.addr	_Pogo2_1
_Mini_Pogo_0:
	.byte	$FC
	.byte	$FC
	.byte	$15
	.byte	$03
	.byte	$80
_Mini_Pogo_1:
	.byte	$FC
	.byte	$FC
	.byte	$17
	.byte	$03
	.byte	$80
_MINI_POGO:
	.addr	_Mini_Pogo_0
	.addr	_Mini_Pogo_1
_Mini_Pogo2_0:
	.byte	$FC
	.byte	$FC
	.byte	$15
	.byte	$01
	.byte	$80
_Mini_Pogo2_1:
	.byte	$FC
	.byte	$FC
	.byte	$17
	.byte	$01
	.byte	$80
_MINI_POGO2:
	.addr	_Mini_Pogo2_0
	.addr	_Mini_Pogo2_1
_Cube2_0:
	.byte	$F8
	.byte	$00
	.byte	$01
	.byte	$01
	.byte	$00
	.byte	$00
	.byte	$03
	.byte	$01
	.byte	$80
_Cube2_1:
	.byte	$F8
	.byte	$00
	.byte	$05
	.byte	$01
	.byte	$00
	.byte	$00
	.byte	$07
	.byte	$01
	.byte	$80
_Cube2_2:
	.byte	$F8
	.byte	$00
	.byte	$09
	.byte	$01
	.byte	$00
	.byte	$00
	.byte	$0B
	.byte	$01
	.byte	$80
_Cube2_3:
	.byte	$F8
	.byte	$00
	.byte	$0D
	.byte	$01
	.byte	$00
	.byte	$00
	.byte	$0F
	.byte	$01
	.byte	$80
_Cube2_4:
	.byte	$F8
	.byte	$00
	.byte	$11
	.byte	$01
	.byte	$00
	.byte	$00
	.byte	$13
	.byte	$01
	.byte	$80
_Cube2_5:
	.byte	$F8
	.byte	$00
	.byte	$15
	.byte	$01
	.byte	$00
	.byte	$00
	.byte	$17
	.byte	$01
	.byte	$80
_Cube2_6:
	.byte	$F8
	.byte	$00
	.byte	$19
	.byte	$01
	.byte	$00
	.byte	$00
	.byte	$1B
	.byte	$01
	.byte	$80
_CUBE2:
	.addr	_Cube2_0
	.addr	_Cube2_1
	.addr	_Cube2_2
	.addr	_Cube2_3
	.addr	_Cube2_4
	.addr	_Cube2_5
	.addr	_Cube2_6
	.addr	_Cube2_6
_Ship_0:
	.byte	$F8
	.byte	$00
	.byte	$21
	.byte	$03
	.byte	$00
	.byte	$00
	.byte	$23
	.byte	$03
	.byte	$80
_Ship_1:
	.byte	$F8
	.byte	$00
	.byte	$25
	.byte	$03
	.byte	$00
	.byte	$00
	.byte	$27
	.byte	$03
	.byte	$80
_Ship_2:
	.byte	$F8
	.byte	$00
	.byte	$29
	.byte	$03
	.byte	$00
	.byte	$00
	.byte	$2B
	.byte	$03
	.byte	$80
_Ship_5:
	.byte	$F8
	.byte	$00
	.byte	$2D
	.byte	$03
	.byte	$00
	.byte	$00
	.byte	$2F
	.byte	$03
	.byte	$80
_Ship_6:
	.byte	$F8
	.byte	$00
	.byte	$31
	.byte	$03
	.byte	$00
	.byte	$00
	.byte	$33
	.byte	$03
	.byte	$80
_SHIP:
	.addr	_Ship_0
	.addr	_Ship_0
	.addr	_Ship_1
	.addr	_Ship_2
	.addr	_Ship_2
	.addr	_Ship_5
	.addr	_Ship_6
	.addr	_Ship_6
_Swing_0:
	.byte	$F8
	.byte	$00
	.byte	$39
	.byte	$83
	.byte	$00
	.byte	$00
	.byte	$3B
	.byte	$83
	.byte	$80
_Swing_1:
	.byte	$F8
	.byte	$00
	.byte	$35
	.byte	$83
	.byte	$00
	.byte	$00
	.byte	$37
	.byte	$83
	.byte	$80
_Swing_2:
	.byte	$F8
	.byte	$00
	.byte	$31
	.byte	$03
	.byte	$00
	.byte	$00
	.byte	$33
	.byte	$03
	.byte	$80
_Swing_5:
	.byte	$F8
	.byte	$00
	.byte	$35
	.byte	$03
	.byte	$00
	.byte	$00
	.byte	$37
	.byte	$03
	.byte	$80
_Swing_6:
	.byte	$F8
	.byte	$00
	.byte	$39
	.byte	$03
	.byte	$00
	.byte	$00
	.byte	$3B
	.byte	$03
	.byte	$80
_SWING:
	.addr	_Swing_0
	.addr	_Swing_0
	.addr	_Swing_1
	.addr	_Swing_2
	.addr	_Swing_2
	.addr	_Swing_5
	.addr	_Swing_6
	.addr	_Swing_6
_Swing2_0:
	.byte	$F8
	.byte	$00
	.byte	$39
	.byte	$01
	.byte	$00
	.byte	$00
	.byte	$3B
	.byte	$01
	.byte	$80
_Swing2_1:
	.byte	$F8
	.byte	$00
	.byte	$35
	.byte	$01
	.byte	$00
	.byte	$00
	.byte	$37
	.byte	$01
	.byte	$80
_Swing2_2:
	.byte	$F8
	.byte	$00
	.byte	$31
	.byte	$01
	.byte	$00
	.byte	$00
	.byte	$33
	.byte	$01
	.byte	$80
_Swing2_5:
	.byte	$F8
	.byte	$00
	.byte	$35
	.byte	$81
	.byte	$00
	.byte	$00
	.byte	$37
	.byte	$81
	.byte	$80
_Swing2_6:
	.byte	$F8
	.byte	$00
	.byte	$39
	.byte	$81
	.byte	$00
	.byte	$00
	.byte	$3B
	.byte	$81
	.byte	$80
_SWING2:
	.addr	_Swing2_0
	.addr	_Swing2_0
	.addr	_Swing2_1
	.addr	_Swing2_2
	.addr	_Swing2_2
	.addr	_Swing2_5
	.addr	_Swing2_6
	.addr	_Swing2_6
_Mini_Swing_6:
	.byte	$FC
	.byte	$FC
	.byte	$1B
	.byte	$03
	.byte	$80
_Mini_Swing_5:
	.byte	$FC
	.byte	$FC
	.byte	$1B
	.byte	$03
	.byte	$80
_Mini_Swing_2:
	.byte	$FC
	.byte	$FC
	.byte	$3F
	.byte	$03
	.byte	$80
_Mini_Swing_1:
	.byte	$FC
	.byte	$FC
	.byte	$3D
	.byte	$03
	.byte	$80
_Mini_Swing_0:
	.byte	$FC
	.byte	$FC
	.byte	$3D
	.byte	$03
	.byte	$80
_MINI_SWING:
	.addr	_Mini_Swing_0
	.addr	_Mini_Swing_0
	.addr	_Mini_Swing_1
	.addr	_Mini_Swing_2
	.addr	_Mini_Swing_2
	.addr	_Mini_Swing_5
	.addr	_Mini_Swing_6
	.addr	_Mini_Swing_6
_Mini_Swing_6_ALT:
	.byte	$FC
	.byte	$FC
	.byte	$1B
	.byte	$03
	.byte	$80
_Mini_Swing_5_ALT:
	.byte	$FC
	.byte	$FC
	.byte	$1B
	.byte	$03
	.byte	$80
_Mini_Swing_2_ALT:
	.byte	$FC
	.byte	$FC
	.byte	$3F
	.byte	$03
	.byte	$80
_Mini_Swing_1_ALT:
	.byte	$FC
	.byte	$FC
	.byte	$3D
	.byte	$03
	.byte	$80
_Mini_Swing_0_ALT:
	.byte	$FC
	.byte	$FC
	.byte	$3D
	.byte	$03
	.byte	$80
_MINI_SWING_ALT:
	.addr	_Mini_Swing_0_ALT
	.addr	_Mini_Swing_0_ALT
	.addr	_Mini_Swing_1_ALT
	.addr	_Mini_Swing_2_ALT
	.addr	_Mini_Swing_2_ALT
	.addr	_Mini_Swing_5_ALT
	.addr	_Mini_Swing_6_ALT
	.addr	_Mini_Swing_6_ALT
_Mini_Swing2_6:
	.byte	$FC
	.byte	$FC
	.byte	$1B
	.byte	$01
	.byte	$80
_Mini_Swing2_5:
	.byte	$FC
	.byte	$FC
	.byte	$1B
	.byte	$01
	.byte	$80
_Mini_Swing2_2:
	.byte	$FC
	.byte	$FC
	.byte	$3F
	.byte	$01
	.byte	$80
_Mini_Swing2_1:
	.byte	$FC
	.byte	$FC
	.byte	$3D
	.byte	$01
	.byte	$80
_Mini_Swing2_0:
	.byte	$FC
	.byte	$FC
	.byte	$3D
	.byte	$01
	.byte	$80
_MINI_SWING2:
	.addr	_Mini_Swing2_0
	.addr	_Mini_Swing2_0
	.addr	_Mini_Swing_1
	.addr	_Mini_Swing2_2
	.addr	_Mini_Swing2_2
	.addr	_Mini_Swing2_5
	.addr	_Mini_Swing2_6
	.addr	_Mini_Swing2_6
_Mini_Ship_0:
	.byte	$FC
	.byte	$FC
	.byte	$01
	.byte	$03
	.byte	$80
_Mini_Ship_1:
	.byte	$FC
	.byte	$FC
	.byte	$03
	.byte	$03
	.byte	$80
_Mini_Ship_2:
	.byte	$FC
	.byte	$FC
	.byte	$05
	.byte	$03
	.byte	$80
_Mini_Ship_5:
	.byte	$FC
	.byte	$FC
	.byte	$07
	.byte	$03
	.byte	$80
_Mini_Ship_6:
	.byte	$FC
	.byte	$FC
	.byte	$09
	.byte	$03
	.byte	$80
_MINI_SHIP:
	.addr	_Mini_Ship_0
	.addr	_Mini_Ship_0
	.addr	_Mini_Ship_1
	.addr	_Mini_Ship_2
	.addr	_Mini_Ship_2
	.addr	_Mini_Ship_5
	.addr	_Mini_Ship_6
	.addr	_Mini_Ship_6
_Ship2_0:
	.byte	$F8
	.byte	$00
	.byte	$21
	.byte	$01
	.byte	$00
	.byte	$00
	.byte	$23
	.byte	$01
	.byte	$80
_Ship2_1:
	.byte	$F8
	.byte	$00
	.byte	$25
	.byte	$01
	.byte	$00
	.byte	$00
	.byte	$27
	.byte	$01
	.byte	$80
_Ship2_2:
	.byte	$F8
	.byte	$00
	.byte	$29
	.byte	$01
	.byte	$00
	.byte	$00
	.byte	$2B
	.byte	$01
	.byte	$80
_Ship2_5:
	.byte	$F8
	.byte	$00
	.byte	$2D
	.byte	$01
	.byte	$00
	.byte	$00
	.byte	$2F
	.byte	$01
	.byte	$80
_Ship2_6:
	.byte	$F8
	.byte	$00
	.byte	$31
	.byte	$01
	.byte	$00
	.byte	$00
	.byte	$33
	.byte	$01
	.byte	$80
_SHIP2:
	.addr	_Ship2_0
	.addr	_Ship2_0
	.addr	_Ship2_1
	.addr	_Ship2_2
	.addr	_Ship2_2
	.addr	_Ship2_5
	.addr	_Ship2_6
	.addr	_Ship2_6
_Mini_Ship2_0:
	.byte	$FC
	.byte	$FC
	.byte	$01
	.byte	$01
	.byte	$80
_Mini_Ship2_1:
	.byte	$FC
	.byte	$FC
	.byte	$03
	.byte	$01
	.byte	$80
_Mini_Ship2_2:
	.byte	$FC
	.byte	$FC
	.byte	$05
	.byte	$01
	.byte	$80
_Mini_Ship2_5:
	.byte	$FC
	.byte	$FC
	.byte	$07
	.byte	$01
	.byte	$80
_Mini_Ship2_6:
	.byte	$FC
	.byte	$FC
	.byte	$09
	.byte	$01
	.byte	$80
_MINI_SHIP2:
	.addr	_Mini_Ship2_0
	.addr	_Mini_Ship2_0
	.addr	_Mini_Ship2_1
	.addr	_Mini_Ship2_2
	.addr	_Mini_Ship2_2
	.addr	_Mini_Ship2_5
	.addr	_Mini_Ship2_6
	.addr	_Mini_Ship2_6
.segment	"RODATA"
.segment	"XCD_BANK_04"
_COIN_SPRITE:
	.byte	$00
	.byte	$00
	.byte	$AF
	.byte	$01
	.byte	$08
	.byte	$00
	.byte	$AF
	.byte	$41
	.byte	$80
_COIN_1_SPRITE:
	.byte	$00
	.byte	$00
	.byte	$B1
	.byte	$01
	.byte	$08
	.byte	$00
	.byte	$B3
	.byte	$01
	.byte	$80
_COIN_2_SPRITE:
	.byte	$00
	.byte	$00
	.byte	$B5
	.byte	$01
	.byte	$08
	.byte	$00
	.byte	$B5
	.byte	$41
	.byte	$80
_COIN_3_SPRITE:
	.byte	$00
	.byte	$00
	.byte	$B3
	.byte	$41
	.byte	$08
	.byte	$00
	.byte	$B1
	.byte	$41
	.byte	$80
_COIN_SPRITE_X:
	.byte	$00
	.byte	$00
	.byte	$C1
	.byte	$01
	.byte	$08
	.byte	$00
	.byte	$C1
	.byte	$41
	.byte	$80
_COIN_1_X:
	.byte	$00
	.byte	$00
	.byte	$C3
	.byte	$01
	.byte	$08
	.byte	$00
	.byte	$C5
	.byte	$01
	.byte	$80
_COIN_2_X:
	.byte	$00
	.byte	$00
	.byte	$C7
	.byte	$01
	.byte	$08
	.byte	$00
	.byte	$C7
	.byte	$41
	.byte	$80
_COIN_3_X:
	.byte	$00
	.byte	$00
	.byte	$C5
	.byte	$41
	.byte	$08
	.byte	$00
	.byte	$C3
	.byte	$41
	.byte	$80
.segment	"RODATA"
.segment	"XCD_BANK_05"
_Ball_0:
	.byte	$F8
	.byte	$00
	.byte	$1B
	.byte	$03
	.byte	$00
	.byte	$00
	.byte	$1B
	.byte	$43
	.byte	$80
_Ball_1:
	.byte	$F8
	.byte	$00
	.byte	$3F
	.byte	$03
	.byte	$00
	.byte	$00
	.byte	$3F
	.byte	$43
	.byte	$80
_BALL:
	.addr	_Ball_0
	.addr	_Ball_0
	.addr	_Ball_0
	.addr	_Ball_0
	.addr	_Ball_1
	.addr	_Ball_1
	.addr	_Ball_1
	.addr	_Ball_1
_Ball2_0:
	.byte	$F8
	.byte	$00
	.byte	$1B
	.byte	$01
	.byte	$00
	.byte	$00
	.byte	$1B
	.byte	$41
	.byte	$80
_Ball2_1:
	.byte	$F8
	.byte	$00
	.byte	$3F
	.byte	$01
	.byte	$00
	.byte	$00
	.byte	$3F
	.byte	$41
	.byte	$80
_BALL2:
	.addr	_Ball2_0
	.addr	_Ball2_0
	.addr	_Ball2_0
	.addr	_Ball2_0
	.addr	_Ball2_1
	.addr	_Ball2_1
	.addr	_Ball2_1
	.addr	_Ball2_1
_Robot_0:
	.byte	$F4
	.byte	$01
	.byte	$01
	.byte	$03
	.byte	$FC
	.byte	$01
	.byte	$03
	.byte	$03
	.byte	$04
	.byte	$01
	.byte	$05
	.byte	$03
	.byte	$80
_Robot_1:
	.byte	$F4
	.byte	$01
	.byte	$FF
	.byte	$03
	.byte	$FC
	.byte	$01
	.byte	$07
	.byte	$03
	.byte	$04
	.byte	$01
	.byte	$09
	.byte	$03
	.byte	$80
_Robot_2:
	.byte	$F4
	.byte	$01
	.byte	$01
	.byte	$03
	.byte	$FC
	.byte	$01
	.byte	$0B
	.byte	$03
	.byte	$04
	.byte	$01
	.byte	$05
	.byte	$03
	.byte	$80
_Robot_3:
	.byte	$F4
	.byte	$01
	.byte	$FF
	.byte	$03
	.byte	$FC
	.byte	$01
	.byte	$0D
	.byte	$03
	.byte	$04
	.byte	$01
	.byte	$09
	.byte	$03
	.byte	$80
_Robot_Jump_1:
	.byte	$F4
	.byte	$01
	.byte	$FF
	.byte	$03
	.byte	$FC
	.byte	$01
	.byte	$0F
	.byte	$03
	.byte	$04
	.byte	$01
	.byte	$11
	.byte	$03
	.byte	$80
_Robot_0_Alt:
	.byte	$F8
	.byte	$01
	.byte	$01
	.byte	$03
	.byte	$00
	.byte	$01
	.byte	$03
	.byte	$03
	.byte	$08
	.byte	$01
	.byte	$FF
	.byte	$03
	.byte	$80
_Robot_1_Alt:
	.byte	$F8
	.byte	$01
	.byte	$07
	.byte	$03
	.byte	$00
	.byte	$01
	.byte	$09
	.byte	$03
	.byte	$08
	.byte	$01
	.byte	$FF
	.byte	$03
	.byte	$80
_Robot_2_Alt:
	.byte	$F8
	.byte	$01
	.byte	$0B
	.byte	$03
	.byte	$00
	.byte	$01
	.byte	$0D
	.byte	$03
	.byte	$08
	.byte	$01
	.byte	$FF
	.byte	$03
	.byte	$80
_Robot_Jump_1_Alt:
	.byte	$F8
	.byte	$01
	.byte	$11
	.byte	$03
	.byte	$00
	.byte	$01
	.byte	$13
	.byte	$03
	.byte	$08
	.byte	$01
	.byte	$FF
	.byte	$03
	.byte	$80
_ROBOT:
	.addr	_Robot_0
	.addr	_Robot_0
	.addr	_Robot_0
	.addr	_Robot_0
	.addr	_Robot_0
	.addr	_Robot_1
	.addr	_Robot_1
	.addr	_Robot_1
	.addr	_Robot_1
	.addr	_Robot_1
	.addr	_Robot_2
	.addr	_Robot_2
	.addr	_Robot_2
	.addr	_Robot_2
	.addr	_Robot_2
	.addr	_Robot_3
	.addr	_Robot_3
	.addr	_Robot_3
	.addr	_Robot_3
	.addr	_Robot_3
	.addr	_Robot_Jump_1
	.addr	_Robot_Jump_1
	.addr	_Robot_Jump_1
	.addr	_Robot_Jump_1
	.addr	_Robot_Jump_1
_ROBOT_ALT:
	.addr	_Robot_0_Alt
	.addr	_Robot_0_Alt
	.addr	_Robot_0_Alt
	.addr	_Robot_0_Alt
	.addr	_Robot_0_Alt
	.addr	_Robot_1_Alt
	.addr	_Robot_1_Alt
	.addr	_Robot_1_Alt
	.addr	_Robot_1_Alt
	.addr	_Robot_1_Alt
	.addr	_Robot_2_Alt
	.addr	_Robot_2_Alt
	.addr	_Robot_2_Alt
	.addr	_Robot_2_Alt
	.addr	_Robot_2_Alt
	.addr	_Robot_0_Alt
	.addr	_Robot_0_Alt
	.addr	_Robot_0_Alt
	.addr	_Robot_0_Alt
	.addr	_Robot_0_Alt
	.addr	_Robot_Jump_1_Alt
	.addr	_Robot_Jump_1_Alt
	.addr	_Robot_Jump_1_Alt
	.addr	_Robot_Jump_1_Alt
	.addr	_Robot_Jump_1_Alt
_ROBOT_JUMP:
	.addr	_Robot_Jump_1
	.addr	_Robot_Jump_1
	.addr	_Robot_Jump_1
	.addr	_Robot_Jump_1
	.addr	_Robot_Jump_1
_Mini_Robot_0:
	.byte	$FC
	.byte	$FC
	.byte	$37
	.byte	$03
	.byte	$80
_Mini_Robot_1:
	.byte	$FC
	.byte	$FC
	.byte	$39
	.byte	$03
	.byte	$80
_Mini_Robot_2:
	.byte	$FC
	.byte	$FC
	.byte	$3B
	.byte	$03
	.byte	$80
_Mini_Robot_Jump_1:
	.byte	$FC
	.byte	$FC
	.byte	$39
	.byte	$03
	.byte	$80
_MINI_ROBOT:
	.addr	_Mini_Robot_0
	.addr	_Mini_Robot_0
	.addr	_Mini_Robot_0
	.addr	_Mini_Robot_0
	.addr	_Mini_Robot_0
	.addr	_Mini_Robot_1
	.addr	_Mini_Robot_1
	.addr	_Mini_Robot_1
	.addr	_Mini_Robot_1
	.addr	_Mini_Robot_1
	.addr	_Mini_Robot_0
	.addr	_Mini_Robot_0
	.addr	_Mini_Robot_0
	.addr	_Mini_Robot_0
	.addr	_Mini_Robot_0
	.addr	_Mini_Robot_2
	.addr	_Mini_Robot_2
	.addr	_Mini_Robot_2
	.addr	_Mini_Robot_2
	.addr	_Mini_Robot_2
_MINI_ROBOT_JUMP:
	.addr	_Mini_Robot_Jump_1
	.addr	_Mini_Robot_Jump_1
	.addr	_Mini_Robot_Jump_1
	.addr	_Mini_Robot_Jump_1
	.addr	_Mini_Robot_Jump_1
_Mini_Robot_ALT_0:
	.byte	$FC
	.byte	$FC
	.byte	$37
	.byte	$03
	.byte	$80
_Mini_Robot_ALT_1:
	.byte	$FC
	.byte	$FC
	.byte	$39
	.byte	$03
	.byte	$80
_Mini_Robot_ALT_2:
	.byte	$FC
	.byte	$FC
	.byte	$3B
	.byte	$03
	.byte	$80
_Mini_Robot_Jump_ALT_1:
	.byte	$FC
	.byte	$FC
	.byte	$39
	.byte	$03
	.byte	$80
_MINI_ROBOT_ALT:
	.addr	_Mini_Robot_ALT_0
	.addr	_Mini_Robot_ALT_0
	.addr	_Mini_Robot_ALT_0
	.addr	_Mini_Robot_ALT_0
	.addr	_Mini_Robot_ALT_0
	.addr	_Mini_Robot_ALT_1
	.addr	_Mini_Robot_ALT_1
	.addr	_Mini_Robot_ALT_1
	.addr	_Mini_Robot_ALT_1
	.addr	_Mini_Robot_ALT_1
	.addr	_Mini_Robot_ALT_0
	.addr	_Mini_Robot_ALT_0
	.addr	_Mini_Robot_ALT_0
	.addr	_Mini_Robot_ALT_0
	.addr	_Mini_Robot_ALT_0
	.addr	_Mini_Robot_ALT_2
	.addr	_Mini_Robot_ALT_2
	.addr	_Mini_Robot_ALT_2
	.addr	_Mini_Robot_ALT_2
	.addr	_Mini_Robot_ALT_2
_MINI_ROBOT_JUMP_ALT:
	.addr	_Mini_Robot_Jump_ALT_1
	.addr	_Mini_Robot_Jump_ALT_1
	.addr	_Mini_Robot_Jump_ALT_1
	.addr	_Mini_Robot_Jump_ALT_1
	.addr	_Mini_Robot_Jump_ALT_1
_Robot2_0:
	.byte	$F4
	.byte	$01
	.byte	$01
	.byte	$01
	.byte	$FC
	.byte	$01
	.byte	$03
	.byte	$01
	.byte	$04
	.byte	$01
	.byte	$05
	.byte	$01
	.byte	$80
_Robot2_1:
	.byte	$F4
	.byte	$01
	.byte	$FF
	.byte	$01
	.byte	$FC
	.byte	$01
	.byte	$07
	.byte	$01
	.byte	$04
	.byte	$01
	.byte	$09
	.byte	$01
	.byte	$80
_Robot2_2:
	.byte	$F4
	.byte	$01
	.byte	$01
	.byte	$01
	.byte	$FC
	.byte	$01
	.byte	$0B
	.byte	$01
	.byte	$04
	.byte	$01
	.byte	$05
	.byte	$01
	.byte	$80
_Robot2_3:
	.byte	$F4
	.byte	$01
	.byte	$FF
	.byte	$01
	.byte	$FC
	.byte	$01
	.byte	$0D
	.byte	$01
	.byte	$04
	.byte	$01
	.byte	$09
	.byte	$01
	.byte	$80
_Robot_Jump2_1:
	.byte	$F4
	.byte	$01
	.byte	$FF
	.byte	$81
	.byte	$FC
	.byte	$01
	.byte	$0F
	.byte	$01
	.byte	$04
	.byte	$01
	.byte	$11
	.byte	$01
	.byte	$80
_Robot_0_Alt2:
	.byte	$F8
	.byte	$01
	.byte	$01
	.byte	$01
	.byte	$00
	.byte	$01
	.byte	$03
	.byte	$01
	.byte	$08
	.byte	$01
	.byte	$FF
	.byte	$01
	.byte	$80
_Robot_1_Alt2:
	.byte	$F8
	.byte	$01
	.byte	$07
	.byte	$01
	.byte	$00
	.byte	$01
	.byte	$09
	.byte	$01
	.byte	$08
	.byte	$01
	.byte	$FF
	.byte	$01
	.byte	$80
_Robot_2_Alt2:
	.byte	$F8
	.byte	$01
	.byte	$0B
	.byte	$01
	.byte	$00
	.byte	$01
	.byte	$0D
	.byte	$01
	.byte	$08
	.byte	$01
	.byte	$FF
	.byte	$01
	.byte	$80
_Robot_Jump_1_Alt2:
	.byte	$F8
	.byte	$01
	.byte	$11
	.byte	$01
	.byte	$00
	.byte	$01
	.byte	$13
	.byte	$01
	.byte	$08
	.byte	$01
	.byte	$FF
	.byte	$01
	.byte	$80
_ROBOT2:
	.addr	_Robot2_0
	.addr	_Robot2_0
	.addr	_Robot2_0
	.addr	_Robot2_0
	.addr	_Robot2_0
	.addr	_Robot2_1
	.addr	_Robot2_1
	.addr	_Robot2_1
	.addr	_Robot2_1
	.addr	_Robot2_1
	.addr	_Robot2_2
	.addr	_Robot2_2
	.addr	_Robot2_2
	.addr	_Robot2_2
	.addr	_Robot2_2
	.addr	_Robot2_3
	.addr	_Robot2_3
	.addr	_Robot2_3
	.addr	_Robot2_3
	.addr	_Robot2_3
	.addr	_Robot_Jump2_1
	.addr	_Robot_Jump2_1
	.addr	_Robot_Jump2_1
	.addr	_Robot_Jump2_1
	.addr	_Robot_Jump2_1
_ROBOT_ALT2:
	.addr	_Robot_0_Alt2
	.addr	_Robot_0_Alt2
	.addr	_Robot_0_Alt2
	.addr	_Robot_0_Alt2
	.addr	_Robot_0_Alt2
	.addr	_Robot_1_Alt2
	.addr	_Robot_1_Alt2
	.addr	_Robot_1_Alt2
	.addr	_Robot_1_Alt2
	.addr	_Robot_1_Alt2
	.addr	_Robot_0_Alt2
	.addr	_Robot_0_Alt2
	.addr	_Robot_0_Alt2
	.addr	_Robot_0_Alt2
	.addr	_Robot_0_Alt2
	.addr	_Robot_2_Alt2
	.addr	_Robot_2_Alt2
	.addr	_Robot_2_Alt2
	.addr	_Robot_2_Alt2
	.addr	_Robot_2_Alt2
	.addr	_Robot_Jump_1_Alt2
	.addr	_Robot_Jump_1_Alt2
	.addr	_Robot_Jump_1_Alt2
	.addr	_Robot_Jump_1_Alt2
	.addr	_Robot_Jump_1_Alt2
_ROBOT_JUMP2:
	.addr	_Robot_Jump2_1
	.addr	_Robot_Jump2_1
	.addr	_Robot_Jump2_1
	.addr	_Robot_Jump2_1
	.addr	_Robot_Jump2_1
_Mini_Robot2_0:
	.byte	$FC
	.byte	$FC
	.byte	$37
	.byte	$01
	.byte	$80
_Mini_Robot2_1:
	.byte	$FC
	.byte	$FC
	.byte	$39
	.byte	$01
	.byte	$80
_Mini_Robot2_2:
	.byte	$FC
	.byte	$FC
	.byte	$3B
	.byte	$01
	.byte	$80
_Mini_Robot_Jump2_1:
	.byte	$FC
	.byte	$FC
	.byte	$39
	.byte	$01
	.byte	$80
_MINI_ROBOT2:
	.addr	_Mini_Robot2_0
	.addr	_Mini_Robot2_0
	.addr	_Mini_Robot2_0
	.addr	_Mini_Robot2_0
	.addr	_Mini_Robot2_0
	.addr	_Mini_Robot2_1
	.addr	_Mini_Robot2_1
	.addr	_Mini_Robot2_1
	.addr	_Mini_Robot2_1
	.addr	_Mini_Robot2_1
	.addr	_Mini_Robot2_0
	.addr	_Mini_Robot2_0
	.addr	_Mini_Robot2_0
	.addr	_Mini_Robot2_0
	.addr	_Mini_Robot2_0
	.addr	_Mini_Robot2_2
	.addr	_Mini_Robot2_2
	.addr	_Mini_Robot2_2
	.addr	_Mini_Robot2_2
	.addr	_Mini_Robot2_2
_MINI_ROBOT_JUMP2:
	.addr	_Mini_Robot_Jump2_1
	.addr	_Mini_Robot_Jump2_1
	.addr	_Mini_Robot_Jump2_1
	.addr	_Mini_Robot_Jump2_1
	.addr	_Mini_Robot_Jump2_1
_Spider_0:
	.byte	$F4
	.byte	$00
	.byte	$21
	.byte	$03
	.byte	$FC
	.byte	$00
	.byte	$23
	.byte	$03
	.byte	$04
	.byte	$00
	.byte	$25
	.byte	$03
	.byte	$80
_Spider_1:
	.byte	$F4
	.byte	$00
	.byte	$27
	.byte	$03
	.byte	$FC
	.byte	$00
	.byte	$29
	.byte	$03
	.byte	$04
	.byte	$00
	.byte	$2B
	.byte	$03
	.byte	$80
_Spider_2:
	.byte	$F4
	.byte	$00
	.byte	$2D
	.byte	$03
	.byte	$FC
	.byte	$00
	.byte	$2F
	.byte	$03
	.byte	$04
	.byte	$00
	.byte	$31
	.byte	$03
	.byte	$80
_Spider_3:
	.byte	$F4
	.byte	$00
	.byte	$FF
	.byte	$03
	.byte	$FC
	.byte	$00
	.byte	$33
	.byte	$03
	.byte	$04
	.byte	$00
	.byte	$35
	.byte	$03
	.byte	$80
_Spider_Jump:
	.byte	$F4
	.byte	$00
	.byte	$FF
	.byte	$03
	.byte	$FC
	.byte	$00
	.byte	$13
	.byte	$03
	.byte	$04
	.byte	$00
	.byte	$15
	.byte	$03
	.byte	$80
_Spider_0_Alt:
	.byte	$F8
	.byte	$00
	.byte	$23
	.byte	$03
	.byte	$00
	.byte	$00
	.byte	$25
	.byte	$03
	.byte	$08
	.byte	$00
	.byte	$FF
	.byte	$03
	.byte	$80
_Spider_1_Alt:
	.byte	$F8
	.byte	$00
	.byte	$29
	.byte	$03
	.byte	$00
	.byte	$00
	.byte	$2B
	.byte	$03
	.byte	$08
	.byte	$00
	.byte	$FF
	.byte	$03
	.byte	$80
_Spider_2_Alt:
	.byte	$F8
	.byte	$00
	.byte	$2F
	.byte	$03
	.byte	$00
	.byte	$00
	.byte	$31
	.byte	$03
	.byte	$08
	.byte	$00
	.byte	$FF
	.byte	$03
	.byte	$80
_Spider_3_Alt:
	.byte	$F8
	.byte	$00
	.byte	$33
	.byte	$03
	.byte	$00
	.byte	$00
	.byte	$35
	.byte	$03
	.byte	$08
	.byte	$00
	.byte	$FF
	.byte	$03
	.byte	$80
_SPIDER:
	.addr	_Spider_0
	.addr	_Spider_0
	.addr	_Spider_0
	.addr	_Spider_0
	.addr	_Spider_1
	.addr	_Spider_1
	.addr	_Spider_1
	.addr	_Spider_1
	.addr	_Spider_2
	.addr	_Spider_2
	.addr	_Spider_2
	.addr	_Spider_2
	.addr	_Spider_3
	.addr	_Spider_3
	.addr	_Spider_3
	.addr	_Spider_3
	.addr	_Spider_Jump
	.addr	_Spider_Jump
	.addr	_Spider_Jump
	.addr	_Spider_Jump
_SPIDER_ALT:
	.addr	_Spider_0_Alt
	.addr	_Spider_0_Alt
	.addr	_Spider_0_Alt
	.addr	_Spider_0_Alt
	.addr	_Spider_1_Alt
	.addr	_Spider_1_Alt
	.addr	_Spider_1_Alt
	.addr	_Spider_1_Alt
	.addr	_Spider_2_Alt
	.addr	_Spider_2_Alt
	.addr	_Spider_2_Alt
	.addr	_Spider_2_Alt
	.addr	_Spider_3_Alt
	.addr	_Spider_3_Alt
	.addr	_Spider_3_Alt
	.addr	_Spider_3_Alt
	.addr	_Spider_0_Alt
	.addr	_Spider_0_Alt
	.addr	_Spider_0_Alt
	.addr	_Spider_0_Alt
_SPIDER_JUMP:
	.addr	_Spider_3
_Spider_0_Alt2:
	.byte	$F8
	.byte	$00
	.byte	$23
	.byte	$01
	.byte	$00
	.byte	$00
	.byte	$25
	.byte	$01
	.byte	$08
	.byte	$00
	.byte	$FF
	.byte	$01
	.byte	$80
_Spider_1_Alt2:
	.byte	$F8
	.byte	$00
	.byte	$29
	.byte	$01
	.byte	$00
	.byte	$00
	.byte	$2B
	.byte	$01
	.byte	$08
	.byte	$00
	.byte	$FF
	.byte	$01
	.byte	$80
_Spider_2_Alt2:
	.byte	$F8
	.byte	$00
	.byte	$2F
	.byte	$01
	.byte	$00
	.byte	$00
	.byte	$31
	.byte	$01
	.byte	$08
	.byte	$00
	.byte	$FF
	.byte	$01
	.byte	$80
_Spider_3_Alt2:
	.byte	$F8
	.byte	$00
	.byte	$33
	.byte	$01
	.byte	$00
	.byte	$00
	.byte	$35
	.byte	$01
	.byte	$08
	.byte	$00
	.byte	$FF
	.byte	$01
	.byte	$80
_SPIDER_ALT2:
	.addr	_Spider_0_Alt2
	.addr	_Spider_0_Alt2
	.addr	_Spider_0_Alt2
	.addr	_Spider_0_Alt2
	.addr	_Spider_1_Alt2
	.addr	_Spider_1_Alt2
	.addr	_Spider_1_Alt2
	.addr	_Spider_1_Alt2
	.addr	_Spider_2_Alt2
	.addr	_Spider_2_Alt2
	.addr	_Spider_2_Alt2
	.addr	_Spider_2_Alt2
	.addr	_Spider_3_Alt2
	.addr	_Spider_3_Alt2
	.addr	_Spider_3_Alt2
	.addr	_Spider_3_Alt2
	.addr	_Spider_0_Alt2
	.addr	_Spider_0_Alt2
	.addr	_Spider_0_Alt2
	.addr	_Spider_0_Alt2
_Spider2_0:
	.byte	$F4
	.byte	$00
	.byte	$21
	.byte	$01
	.byte	$FC
	.byte	$00
	.byte	$23
	.byte	$01
	.byte	$04
	.byte	$00
	.byte	$25
	.byte	$01
	.byte	$80
_Spider2_1:
	.byte	$F4
	.byte	$00
	.byte	$27
	.byte	$01
	.byte	$FC
	.byte	$00
	.byte	$29
	.byte	$01
	.byte	$04
	.byte	$00
	.byte	$2B
	.byte	$01
	.byte	$80
_Spider2_2:
	.byte	$F4
	.byte	$00
	.byte	$2D
	.byte	$01
	.byte	$FC
	.byte	$00
	.byte	$2F
	.byte	$01
	.byte	$04
	.byte	$00
	.byte	$31
	.byte	$01
	.byte	$80
_Spider2_3:
	.byte	$F4
	.byte	$00
	.byte	$FF
	.byte	$01
	.byte	$FC
	.byte	$00
	.byte	$33
	.byte	$01
	.byte	$04
	.byte	$00
	.byte	$35
	.byte	$01
	.byte	$80
_Spider2_Jump:
	.byte	$F4
	.byte	$00
	.byte	$FF
	.byte	$01
	.byte	$FC
	.byte	$00
	.byte	$13
	.byte	$01
	.byte	$04
	.byte	$00
	.byte	$15
	.byte	$01
	.byte	$80
_SPIDER2:
	.addr	_Spider2_0
	.addr	_Spider2_0
	.addr	_Spider2_0
	.addr	_Spider2_0
	.addr	_Spider2_1
	.addr	_Spider2_1
	.addr	_Spider2_1
	.addr	_Spider2_1
	.addr	_Spider2_2
	.addr	_Spider2_2
	.addr	_Spider2_2
	.addr	_Spider2_2
	.addr	_Spider2_3
	.addr	_Spider2_3
	.addr	_Spider2_3
	.addr	_Spider2_3
	.addr	_Spider2_Jump
	.addr	_Spider2_Jump
	.addr	_Spider2_Jump
	.addr	_Spider2_Jump
_SPIDER_JUMP2:
	.addr	_Spider2_3
_Mini_Spider_0:
	.byte	$FC
	.byte	$FC
	.byte	$21
	.byte	$03
	.byte	$80
_Mini_Spider_1:
	.byte	$FC
	.byte	$FC
	.byte	$23
	.byte	$03
	.byte	$80
_Mini_Spider_2:
	.byte	$FC
	.byte	$FC
	.byte	$25
	.byte	$03
	.byte	$80
_Mini_Spider_3:
	.byte	$FC
	.byte	$FC
	.byte	$27
	.byte	$03
	.byte	$80
_Mini_Spider_0_ALT:
	.byte	$FC
	.byte	$FC
	.byte	$21
	.byte	$03
	.byte	$80
_Mini_Spider_1_ALT:
	.byte	$FC
	.byte	$FC
	.byte	$23
	.byte	$03
	.byte	$80
_Mini_Spider_2_ALT:
	.byte	$FC
	.byte	$FC
	.byte	$25
	.byte	$03
	.byte	$80
_Mini_Spider_3_ALT:
	.byte	$FC
	.byte	$FC
	.byte	$27
	.byte	$03
	.byte	$80
_MINI_SPIDER:
	.addr	_Mini_Spider_0
	.addr	_Mini_Spider_0
	.addr	_Mini_Spider_0
	.addr	_Mini_Spider_0
	.addr	_Mini_Spider_1
	.addr	_Mini_Spider_1
	.addr	_Mini_Spider_1
	.addr	_Mini_Spider_1
	.addr	_Mini_Spider_0
	.addr	_Mini_Spider_0
	.addr	_Mini_Spider_0
	.addr	_Mini_Spider_0
	.addr	_Mini_Spider_2
	.addr	_Mini_Spider_2
	.addr	_Mini_Spider_2
	.addr	_Mini_Spider_2
	.addr	_Mini_Spider_3
	.addr	_Mini_Spider_3
	.addr	_Mini_Spider_3
	.addr	_Mini_Spider_3
_MINI_SPIDER_ALT:
	.addr	_Mini_Spider_0_ALT
	.addr	_Mini_Spider_0_ALT
	.addr	_Mini_Spider_0_ALT
	.addr	_Mini_Spider_0_ALT
	.addr	_Mini_Spider_1_ALT
	.addr	_Mini_Spider_1_ALT
	.addr	_Mini_Spider_1_ALT
	.addr	_Mini_Spider_1_ALT
	.addr	_Mini_Spider_2_ALT
	.addr	_Mini_Spider_2_ALT
	.addr	_Mini_Spider_2_ALT
	.addr	_Mini_Spider_2_ALT
	.addr	_Mini_Spider_3_ALT
	.addr	_Mini_Spider_3_ALT
	.addr	_Mini_Spider_3_ALT
	.addr	_Mini_Spider_3_ALT
	.addr	_Mini_Spider_0_ALT
	.addr	_Mini_Spider_0_ALT
	.addr	_Mini_Spider_0_ALT
	.addr	_Mini_Spider_0_ALT
_MINI_SPIDER_JUMP:
	.addr	_Mini_Spider_3
_Mini_Spider2_0:
	.byte	$FC
	.byte	$FC
	.byte	$21
	.byte	$01
	.byte	$80
_Mini_Spider2_1:
	.byte	$FC
	.byte	$FC
	.byte	$23
	.byte	$01
	.byte	$80
_Mini_Spider2_2:
	.byte	$FC
	.byte	$FC
	.byte	$25
	.byte	$01
	.byte	$80
_Mini_Spider2_3:
	.byte	$FC
	.byte	$FC
	.byte	$27
	.byte	$01
	.byte	$80
_MINI_SPIDER2:
	.addr	_Mini_Spider2_0
	.addr	_Mini_Spider2_0
	.addr	_Mini_Spider2_0
	.addr	_Mini_Spider2_0
	.addr	_Mini_Spider2_1
	.addr	_Mini_Spider2_1
	.addr	_Mini_Spider2_1
	.addr	_Mini_Spider2_1
	.addr	_Mini_Spider2_0
	.addr	_Mini_Spider2_0
	.addr	_Mini_Spider2_0
	.addr	_Mini_Spider2_0
	.addr	_Mini_Spider2_2
	.addr	_Mini_Spider2_2
	.addr	_Mini_Spider2_2
	.addr	_Mini_Spider2_2
	.addr	_Mini_Spider2_3
	.addr	_Mini_Spider2_3
	.addr	_Mini_Spider2_3
	.addr	_Mini_Spider2_3
_MINI_SPIDER_JUMP2:
	.addr	_Mini_Spider2_3
.segment	"RODATA"
.segment	"XCD_BANK_04"
_Speed_SLOW_Portal:
	.byte	$00
	.byte	$00
	.byte	$A1
	.byte	$80
	.byte	$08
	.byte	$00
	.byte	$A1
	.byte	$40
	.byte	$00
	.byte	$0D
	.byte	$A1
	.byte	$00
	.byte	$08
	.byte	$0D
	.byte	$A1
	.byte	$C0
	.byte	$80
_Speed_05_Portal:
	.byte	$00
	.byte	$00
	.byte	$A1
	.byte	$81
	.byte	$08
	.byte	$00
	.byte	$A1
	.byte	$41
	.byte	$00
	.byte	$0D
	.byte	$A1
	.byte	$01
	.byte	$08
	.byte	$0D
	.byte	$A1
	.byte	$C1
	.byte	$80
_Speed_10_Portal:
	.byte	$00
	.byte	$00
	.byte	$A1
	.byte	$00
	.byte	$08
	.byte	$00
	.byte	$A1
	.byte	$C0
	.byte	$00
	.byte	$0D
	.byte	$A1
	.byte	$80
	.byte	$08
	.byte	$0D
	.byte	$A1
	.byte	$40
	.byte	$80
_Speed_20_Portal:
	.byte	$00
	.byte	$00
	.byte	$A9
	.byte	$00
	.byte	$05
	.byte	$00
	.byte	$A9
	.byte	$C0
	.byte	$06
	.byte	$00
	.byte	$A9
	.byte	$00
	.byte	$0B
	.byte	$00
	.byte	$A9
	.byte	$C0
	.byte	$00
	.byte	$0D
	.byte	$A9
	.byte	$80
	.byte	$05
	.byte	$0D
	.byte	$A9
	.byte	$40
	.byte	$06
	.byte	$0D
	.byte	$A9
	.byte	$80
	.byte	$0B
	.byte	$0D
	.byte	$A9
	.byte	$40
	.byte	$80
_Speed_30_Portal:
	.byte	$00
	.byte	$00
	.byte	$A9
	.byte	$01
	.byte	$08
	.byte	$00
	.byte	$AB
	.byte	$01
	.byte	$06
	.byte	$00
	.byte	$A9
	.byte	$01
	.byte	$0E
	.byte	$00
	.byte	$AB
	.byte	$01
	.byte	$0C
	.byte	$00
	.byte	$A9
	.byte	$01
	.byte	$14
	.byte	$00
	.byte	$AB
	.byte	$01
	.byte	$00
	.byte	$0D
	.byte	$A9
	.byte	$81
	.byte	$08
	.byte	$0D
	.byte	$AB
	.byte	$81
	.byte	$06
	.byte	$0D
	.byte	$A9
	.byte	$81
	.byte	$0E
	.byte	$0D
	.byte	$AB
	.byte	$81
	.byte	$0C
	.byte	$0D
	.byte	$A9
	.byte	$81
	.byte	$14
	.byte	$0D
	.byte	$AB
	.byte	$81
	.byte	$80
_Speed_40_Portal:
	.byte	$00
	.byte	$00
	.byte	$AD
	.byte	$02
	.byte	$05
	.byte	$00
	.byte	$AD
	.byte	$02
	.byte	$0A
	.byte	$00
	.byte	$AD
	.byte	$02
	.byte	$0F
	.byte	$00
	.byte	$AD
	.byte	$02
	.byte	$00
	.byte	$0D
	.byte	$AD
	.byte	$82
	.byte	$05
	.byte	$0D
	.byte	$AD
	.byte	$82
	.byte	$0A
	.byte	$0D
	.byte	$AD
	.byte	$82
	.byte	$0F
	.byte	$0D
	.byte	$AD
	.byte	$82
	.byte	$80
_Mini_Portal:
	.byte	$00
	.byte	$00
	.byte	$81
	.byte	$01
	.byte	$08
	.byte	$00
	.byte	$83
	.byte	$01
	.byte	$F8
	.byte	$10
	.byte	$85
	.byte	$01
	.byte	$00
	.byte	$10
	.byte	$87
	.byte	$01
	.byte	$08
	.byte	$10
	.byte	$89
	.byte	$01
	.byte	$00
	.byte	$20
	.byte	$81
	.byte	$81
	.byte	$08
	.byte	$20
	.byte	$83
	.byte	$81
	.byte	$80
_Growth_Portal:
	.byte	$08
	.byte	$00
	.byte	$81
	.byte	$00
	.byte	$10
	.byte	$00
	.byte	$83
	.byte	$00
	.byte	$00
	.byte	$10
	.byte	$85
	.byte	$00
	.byte	$08
	.byte	$10
	.byte	$87
	.byte	$00
	.byte	$10
	.byte	$10
	.byte	$89
	.byte	$00
	.byte	$08
	.byte	$20
	.byte	$81
	.byte	$80
	.byte	$10
	.byte	$20
	.byte	$83
	.byte	$80
	.byte	$80
_Gravity_2x_Portal:
	.byte	$08
	.byte	$00
	.byte	$A3
	.byte	$41
	.byte	$00
	.byte	$00
	.byte	$A7
	.byte	$41
	.byte	$08
	.byte	$10
	.byte	$97
	.byte	$41
	.byte	$00
	.byte	$10
	.byte	$B7
	.byte	$41
	.byte	$08
	.byte	$20
	.byte	$A3
	.byte	$C1
	.byte	$00
	.byte	$20
	.byte	$A7
	.byte	$C1
	.byte	$80
_Gravity_12_Portal:
	.byte	$00
	.byte	$00
	.byte	$A3
	.byte	$03
	.byte	$08
	.byte	$00
	.byte	$A7
	.byte	$03
	.byte	$F8
	.byte	$10
	.byte	$FF
	.byte	$03
	.byte	$00
	.byte	$10
	.byte	$97
	.byte	$03
	.byte	$08
	.byte	$10
	.byte	$B7
	.byte	$03
	.byte	$00
	.byte	$20
	.byte	$A3
	.byte	$83
	.byte	$08
	.byte	$20
	.byte	$A7
	.byte	$83
	.byte	$80
_Gravity_1x_Portal:
	.byte	$08
	.byte	$00
	.byte	$A3
	.byte	$43
	.byte	$00
	.byte	$00
	.byte	$A7
	.byte	$43
	.byte	$08
	.byte	$10
	.byte	$97
	.byte	$43
	.byte	$00
	.byte	$10
	.byte	$B7
	.byte	$43
	.byte	$08
	.byte	$20
	.byte	$A3
	.byte	$C3
	.byte	$00
	.byte	$20
	.byte	$A7
	.byte	$C3
	.byte	$80
_Gravity_23_Portal:
	.byte	$00
	.byte	$00
	.byte	$A3
	.byte	$00
	.byte	$08
	.byte	$00
	.byte	$A7
	.byte	$00
	.byte	$F8
	.byte	$10
	.byte	$FF
	.byte	$00
	.byte	$00
	.byte	$10
	.byte	$97
	.byte	$00
	.byte	$08
	.byte	$10
	.byte	$B7
	.byte	$00
	.byte	$00
	.byte	$20
	.byte	$A3
	.byte	$80
	.byte	$08
	.byte	$20
	.byte	$A7
	.byte	$80
	.byte	$80
_Gravity_13_Portal:
	.byte	$00
	.byte	$00
	.byte	$A3
	.byte	$01
	.byte	$08
	.byte	$00
	.byte	$A7
	.byte	$01
	.byte	$F8
	.byte	$10
	.byte	$FF
	.byte	$01
	.byte	$00
	.byte	$10
	.byte	$97
	.byte	$01
	.byte	$08
	.byte	$10
	.byte	$B7
	.byte	$01
	.byte	$00
	.byte	$20
	.byte	$A3
	.byte	$81
	.byte	$08
	.byte	$20
	.byte	$A7
	.byte	$81
	.byte	$80
_Teleport_Portal_Enter:
	.byte	$00
	.byte	$00
	.byte	$D5
	.byte	$00
	.byte	$00
	.byte	$10
	.byte	$DB
	.byte	$00
	.byte	$00
	.byte	$20
	.byte	$D5
	.byte	$80
	.byte	$08
	.byte	$00
	.byte	$D7
	.byte	$00
	.byte	$08
	.byte	$10
	.byte	$DD
	.byte	$00
	.byte	$08
	.byte	$20
	.byte	$D7
	.byte	$80
	.byte	$10
	.byte	$00
	.byte	$D9
	.byte	$00
	.byte	$10
	.byte	$10
	.byte	$DF
	.byte	$00
	.byte	$10
	.byte	$20
	.byte	$D9
	.byte	$80
	.byte	$80
_Teleport_Portal_Exit:
	.byte	$00
	.byte	$00
	.byte	$D9
	.byte	$41
	.byte	$00
	.byte	$10
	.byte	$DF
	.byte	$41
	.byte	$00
	.byte	$20
	.byte	$D9
	.byte	$C1
	.byte	$08
	.byte	$00
	.byte	$D7
	.byte	$41
	.byte	$08
	.byte	$10
	.byte	$DD
	.byte	$41
	.byte	$08
	.byte	$20
	.byte	$D7
	.byte	$C1
	.byte	$10
	.byte	$00
	.byte	$D5
	.byte	$41
	.byte	$10
	.byte	$10
	.byte	$DB
	.byte	$41
	.byte	$10
	.byte	$20
	.byte	$D5
	.byte	$C1
	.byte	$80
_Portal_Gamemode_Cube:
	.byte	$00
	.byte	$00
	.byte	$41
	.byte	$00
	.byte	$00
	.byte	$10
	.byte	$47
	.byte	$00
	.byte	$00
	.byte	$20
	.byte	$41
	.byte	$80
	.byte	$08
	.byte	$00
	.byte	$43
	.byte	$00
	.byte	$08
	.byte	$10
	.byte	$49
	.byte	$00
	.byte	$08
	.byte	$20
	.byte	$43
	.byte	$80
	.byte	$10
	.byte	$00
	.byte	$45
	.byte	$00
	.byte	$10
	.byte	$10
	.byte	$4B
	.byte	$00
	.byte	$10
	.byte	$20
	.byte	$45
	.byte	$80
	.byte	$80
_Portal_Gamemode_Ship:
	.byte	$00
	.byte	$00
	.byte	$41
	.byte	$01
	.byte	$00
	.byte	$10
	.byte	$47
	.byte	$01
	.byte	$00
	.byte	$20
	.byte	$41
	.byte	$81
	.byte	$08
	.byte	$00
	.byte	$43
	.byte	$01
	.byte	$08
	.byte	$10
	.byte	$49
	.byte	$01
	.byte	$08
	.byte	$20
	.byte	$43
	.byte	$81
	.byte	$10
	.byte	$00
	.byte	$45
	.byte	$01
	.byte	$10
	.byte	$10
	.byte	$4B
	.byte	$01
	.byte	$10
	.byte	$20
	.byte	$45
	.byte	$81
	.byte	$80
_Portal_Gamemode_Ball:
	.byte	$00
	.byte	$00
	.byte	$41
	.byte	$02
	.byte	$00
	.byte	$10
	.byte	$47
	.byte	$02
	.byte	$00
	.byte	$20
	.byte	$41
	.byte	$82
	.byte	$08
	.byte	$00
	.byte	$43
	.byte	$02
	.byte	$08
	.byte	$10
	.byte	$49
	.byte	$02
	.byte	$08
	.byte	$20
	.byte	$43
	.byte	$82
	.byte	$10
	.byte	$00
	.byte	$45
	.byte	$02
	.byte	$10
	.byte	$10
	.byte	$4B
	.byte	$02
	.byte	$10
	.byte	$20
	.byte	$45
	.byte	$82
	.byte	$80
_Portal_Gamemode_UFO:
	.byte	$00
	.byte	$00
	.byte	$61
	.byte	$01
	.byte	$00
	.byte	$10
	.byte	$67
	.byte	$01
	.byte	$00
	.byte	$20
	.byte	$61
	.byte	$81
	.byte	$08
	.byte	$00
	.byte	$63
	.byte	$01
	.byte	$08
	.byte	$10
	.byte	$69
	.byte	$01
	.byte	$08
	.byte	$20
	.byte	$63
	.byte	$81
	.byte	$10
	.byte	$00
	.byte	$65
	.byte	$01
	.byte	$10
	.byte	$10
	.byte	$6B
	.byte	$01
	.byte	$10
	.byte	$20
	.byte	$65
	.byte	$81
	.byte	$80
_Portal_Gamemode_Robot:
	.byte	$00
	.byte	$00
	.byte	$61
	.byte	$02
	.byte	$00
	.byte	$10
	.byte	$67
	.byte	$02
	.byte	$00
	.byte	$20
	.byte	$61
	.byte	$82
	.byte	$08
	.byte	$00
	.byte	$63
	.byte	$02
	.byte	$08
	.byte	$10
	.byte	$69
	.byte	$02
	.byte	$08
	.byte	$20
	.byte	$63
	.byte	$82
	.byte	$10
	.byte	$00
	.byte	$65
	.byte	$02
	.byte	$10
	.byte	$10
	.byte	$6B
	.byte	$02
	.byte	$10
	.byte	$20
	.byte	$65
	.byte	$82
	.byte	$80
_Portal_Gamemode_Spider:
	.byte	$00
	.byte	$00
	.byte	$41
	.byte	$01
	.byte	$00
	.byte	$10
	.byte	$47
	.byte	$01
	.byte	$00
	.byte	$20
	.byte	$41
	.byte	$81
	.byte	$08
	.byte	$00
	.byte	$43
	.byte	$01
	.byte	$08
	.byte	$10
	.byte	$9C
	.byte	$01
	.byte	$08
	.byte	$20
	.byte	$43
	.byte	$81
	.byte	$10
	.byte	$00
	.byte	$45
	.byte	$01
	.byte	$10
	.byte	$10
	.byte	$9E
	.byte	$01
	.byte	$10
	.byte	$20
	.byte	$45
	.byte	$81
	.byte	$80
_Portal_Gamemode_Ninja:
	.byte	$00
	.byte	$00
	.byte	$41
	.byte	$00
	.byte	$00
	.byte	$10
	.byte	$47
	.byte	$00
	.byte	$00
	.byte	$20
	.byte	$41
	.byte	$80
	.byte	$08
	.byte	$00
	.byte	$43
	.byte	$00
	.byte	$08
	.byte	$10
	.byte	$9C
	.byte	$00
	.byte	$08
	.byte	$20
	.byte	$43
	.byte	$80
	.byte	$10
	.byte	$00
	.byte	$45
	.byte	$00
	.byte	$10
	.byte	$10
	.byte	$9E
	.byte	$00
	.byte	$10
	.byte	$20
	.byte	$45
	.byte	$80
	.byte	$80
_Portal_Gamemode_Snake:
	.byte	$00
	.byte	$00
	.byte	$41
	.byte	$02
	.byte	$00
	.byte	$10
	.byte	$47
	.byte	$02
	.byte	$00
	.byte	$20
	.byte	$41
	.byte	$82
	.byte	$08
	.byte	$00
	.byte	$43
	.byte	$02
	.byte	$08
	.byte	$10
	.byte	$9C
	.byte	$02
	.byte	$08
	.byte	$20
	.byte	$43
	.byte	$82
	.byte	$10
	.byte	$00
	.byte	$45
	.byte	$02
	.byte	$10
	.byte	$10
	.byte	$9E
	.byte	$02
	.byte	$10
	.byte	$20
	.byte	$45
	.byte	$82
	.byte	$80
_Portal_Gamemode_Swing:
	.byte	$00
	.byte	$00
	.byte	$61
	.byte	$01
	.byte	$00
	.byte	$10
	.byte	$67
	.byte	$01
	.byte	$00
	.byte	$20
	.byte	$61
	.byte	$81
	.byte	$08
	.byte	$00
	.byte	$63
	.byte	$01
	.byte	$08
	.byte	$10
	.byte	$8C
	.byte	$01
	.byte	$08
	.byte	$20
	.byte	$63
	.byte	$81
	.byte	$10
	.byte	$00
	.byte	$65
	.byte	$01
	.byte	$10
	.byte	$10
	.byte	$8E
	.byte	$01
	.byte	$10
	.byte	$20
	.byte	$65
	.byte	$81
	.byte	$80
_Portal_Gamemode_Football:
	.byte	$00
	.byte	$00
	.byte	$61
	.byte	$02
	.byte	$00
	.byte	$10
	.byte	$67
	.byte	$02
	.byte	$00
	.byte	$20
	.byte	$61
	.byte	$82
	.byte	$08
	.byte	$00
	.byte	$63
	.byte	$02
	.byte	$08
	.byte	$10
	.byte	$8C
	.byte	$02
	.byte	$08
	.byte	$20
	.byte	$63
	.byte	$82
	.byte	$10
	.byte	$00
	.byte	$65
	.byte	$02
	.byte	$10
	.byte	$10
	.byte	$8E
	.byte	$02
	.byte	$10
	.byte	$20
	.byte	$65
	.byte	$82
	.byte	$80
_Portal_Gamemode_Pogo:
	.byte	$00
	.byte	$00
	.byte	$61
	.byte	$00
	.byte	$00
	.byte	$10
	.byte	$67
	.byte	$00
	.byte	$00
	.byte	$20
	.byte	$61
	.byte	$80
	.byte	$08
	.byte	$00
	.byte	$63
	.byte	$00
	.byte	$08
	.byte	$10
	.byte	$8C
	.byte	$00
	.byte	$08
	.byte	$20
	.byte	$63
	.byte	$80
	.byte	$10
	.byte	$00
	.byte	$65
	.byte	$00
	.byte	$10
	.byte	$10
	.byte	$8E
	.byte	$00
	.byte	$10
	.byte	$20
	.byte	$65
	.byte	$80
	.byte	$80
_Portal_Gamemode_Wave:
	.byte	$00
	.byte	$00
	.byte	$61
	.byte	$00
	.byte	$00
	.byte	$10
	.byte	$67
	.byte	$00
	.byte	$00
	.byte	$20
	.byte	$61
	.byte	$80
	.byte	$08
	.byte	$00
	.byte	$63
	.byte	$00
	.byte	$08
	.byte	$10
	.byte	$69
	.byte	$00
	.byte	$08
	.byte	$20
	.byte	$63
	.byte	$80
	.byte	$10
	.byte	$00
	.byte	$65
	.byte	$00
	.byte	$10
	.byte	$10
	.byte	$6B
	.byte	$00
	.byte	$10
	.byte	$20
	.byte	$65
	.byte	$80
	.byte	$80
_Portal_Gravity_Down:
	.byte	$00
	.byte	$00
	.byte	$6D
	.byte	$00
	.byte	$00
	.byte	$10
	.byte	$73
	.byte	$00
	.byte	$00
	.byte	$20
	.byte	$6D
	.byte	$80
	.byte	$08
	.byte	$00
	.byte	$6F
	.byte	$00
	.byte	$08
	.byte	$10
	.byte	$75
	.byte	$00
	.byte	$08
	.byte	$20
	.byte	$6F
	.byte	$80
	.byte	$10
	.byte	$00
	.byte	$71
	.byte	$00
	.byte	$10
	.byte	$10
	.byte	$77
	.byte	$00
	.byte	$10
	.byte	$20
	.byte	$71
	.byte	$80
	.byte	$80
_Portal_Gravity_Up:
	.byte	$00
	.byte	$00
	.byte	$6D
	.byte	$01
	.byte	$00
	.byte	$10
	.byte	$73
	.byte	$01
	.byte	$00
	.byte	$20
	.byte	$6D
	.byte	$81
	.byte	$08
	.byte	$00
	.byte	$6F
	.byte	$01
	.byte	$08
	.byte	$10
	.byte	$75
	.byte	$01
	.byte	$08
	.byte	$20
	.byte	$6F
	.byte	$81
	.byte	$10
	.byte	$00
	.byte	$71
	.byte	$01
	.byte	$10
	.byte	$10
	.byte	$77
	.byte	$01
	.byte	$10
	.byte	$20
	.byte	$71
	.byte	$81
	.byte	$80
_Portal_Dual:
	.byte	$00
	.byte	$00
	.byte	$8B
	.byte	$01
	.byte	$08
	.byte	$00
	.byte	$8D
	.byte	$01
	.byte	$10
	.byte	$00
	.byte	$8F
	.byte	$01
	.byte	$00
	.byte	$10
	.byte	$91
	.byte	$01
	.byte	$08
	.byte	$10
	.byte	$93
	.byte	$01
	.byte	$10
	.byte	$10
	.byte	$95
	.byte	$01
	.byte	$00
	.byte	$20
	.byte	$8B
	.byte	$81
	.byte	$08
	.byte	$20
	.byte	$8D
	.byte	$81
	.byte	$10
	.byte	$20
	.byte	$8F
	.byte	$81
	.byte	$80
_Portal_Single:
	.byte	$00
	.byte	$00
	.byte	$8B
	.byte	$00
	.byte	$08
	.byte	$00
	.byte	$8D
	.byte	$00
	.byte	$10
	.byte	$00
	.byte	$8F
	.byte	$00
	.byte	$00
	.byte	$10
	.byte	$91
	.byte	$00
	.byte	$08
	.byte	$10
	.byte	$93
	.byte	$00
	.byte	$10
	.byte	$10
	.byte	$95
	.byte	$00
	.byte	$00
	.byte	$20
	.byte	$8B
	.byte	$80
	.byte	$08
	.byte	$20
	.byte	$8D
	.byte	$80
	.byte	$10
	.byte	$20
	.byte	$8F
	.byte	$80
	.byte	$80
_Teleport_Portal_Horizontal_Upwards_Enter:
	.byte	$00
	.byte	$00
	.byte	$F5
	.byte	$40
	.byte	$08
	.byte	$00
	.byte	$E1
	.byte	$40
	.byte	$10
	.byte	$00
	.byte	$F1
	.byte	$40
	.byte	$18
	.byte	$00
	.byte	$F1
	.byte	$00
	.byte	$20
	.byte	$00
	.byte	$E1
	.byte	$00
	.byte	$28
	.byte	$00
	.byte	$F5
	.byte	$00
	.byte	$08
	.byte	$08
	.byte	$E5
	.byte	$40
	.byte	$10
	.byte	$08
	.byte	$E3
	.byte	$40
	.byte	$18
	.byte	$08
	.byte	$E3
	.byte	$00
	.byte	$20
	.byte	$08
	.byte	$E5
	.byte	$00
	.byte	$80
_Teleport_Portal_Horizontal_Upwards_Exit:
	.byte	$00
	.byte	$00
	.byte	$F5
	.byte	$41
	.byte	$08
	.byte	$00
	.byte	$E1
	.byte	$41
	.byte	$10
	.byte	$00
	.byte	$F1
	.byte	$41
	.byte	$18
	.byte	$00
	.byte	$F1
	.byte	$01
	.byte	$20
	.byte	$00
	.byte	$E1
	.byte	$01
	.byte	$28
	.byte	$00
	.byte	$F5
	.byte	$01
	.byte	$08
	.byte	$08
	.byte	$E5
	.byte	$41
	.byte	$10
	.byte	$08
	.byte	$E3
	.byte	$41
	.byte	$18
	.byte	$08
	.byte	$E3
	.byte	$01
	.byte	$20
	.byte	$08
	.byte	$E5
	.byte	$01
	.byte	$80
_Teleport_Portal_Horizontal_Downwards_Enter:
	.byte	$00
	.byte	$00
	.byte	$F5
	.byte	$C0
	.byte	$08
	.byte	$00
	.byte	$E1
	.byte	$C0
	.byte	$10
	.byte	$00
	.byte	$F1
	.byte	$C0
	.byte	$18
	.byte	$00
	.byte	$F1
	.byte	$80
	.byte	$20
	.byte	$00
	.byte	$E1
	.byte	$80
	.byte	$28
	.byte	$00
	.byte	$F5
	.byte	$80
	.byte	$08
	.byte	$F8
	.byte	$E5
	.byte	$C0
	.byte	$10
	.byte	$F8
	.byte	$E3
	.byte	$C0
	.byte	$18
	.byte	$F8
	.byte	$E3
	.byte	$80
	.byte	$20
	.byte	$F8
	.byte	$E5
	.byte	$80
	.byte	$80
_Teleport_Portal_Horizontal_Downwards_Exit:
	.byte	$00
	.byte	$00
	.byte	$F5
	.byte	$C1
	.byte	$08
	.byte	$00
	.byte	$E1
	.byte	$C1
	.byte	$10
	.byte	$00
	.byte	$F1
	.byte	$C1
	.byte	$18
	.byte	$00
	.byte	$F1
	.byte	$81
	.byte	$20
	.byte	$00
	.byte	$E1
	.byte	$81
	.byte	$28
	.byte	$00
	.byte	$F5
	.byte	$81
	.byte	$08
	.byte	$F8
	.byte	$E5
	.byte	$C1
	.byte	$10
	.byte	$F8
	.byte	$E3
	.byte	$C1
	.byte	$18
	.byte	$F8
	.byte	$E3
	.byte	$81
	.byte	$20
	.byte	$F8
	.byte	$E5
	.byte	$81
	.byte	$80
_Portal_Gravity_Down_Horizontal_Downwards:
	.byte	$00
	.byte	$00
	.byte	$4D
	.byte	$00
	.byte	$08
	.byte	$00
	.byte	$4F
	.byte	$00
	.byte	$10
	.byte	$00
	.byte	$51
	.byte	$00
	.byte	$18
	.byte	$00
	.byte	$51
	.byte	$40
	.byte	$20
	.byte	$00
	.byte	$4F
	.byte	$40
	.byte	$28
	.byte	$00
	.byte	$4D
	.byte	$40
	.byte	$08
	.byte	$F0
	.byte	$53
	.byte	$00
	.byte	$10
	.byte	$F0
	.byte	$55
	.byte	$00
	.byte	$18
	.byte	$F0
	.byte	$55
	.byte	$40
	.byte	$20
	.byte	$F0
	.byte	$53
	.byte	$40
	.byte	$80
_Portal_Gravity_Down_Horizontal_Upwards:
	.byte	$00
	.byte	$00
	.byte	$4D
	.byte	$80
	.byte	$08
	.byte	$00
	.byte	$4F
	.byte	$80
	.byte	$10
	.byte	$00
	.byte	$51
	.byte	$80
	.byte	$18
	.byte	$00
	.byte	$51
	.byte	$C0
	.byte	$20
	.byte	$00
	.byte	$4F
	.byte	$C0
	.byte	$28
	.byte	$00
	.byte	$4D
	.byte	$C0
	.byte	$08
	.byte	$10
	.byte	$53
	.byte	$80
	.byte	$10
	.byte	$10
	.byte	$55
	.byte	$80
	.byte	$18
	.byte	$10
	.byte	$55
	.byte	$C0
	.byte	$20
	.byte	$10
	.byte	$53
	.byte	$C0
	.byte	$80
_Portal_Gravity_Up_Horizontal_Downwards:
	.byte	$00
	.byte	$00
	.byte	$4D
	.byte	$01
	.byte	$08
	.byte	$00
	.byte	$4F
	.byte	$01
	.byte	$10
	.byte	$00
	.byte	$51
	.byte	$01
	.byte	$18
	.byte	$00
	.byte	$51
	.byte	$41
	.byte	$20
	.byte	$00
	.byte	$4F
	.byte	$41
	.byte	$28
	.byte	$00
	.byte	$4D
	.byte	$41
	.byte	$08
	.byte	$F0
	.byte	$53
	.byte	$01
	.byte	$10
	.byte	$F0
	.byte	$55
	.byte	$01
	.byte	$18
	.byte	$F0
	.byte	$55
	.byte	$41
	.byte	$20
	.byte	$F0
	.byte	$53
	.byte	$41
	.byte	$80
_Portal_Gravity_Up_Horizontal_Upwards:
	.byte	$08
	.byte	$10
	.byte	$53
	.byte	$80
	.byte	$10
	.byte	$10
	.byte	$55
	.byte	$80
	.byte	$18
	.byte	$10
	.byte	$55
	.byte	$C0
	.byte	$20
	.byte	$10
	.byte	$53
	.byte	$C0
	.byte	$00
	.byte	$00
	.byte	$4D
	.byte	$81
	.byte	$08
	.byte	$00
	.byte	$4F
	.byte	$81
	.byte	$10
	.byte	$00
	.byte	$51
	.byte	$81
	.byte	$18
	.byte	$00
	.byte	$51
	.byte	$C1
	.byte	$20
	.byte	$00
	.byte	$4F
	.byte	$C1
	.byte	$28
	.byte	$00
	.byte	$4D
	.byte	$C1
	.byte	$80
_Dash_Orb:
	.byte	$00
	.byte	$00
	.byte	$D1
	.byte	$00
	.byte	$08
	.byte	$00
	.byte	$D3
	.byte	$00
	.byte	$80
_Black_Orb:
	.byte	$00
	.byte	$00
	.byte	$A5
	.byte	$00
	.byte	$08
	.byte	$00
	.byte	$A5
	.byte	$40
	.byte	$80
_Dash_Orb_Upwards:
	.byte	$00
	.byte	$00
	.byte	$CB
	.byte	$40
	.byte	$08
	.byte	$00
	.byte	$CB
	.byte	$00
	.byte	$80
_Dash_Gravity_Orb_Upwards:
	.byte	$00
	.byte	$00
	.byte	$CB
	.byte	$41
	.byte	$08
	.byte	$00
	.byte	$CB
	.byte	$01
	.byte	$80
_Dash_Orb_Downwards:
	.byte	$00
	.byte	$00
	.byte	$CB
	.byte	$C0
	.byte	$08
	.byte	$00
	.byte	$CB
	.byte	$80
	.byte	$80
_Dash_Gravity_Orb_Downwards:
	.byte	$00
	.byte	$00
	.byte	$CB
	.byte	$C1
	.byte	$08
	.byte	$00
	.byte	$CB
	.byte	$81
	.byte	$80
_Dash_Gravity_Orb:
	.byte	$00
	.byte	$00
	.byte	$D1
	.byte	$01
	.byte	$08
	.byte	$00
	.byte	$D3
	.byte	$01
	.byte	$80
_Dash_Orb_45Deg_UP:
	.byte	$00
	.byte	$00
	.byte	$CD
	.byte	$00
	.byte	$08
	.byte	$00
	.byte	$CF
	.byte	$00
	.byte	$80
_Dash_Gravity_Orb_45Deg_UP:
	.byte	$00
	.byte	$00
	.byte	$CD
	.byte	$01
	.byte	$08
	.byte	$00
	.byte	$CF
	.byte	$01
	.byte	$80
_Spider_Orb_UP:
	.byte	$00
	.byte	$00
	.byte	$EF
	.byte	$01
	.byte	$08
	.byte	$00
	.byte	$EF
	.byte	$41
	.byte	$80
_Spider_Orb_DOWN:
	.byte	$00
	.byte	$00
	.byte	$EF
	.byte	$81
	.byte	$08
	.byte	$00
	.byte	$EF
	.byte	$C1
	.byte	$80
_Dash_Orb_45Deg_DOWN:
	.byte	$00
	.byte	$00
	.byte	$CD
	.byte	$80
	.byte	$08
	.byte	$00
	.byte	$CF
	.byte	$80
	.byte	$80
_Dash_Gravity_Orb_45Deg_DOWN:
	.byte	$00
	.byte	$00
	.byte	$CD
	.byte	$81
	.byte	$08
	.byte	$00
	.byte	$CF
	.byte	$81
	.byte	$80
_Yellow_Jump_Orb:
	.byte	$00
	.byte	$00
	.byte	$99
	.byte	$01
	.byte	$08
	.byte	$00
	.byte	$9B
	.byte	$41
	.byte	$80
_Yellow_Jump_Orb2:
	.byte	$00
	.byte	$00
	.byte	$9B
	.byte	$01
	.byte	$08
	.byte	$00
	.byte	$9D
	.byte	$41
	.byte	$80
_Yellow_Jump_Orb3:
	.byte	$00
	.byte	$00
	.byte	$9D
	.byte	$01
	.byte	$08
	.byte	$00
	.byte	$9F
	.byte	$41
	.byte	$80
_Yellow_Jump_Orb4:
	.byte	$00
	.byte	$00
	.byte	$9F
	.byte	$01
	.byte	$08
	.byte	$00
	.byte	$99
	.byte	$41
	.byte	$80
_WHITE_ORB1:
	.byte	$00
	.byte	$00
	.byte	$99
	.byte	$02
	.byte	$08
	.byte	$00
	.byte	$9B
	.byte	$42
	.byte	$80
_WHITE_ORB2:
	.byte	$00
	.byte	$00
	.byte	$9B
	.byte	$02
	.byte	$08
	.byte	$00
	.byte	$9D
	.byte	$42
	.byte	$80
_WHITE_ORB3:
	.byte	$00
	.byte	$00
	.byte	$9D
	.byte	$02
	.byte	$08
	.byte	$00
	.byte	$9F
	.byte	$42
	.byte	$80
_WHITE_ORB4:
	.byte	$00
	.byte	$00
	.byte	$9F
	.byte	$02
	.byte	$08
	.byte	$00
	.byte	$99
	.byte	$42
	.byte	$80
_Blue_Jump_Orb:
	.byte	$00
	.byte	$00
	.byte	$99
	.byte	$00
	.byte	$08
	.byte	$00
	.byte	$9B
	.byte	$40
	.byte	$80
_Blue_Jump_Orb2:
	.byte	$00
	.byte	$00
	.byte	$9B
	.byte	$00
	.byte	$08
	.byte	$00
	.byte	$9D
	.byte	$40
	.byte	$80
_Blue_Jump_Orb3:
	.byte	$00
	.byte	$00
	.byte	$9D
	.byte	$00
	.byte	$08
	.byte	$00
	.byte	$9F
	.byte	$40
	.byte	$80
_Blue_Jump_Orb4:
	.byte	$00
	.byte	$00
	.byte	$9F
	.byte	$00
	.byte	$08
	.byte	$00
	.byte	$99
	.byte	$40
	.byte	$80
_Pink_Jump_Orb:
	.byte	$00
	.byte	$00
	.byte	$B9
	.byte	$01
	.byte	$08
	.byte	$00
	.byte	$BB
	.byte	$41
	.byte	$80
_Pink_Jump_Orb2:
	.byte	$00
	.byte	$00
	.byte	$BB
	.byte	$01
	.byte	$08
	.byte	$00
	.byte	$BD
	.byte	$41
	.byte	$80
_Pink_Jump_Orb3:
	.byte	$00
	.byte	$00
	.byte	$BD
	.byte	$01
	.byte	$08
	.byte	$00
	.byte	$BF
	.byte	$41
	.byte	$80
_Pink_Jump_Orb4:
	.byte	$00
	.byte	$00
	.byte	$BF
	.byte	$01
	.byte	$08
	.byte	$00
	.byte	$B9
	.byte	$41
	.byte	$80
_Green_Jump_Orb:
	.byte	$00
	.byte	$00
	.byte	$B9
	.byte	$00
	.byte	$08
	.byte	$00
	.byte	$BB
	.byte	$40
	.byte	$80
_Green_Jump_Orb2:
	.byte	$00
	.byte	$00
	.byte	$BB
	.byte	$00
	.byte	$08
	.byte	$00
	.byte	$BD
	.byte	$40
	.byte	$80
_Green_Jump_Orb3:
	.byte	$00
	.byte	$00
	.byte	$BD
	.byte	$00
	.byte	$08
	.byte	$00
	.byte	$BF
	.byte	$40
	.byte	$80
_Green_Jump_Orb4:
	.byte	$00
	.byte	$00
	.byte	$BF
	.byte	$00
	.byte	$08
	.byte	$00
	.byte	$B9
	.byte	$40
	.byte	$80
_Red_Jump_Orb:
	.byte	$00
	.byte	$00
	.byte	$B9
	.byte	$02
	.byte	$08
	.byte	$00
	.byte	$BB
	.byte	$42
	.byte	$80
_Red_Jump_Orb2:
	.byte	$00
	.byte	$00
	.byte	$BB
	.byte	$02
	.byte	$08
	.byte	$00
	.byte	$BD
	.byte	$42
	.byte	$80
_Red_Jump_Orb3:
	.byte	$00
	.byte	$00
	.byte	$BD
	.byte	$02
	.byte	$08
	.byte	$00
	.byte	$BF
	.byte	$42
	.byte	$80
_Red_Jump_Orb4:
	.byte	$00
	.byte	$00
	.byte	$BF
	.byte	$02
	.byte	$08
	.byte	$00
	.byte	$B9
	.byte	$42
	.byte	$80
_Yellow_Jump_Pad:
	.byte	$00
	.byte	$F8
	.byte	$79
	.byte	$01
	.byte	$08
	.byte	$F8
	.byte	$7B
	.byte	$41
	.byte	$80
_Yellow_Jump_Pad2:
	.byte	$00
	.byte	$F8
	.byte	$7B
	.byte	$01
	.byte	$08
	.byte	$F8
	.byte	$FB
	.byte	$41
	.byte	$80
_Yellow_Jump_Pad3:
	.byte	$00
	.byte	$F8
	.byte	$FB
	.byte	$01
	.byte	$08
	.byte	$F8
	.byte	$FD
	.byte	$41
	.byte	$80
_Yellow_Jump_Pad4:
	.byte	$00
	.byte	$F8
	.byte	$FD
	.byte	$01
	.byte	$08
	.byte	$F8
	.byte	$79
	.byte	$41
	.byte	$80
_Yellow_Jump_Pad_U:
	.byte	$00
	.byte	$00
	.byte	$79
	.byte	$81
	.byte	$08
	.byte	$00
	.byte	$7B
	.byte	$C1
	.byte	$80
_Yellow_Jump_Pad_U2:
	.byte	$00
	.byte	$00
	.byte	$7B
	.byte	$81
	.byte	$08
	.byte	$00
	.byte	$FB
	.byte	$C1
	.byte	$80
_Yellow_Jump_Pad_U3:
	.byte	$00
	.byte	$00
	.byte	$FB
	.byte	$81
	.byte	$08
	.byte	$00
	.byte	$FD
	.byte	$C1
	.byte	$80
_Yellow_Jump_Pad_U4:
	.byte	$00
	.byte	$00
	.byte	$FD
	.byte	$81
	.byte	$08
	.byte	$00
	.byte	$79
	.byte	$C1
	.byte	$80
_Pink_Jump_Pad:
	.byte	$00
	.byte	$F8
	.byte	$59
	.byte	$01
	.byte	$08
	.byte	$F8
	.byte	$5B
	.byte	$41
	.byte	$80
_Pink_Jump_Pad2:
	.byte	$00
	.byte	$F8
	.byte	$5B
	.byte	$01
	.byte	$08
	.byte	$F8
	.byte	$5D
	.byte	$41
	.byte	$80
_Pink_Jump_Pad3:
	.byte	$00
	.byte	$F8
	.byte	$5D
	.byte	$01
	.byte	$08
	.byte	$F8
	.byte	$5F
	.byte	$41
	.byte	$80
_Pink_Jump_Pad4:
	.byte	$00
	.byte	$F8
	.byte	$5F
	.byte	$01
	.byte	$08
	.byte	$F8
	.byte	$59
	.byte	$41
	.byte	$80
_Green_Jump_Pad:
	.byte	$00
	.byte	$08
	.byte	$59
	.byte	$80
	.byte	$08
	.byte	$08
	.byte	$5B
	.byte	$C0
	.byte	$00
	.byte	$F8
	.byte	$59
	.byte	$00
	.byte	$08
	.byte	$F8
	.byte	$5B
	.byte	$40
	.byte	$80
_Green_Jump_Pad2:
	.byte	$00
	.byte	$08
	.byte	$5B
	.byte	$80
	.byte	$08
	.byte	$08
	.byte	$5D
	.byte	$C0
	.byte	$00
	.byte	$F8
	.byte	$5B
	.byte	$00
	.byte	$08
	.byte	$F8
	.byte	$5D
	.byte	$40
	.byte	$80
_Green_Jump_Pad3:
	.byte	$00
	.byte	$08
	.byte	$5D
	.byte	$80
	.byte	$08
	.byte	$08
	.byte	$5F
	.byte	$C0
	.byte	$00
	.byte	$F8
	.byte	$5D
	.byte	$00
	.byte	$08
	.byte	$F8
	.byte	$5F
	.byte	$40
	.byte	$80
_Green_Jump_Pad4:
	.byte	$00
	.byte	$08
	.byte	$5F
	.byte	$80
	.byte	$08
	.byte	$08
	.byte	$59
	.byte	$C0
	.byte	$00
	.byte	$F8
	.byte	$5F
	.byte	$00
	.byte	$08
	.byte	$F8
	.byte	$59
	.byte	$40
	.byte	$80
_Red_Jump_Pad:
	.byte	$00
	.byte	$F8
	.byte	$59
	.byte	$02
	.byte	$08
	.byte	$F8
	.byte	$5B
	.byte	$42
	.byte	$80
_Red_Jump_Pad2:
	.byte	$00
	.byte	$F8
	.byte	$5B
	.byte	$02
	.byte	$08
	.byte	$F8
	.byte	$5D
	.byte	$42
	.byte	$80
_Red_Jump_Pad3:
	.byte	$00
	.byte	$F8
	.byte	$5D
	.byte	$02
	.byte	$08
	.byte	$F8
	.byte	$5F
	.byte	$42
	.byte	$80
_Red_Jump_Pad4:
	.byte	$00
	.byte	$F8
	.byte	$5F
	.byte	$02
	.byte	$08
	.byte	$F8
	.byte	$59
	.byte	$42
	.byte	$80
_Pink_Jump_Pad_U:
	.byte	$00
	.byte	$00
	.byte	$59
	.byte	$81
	.byte	$08
	.byte	$00
	.byte	$5B
	.byte	$C1
	.byte	$80
_Pink_Jump_Pad_U2:
	.byte	$00
	.byte	$00
	.byte	$5B
	.byte	$81
	.byte	$08
	.byte	$00
	.byte	$5D
	.byte	$C1
	.byte	$80
_Pink_Jump_Pad_U3:
	.byte	$00
	.byte	$00
	.byte	$5D
	.byte	$81
	.byte	$08
	.byte	$00
	.byte	$5F
	.byte	$C1
	.byte	$80
_Pink_Jump_Pad_U4:
	.byte	$00
	.byte	$00
	.byte	$5F
	.byte	$81
	.byte	$08
	.byte	$00
	.byte	$59
	.byte	$C1
	.byte	$80
_Red_Jump_Pad_U:
	.byte	$00
	.byte	$00
	.byte	$59
	.byte	$82
	.byte	$08
	.byte	$00
	.byte	$5B
	.byte	$C2
	.byte	$80
_Red_Jump_Pad_U2:
	.byte	$00
	.byte	$00
	.byte	$5B
	.byte	$82
	.byte	$08
	.byte	$00
	.byte	$5D
	.byte	$C2
	.byte	$80
_Red_Jump_Pad_U3:
	.byte	$00
	.byte	$00
	.byte	$5D
	.byte	$82
	.byte	$08
	.byte	$00
	.byte	$5F
	.byte	$C2
	.byte	$80
_Red_Jump_Pad_U4:
	.byte	$00
	.byte	$00
	.byte	$5F
	.byte	$82
	.byte	$08
	.byte	$00
	.byte	$59
	.byte	$C2
	.byte	$80
_Gravity_Pad:
	.byte	$00
	.byte	$F8
	.byte	$79
	.byte	$04
	.byte	$08
	.byte	$F8
	.byte	$7B
	.byte	$44
	.byte	$80
_Gravity_Pad2:
	.byte	$00
	.byte	$F8
	.byte	$7B
	.byte	$04
	.byte	$08
	.byte	$F8
	.byte	$FB
	.byte	$44
	.byte	$80
_Gravity_Pad3:
	.byte	$00
	.byte	$F8
	.byte	$FB
	.byte	$04
	.byte	$08
	.byte	$F8
	.byte	$FD
	.byte	$44
	.byte	$80
_Gravity_Pad4:
	.byte	$00
	.byte	$F8
	.byte	$FD
	.byte	$04
	.byte	$08
	.byte	$F8
	.byte	$79
	.byte	$44
	.byte	$80
_Gravity_Pad_U:
	.byte	$00
	.byte	$00
	.byte	$79
	.byte	$84
	.byte	$08
	.byte	$00
	.byte	$7B
	.byte	$C4
	.byte	$80
_Gravity_Pad_U2:
	.byte	$00
	.byte	$00
	.byte	$7B
	.byte	$84
	.byte	$08
	.byte	$00
	.byte	$FB
	.byte	$C4
	.byte	$80
_Gravity_Pad_U3:
	.byte	$00
	.byte	$00
	.byte	$FB
	.byte	$84
	.byte	$08
	.byte	$00
	.byte	$FD
	.byte	$C4
	.byte	$80
_Gravity_Pad_U4:
	.byte	$00
	.byte	$00
	.byte	$FD
	.byte	$84
	.byte	$08
	.byte	$00
	.byte	$79
	.byte	$C4
	.byte	$80
_Teleport_Square_Enter:
	.byte	$00
	.byte	$00
	.byte	$EB
	.byte	$00
	.byte	$08
	.byte	$00
	.byte	$EB
	.byte	$40
	.byte	$80
_Teleport_Square_Exit:
	.byte	$00
	.byte	$00
	.byte	$EB
	.byte	$01
	.byte	$08
	.byte	$00
	.byte	$EB
	.byte	$41
	.byte	$80
_Spider_Pad_Up:
	.byte	$00
	.byte	$F8
	.byte	$F3
	.byte	$01
	.byte	$08
	.byte	$F8
	.byte	$F3
	.byte	$41
	.byte	$80
_Spider_Pad_Down:
	.byte	$00
	.byte	$00
	.byte	$F3
	.byte	$81
	.byte	$08
	.byte	$00
	.byte	$F3
	.byte	$C1
	.byte	$80
_Short_Light:
	.byte	$04
	.byte	$00
	.byte	$CD
	.byte	$03
	.byte	$80
_Short_Light_U:
	.byte	$04
	.byte	$00
	.byte	$CD
	.byte	$83
	.byte	$80
_Medium_Light:
	.byte	$04
	.byte	$00
	.byte	$CF
	.byte	$03
	.byte	$04
	.byte	$F0
	.byte	$CB
	.byte	$03
	.byte	$80
_Medium_Light_U:
	.byte	$04
	.byte	$00
	.byte	$CF
	.byte	$83
	.byte	$04
	.byte	$10
	.byte	$CB
	.byte	$83
	.byte	$80
_Long_Light:
	.byte	$04
	.byte	$00
	.byte	$CF
	.byte	$03
	.byte	$04
	.byte	$F0
	.byte	$C9
	.byte	$03
	.byte	$80
_Long_Light_U:
	.byte	$04
	.byte	$00
	.byte	$CF
	.byte	$83
	.byte	$04
	.byte	$10
	.byte	$C9
	.byte	$83
	.byte	$80
_Short_Light_Left:
	.byte	$00
	.byte	$FC
	.byte	$F5
	.byte	$03
	.byte	$08
	.byte	$FC
	.byte	$F1
	.byte	$03
	.byte	$80
_Short_Light_Right:
	.byte	$08
	.byte	$FC
	.byte	$F5
	.byte	$43
	.byte	$00
	.byte	$FC
	.byte	$F1
	.byte	$43
	.byte	$80
_Medium_Light_Left:
	.byte	$00
	.byte	$FC
	.byte	$F5
	.byte	$03
	.byte	$08
	.byte	$FC
	.byte	$F7
	.byte	$03
	.byte	$10
	.byte	$FC
	.byte	$F1
	.byte	$03
	.byte	$80
_Medium_Light_Right:
	.byte	$00
	.byte	$FC
	.byte	$F1
	.byte	$43
	.byte	$08
	.byte	$FC
	.byte	$F7
	.byte	$43
	.byte	$10
	.byte	$FC
	.byte	$F5
	.byte	$43
	.byte	$80
_Long_Light_Left:
	.byte	$04
	.byte	$08
	.byte	$D5
	.byte	$03
	.byte	$04
	.byte	$F8
	.byte	$D7
	.byte	$03
	.byte	$80
_Long_Light_Right:
	.byte	$14
	.byte	$08
	.byte	$CD
	.byte	$03
	.byte	$80
_Chain:
	.byte	$04
	.byte	$00
	.byte	$D5
	.byte	$03
	.byte	$04
	.byte	$F0
	.byte	$D7
	.byte	$03
	.byte	$80
_Chain_U:
	.byte	$04
	.byte	$10
	.byte	$D7
	.byte	$83
	.byte	$04
	.byte	$00
	.byte	$D5
	.byte	$83
	.byte	$80
_BG_Spike_Group1:
	.byte	$00
	.byte	$FC
	.byte	$D9
	.byte	$03
	.byte	$08
	.byte	$FC
	.byte	$DB
	.byte	$03
	.byte	$80
_BG_Spike_Group2:
	.byte	$00
	.byte	$04
	.byte	$D9
	.byte	$83
	.byte	$08
	.byte	$04
	.byte	$DB
	.byte	$83
	.byte	$80
_BG_Spike_Group3:
	.byte	$00
	.byte	$FC
	.byte	$DD
	.byte	$03
	.byte	$08
	.byte	$FC
	.byte	$DF
	.byte	$03
	.byte	$80
_BG_Spike_Group4:
	.byte	$00
	.byte	$04
	.byte	$DD
	.byte	$83
	.byte	$08
	.byte	$04
	.byte	$DF
	.byte	$83
	.byte	$80
_Big_Diamond:
	.byte	$00
	.byte	$00
	.byte	$E1
	.byte	$03
	.byte	$08
	.byte	$00
	.byte	$E1
	.byte	$43
	.byte	$80
_Right_Half_Diamond:
	.byte	$08
	.byte	$00
	.byte	$E1
	.byte	$43
	.byte	$80
_Question_Mark:
	.byte	$04
	.byte	$00
	.byte	$E3
	.byte	$03
	.byte	$80
_Exclamation_Mark:
	.byte	$04
	.byte	$00
	.byte	$E5
	.byte	$03
	.byte	$80
_Star:
	.byte	$00
	.byte	$00
	.byte	$E7
	.byte	$03
	.byte	$08
	.byte	$00
	.byte	$E7
	.byte	$43
	.byte	$80
_Big_X:
	.byte	$00
	.byte	$00
	.byte	$ED
	.byte	$03
	.byte	$08
	.byte	$00
	.byte	$ED
	.byte	$43
	.byte	$80
_Diamond_Shifted_Right:
	.byte	$08
	.byte	$00
	.byte	$E1
	.byte	$03
	.byte	$10
	.byte	$00
	.byte	$E1
	.byte	$43
	.byte	$80
_Pulsing_Ball:
	.byte	$04
	.byte	$FC
	.byte	$F9
	.byte	$03
	.byte	$80
_Music_Note:
	.byte	$00
	.byte	$00
	.byte	$E9
	.byte	$03
	.byte	$08
	.byte	$00
	.byte	$EB
	.byte	$03
	.byte	$80
_Skull_Open_Sprites:
	.byte	$01
	.addr	_Skull_Trigger_1
	.byte	$04
	.addr	_Skull_Trigger_2
	.byte	$04
	.addr	_Skull_Trigger_3
	.byte	$01
	.addr	_Skull_Trigger_4
_COIN_SPRITES:
	.byte	$05
	.addr	_COIN_SPRITE
	.byte	$05
	.addr	_COIN_1_SPRITE
	.byte	$05
	.addr	_COIN_2_SPRITE
	.byte	$05
	.addr	_COIN_3_SPRITE
_COIN_SPRITES_X:
	.byte	$05
	.addr	_COIN_SPRITE_X
	.byte	$05
	.addr	_COIN_1_X
	.byte	$05
	.addr	_COIN_2_X
	.byte	$05
	.addr	_COIN_3_X
_YELLOW_PAD_SPRITES:
	.byte	$05
	.addr	_Yellow_Jump_Pad
	.byte	$05
	.addr	_Yellow_Jump_Pad2
	.byte	$05
	.addr	_Yellow_Jump_Pad3
	.byte	$05
	.addr	_Yellow_Jump_Pad4
_YELLOW_PAD_U_SPRITES:
	.byte	$05
	.addr	_Yellow_Jump_Pad_U
	.byte	$05
	.addr	_Yellow_Jump_Pad_U2
	.byte	$05
	.addr	_Yellow_Jump_Pad_U3
	.byte	$05
	.addr	_Yellow_Jump_Pad_U4
_PINK_PAD_SPRITES:
	.byte	$05
	.addr	_Pink_Jump_Pad
	.byte	$05
	.addr	_Pink_Jump_Pad2
	.byte	$05
	.addr	_Pink_Jump_Pad3
	.byte	$05
	.addr	_Pink_Jump_Pad4
_RED_PAD_SPRITES:
	.byte	$05
	.addr	_Red_Jump_Pad
	.byte	$05
	.addr	_Red_Jump_Pad2
	.byte	$05
	.addr	_Red_Jump_Pad3
	.byte	$05
	.addr	_Red_Jump_Pad4
_RED_PAD_U_SPRITES:
	.byte	$05
	.addr	_Red_Jump_Pad_U
	.byte	$05
	.addr	_Red_Jump_Pad_U2
	.byte	$05
	.addr	_Red_Jump_Pad_U3
	.byte	$05
	.addr	_Red_Jump_Pad_U4
_PINK_PAD_U_SPRITES:
	.byte	$05
	.addr	_Pink_Jump_Pad_U
	.byte	$05
	.addr	_Pink_Jump_Pad_U2
	.byte	$05
	.addr	_Pink_Jump_Pad_U3
	.byte	$05
	.addr	_Pink_Jump_Pad_U4
_GREEN_PAD_SPRITES:
	.byte	$05
	.addr	_Green_Jump_Pad
	.byte	$05
	.addr	_Green_Jump_Pad2
	.byte	$05
	.addr	_Green_Jump_Pad3
	.byte	$05
	.addr	_Green_Jump_Pad4
_GRAVITY_PAD_SPRITES:
	.byte	$05
	.addr	_Gravity_Pad
	.byte	$05
	.addr	_Gravity_Pad2
	.byte	$05
	.addr	_Gravity_Pad3
	.byte	$05
	.addr	_Gravity_Pad4
_GRAVITY_PAD_U_SPRITES:
	.byte	$05
	.addr	_Gravity_Pad_U
	.byte	$05
	.addr	_Gravity_Pad_U2
	.byte	$05
	.addr	_Gravity_Pad_U3
	.byte	$05
	.addr	_Gravity_Pad_U4
_YELLOW_ORB_SPRITES:
	.byte	$05
	.addr	_Yellow_Jump_Orb
	.byte	$05
	.addr	_Yellow_Jump_Orb2
	.byte	$05
	.addr	_Yellow_Jump_Orb3
	.byte	$05
	.addr	_Yellow_Jump_Orb4
_WHITE_ORB_SPRITES:
	.byte	$05
	.addr	_WHITE_ORB1
	.byte	$05
	.addr	_WHITE_ORB2
	.byte	$05
	.addr	_WHITE_ORB3
	.byte	$05
	.addr	_WHITE_ORB4
_BLUE_ORB_SPRITES:
	.byte	$05
	.addr	_Blue_Jump_Orb
	.byte	$05
	.addr	_Blue_Jump_Orb2
	.byte	$05
	.addr	_Blue_Jump_Orb3
	.byte	$05
	.addr	_Blue_Jump_Orb4
_PINK_ORB_SPRITES:
	.byte	$05
	.addr	_Pink_Jump_Orb
	.byte	$05
	.addr	_Pink_Jump_Orb2
	.byte	$05
	.addr	_Pink_Jump_Orb3
	.byte	$05
	.addr	_Pink_Jump_Orb4
_GREEN_ORB_SPRITES:
	.byte	$05
	.addr	_Green_Jump_Orb
	.byte	$05
	.addr	_Green_Jump_Orb2
	.byte	$05
	.addr	_Green_Jump_Orb3
	.byte	$05
	.addr	_Green_Jump_Orb4
_RED_ORB_SPRITES:
	.byte	$05
	.addr	_Red_Jump_Orb
	.byte	$05
	.addr	_Red_Jump_Orb2
	.byte	$05
	.addr	_Red_Jump_Orb3
	.byte	$05
	.addr	_Red_Jump_Orb4
_RANDOM_GAMEMODE_PORTAL:
	.byte	$0A
	.addr	_Portal_Gamemode_Cube
	.byte	$0A
	.addr	_Portal_Gamemode_Ship
	.byte	$0A
	.addr	_Portal_Gamemode_Ball
	.byte	$0A
	.addr	_Portal_Gamemode_UFO
	.byte	$0A
	.addr	_Portal_Gamemode_Robot
	.byte	$0A
	.addr	_Portal_Gamemode_Spider
	.byte	$0A
	.addr	_Portal_Gamemode_Wave
	.byte	$0A
	.addr	_Portal_Gamemode_Swing
_SUPER_RANDOM_GAMEMODE_PORTAL:
	.byte	$0A
	.addr	_Portal_Gamemode_Cube
	.byte	$0A
	.addr	_Portal_Gamemode_Ship
	.byte	$0A
	.addr	_Portal_Gamemode_Ball
	.byte	$0A
	.addr	_Portal_Gamemode_UFO
	.byte	$0A
	.addr	_Portal_Gamemode_Robot
	.byte	$0A
	.addr	_Portal_Gamemode_Spider
	.byte	$0A
	.addr	_Portal_Gamemode_Wave
	.byte	$0A
	.addr	_Portal_Gamemode_Swing
	.byte	$0A
	.addr	_Portal_Gamemode_Ninja
	.byte	$0A
	.addr	_Portal_Gamemode_Pogo
	.byte	$0A
	.addr	_Portal_Gamemode_Snake
	.byte	$0A
	.addr	_Portal_Gamemode_Football
_MINI_COIN_SPRITES:
	.byte	$05
	.addr	_MINICOIN_SPRITE1
	.byte	$05
	.addr	_MINICOIN_SPRITE2
	.byte	$05
	.addr	_MINICOIN_SPRITE3
	.byte	$05
	.addr	_MINICOIN_SPRITE4
_nometa:
	.byte	$80
_Menu_0:
	.byte	$00
	.byte	$00
	.byte	$81
	.byte	$02
	.byte	$80
_Menu_1:
	.byte	$00
	.byte	$00
	.byte	$83
	.byte	$02
	.byte	$80
_Menu_2:
	.byte	$00
	.byte	$00
	.byte	$85
	.byte	$02
	.byte	$80
_Menu_3:
	.byte	$00
	.byte	$00
	.byte	$87
	.byte	$02
	.byte	$80
_Menu_4:
	.byte	$00
	.byte	$00
	.byte	$89
	.byte	$02
	.byte	$80
_Menu_5:
	.byte	$00
	.byte	$00
	.byte	$8B
	.byte	$02
	.byte	$80
_Menu_6:
	.byte	$00
	.byte	$00
	.byte	$8D
	.byte	$02
	.byte	$80
_Menu_7:
	.byte	$00
	.byte	$00
	.byte	$8F
	.byte	$02
	.byte	$80
_Menu_8:
	.byte	$00
	.byte	$00
	.byte	$91
	.byte	$02
	.byte	$80
_Menu_9:
	.byte	$00
	.byte	$00
	.byte	$93
	.byte	$02
	.byte	$80
_Menu_Percentage:
	.byte	$00
	.byte	$00
	.byte	$95
	.byte	$02
	.byte	$80
_Menu_0_Pal3:
	.byte	$00
	.byte	$00
	.byte	$81
	.byte	$03
	.byte	$80
_Menu_1_Pal3:
	.byte	$00
	.byte	$00
	.byte	$83
	.byte	$03
	.byte	$80
_Menu_2_Pal3:
	.byte	$00
	.byte	$00
	.byte	$85
	.byte	$03
	.byte	$80
_Menu_3_Pal3:
	.byte	$00
	.byte	$00
	.byte	$87
	.byte	$03
	.byte	$80
_Menu_4_Pal3:
	.byte	$00
	.byte	$00
	.byte	$89
	.byte	$03
	.byte	$80
_Menu_5_Pal3:
	.byte	$00
	.byte	$00
	.byte	$8B
	.byte	$03
	.byte	$80
_Menu_6_Pal3:
	.byte	$00
	.byte	$00
	.byte	$8D
	.byte	$03
	.byte	$80
_Menu_7_Pal3:
	.byte	$00
	.byte	$00
	.byte	$8F
	.byte	$03
	.byte	$80
_Menu_8_Pal3:
	.byte	$00
	.byte	$00
	.byte	$91
	.byte	$03
	.byte	$80
_Menu_9_Pal3:
	.byte	$00
	.byte	$00
	.byte	$93
	.byte	$03
	.byte	$80
_Menu_Percentage_Pal3:
	.byte	$00
	.byte	$00
	.byte	$95
	.byte	$03
	.byte	$80
_Menu_Percentage_Mask:
	.byte	$00
	.byte	$00
	.byte	$97
	.byte	$03
	.byte	$80
_Menu_Percentage_Coarse:
	.byte	$00
	.byte	$00
	.byte	$99
	.byte	$00
	.byte	$80
_Menu_Percentage_Coarse_Pal1:
	.byte	$00
	.byte	$00
	.byte	$99
	.byte	$01
	.byte	$80
_Menu_Percentage_Hidder:
	.byte	$00
	.byte	$00
	.byte	$9B
	.byte	$01
	.byte	$80
_Menu_Percentage_Hidder_Flipped:
	.byte	$00
	.byte	$00
	.byte	$9B
	.byte	$41
	.byte	$80
_Progress_0:
	.byte	$00
	.byte	$00
	.byte	$81
	.byte	$02
	.byte	$80
_Progress_1:
	.byte	$00
	.byte	$00
	.byte	$83
	.byte	$02
	.byte	$80
_Progress_2:
	.byte	$00
	.byte	$00
	.byte	$85
	.byte	$02
	.byte	$80
_Progress_3:
	.byte	$00
	.byte	$00
	.byte	$87
	.byte	$02
	.byte	$80
_Progress_4:
	.byte	$00
	.byte	$00
	.byte	$89
	.byte	$02
	.byte	$80
_Progress_5:
	.byte	$00
	.byte	$00
	.byte	$8B
	.byte	$02
	.byte	$80
_Progress_6:
	.byte	$00
	.byte	$00
	.byte	$8D
	.byte	$02
	.byte	$80
_Progress_7:
	.byte	$00
	.byte	$00
	.byte	$8F
	.byte	$02
	.byte	$80
_Progress_8:
	.byte	$00
	.byte	$00
	.byte	$91
	.byte	$02
	.byte	$80
_Progress_9:
	.byte	$00
	.byte	$00
	.byte	$93
	.byte	$02
	.byte	$80
_Progress_Percentage:
	.byte	$00
	.byte	$00
	.byte	$95
	.byte	$02
	.byte	$80
_Number_Sprites:
	.addr	_Menu_0
	.addr	_Menu_1
	.addr	_Menu_2
	.addr	_Menu_3
	.addr	_Menu_4
	.addr	_Menu_5
	.addr	_Menu_6
	.addr	_Menu_7
	.addr	_Menu_8
	.addr	_Menu_9
	.addr	_Menu_Percentage
	.addr	_Menu_0_Pal3
	.addr	_Menu_1_Pal3
	.addr	_Menu_2_Pal3
	.addr	_Menu_3_Pal3
	.addr	_Menu_4_Pal3
	.addr	_Menu_5_Pal3
	.addr	_Menu_6_Pal3
	.addr	_Menu_7_Pal3
	.addr	_Menu_8_Pal3
	.addr	_Menu_9_Pal3
	.addr	_Menu_Percentage_Pal3
	.addr	_Menu_Percentage_Mask
	.addr	_Menu_Percentage_Coarse
	.addr	_Menu_Percentage_Coarse_Pal1
	.addr	_Menu_Percentage_Hidder
	.addr	_Menu_Percentage_Hidder_Flipped
	.addr	_Progress_0
	.addr	_Progress_1
	.addr	_Progress_2
	.addr	_Progress_3
	.addr	_Progress_4
	.addr	_Progress_5
	.addr	_Progress_6
	.addr	_Progress_7
	.addr	_Progress_8
	.addr	_Progress_9
	.addr	_Progress_Percentage
_Metasprites:
	.addr	_Portal_Gamemode_Cube
	.addr	_Portal_Gamemode_Ship
	.addr	_Portal_Gamemode_Ball
	.addr	_Portal_Gamemode_UFO
	.addr	_Portal_Gamemode_Robot
	.addr	_Blue_Jump_Orb
	.addr	_Pink_Jump_Orb
	.addr	_COIN_SPRITE
	.addr	_Portal_Gravity_Down
	.addr	_Portal_Gravity_Up
	.addr	_Yellow_Jump_Pad
	.addr	_Yellow_Jump_Orb
	.addr	_Yellow_Jump_Pad_U
	.addr	_Gravity_Pad
	.addr	_Gravity_Pad_U
	.addr	_nometa
	.addr	_Portal_Gravity_Down_Horizontal_Downwards
	.addr	_Portal_Gravity_Down_Horizontal_Upwards
	.addr	_Portal_Gravity_Up_Horizontal_Downwards
	.addr	_Portal_Gravity_Up_Horizontal_Upwards
	.addr	_Speed_05_Portal
	.addr	_Speed_10_Portal
	.addr	_Speed_20_Portal
	.addr	_Portal_Gamemode_Spider
	.addr	_Mini_Portal
	.addr	_Growth_Portal
	.addr	_COIN_SPRITE
	.addr	_COIN_SPRITE
	.addr	_COIN_SPRITE_X
	.addr	_COIN_SPRITE_X
	.addr	_COIN_SPRITE_X
	.addr	_Yellow_Jump_Orb
	.addr	_Speed_30_Portal
	.addr	_Speed_40_Portal
	.addr	_Portal_Dual
	.addr	_Portal_Single
	.addr	_Portal_Gamemode_Wave
	.addr	_Pink_Jump_Pad
	.addr	_Pink_Jump_Pad_U
	.addr	_Green_Jump_Orb
	.addr	_Red_Jump_Orb
	.addr	_Yellow_Jump_Orb
	.addr	_Long_Light
	.addr	_Medium_Light
	.addr	_Short_Light
	.addr	_Chain
	.addr	_BG_Spike_Group1
	.addr	_BG_Spike_Group2
	.addr	_BG_Spike_Group3
	.addr	_BG_Spike_Group4
	.addr	_Big_Diamond
	.addr	_Right_Half_Diamond
	.addr	_Question_Mark
	.addr	_Exclamation_Mark
	.addr	_Star
	.addr	_Big_X
	.addr	_Short_Light_Right
	.addr	_Short_Light_Left
	.addr	_Long_Light_U
	.addr	_Medium_Light_U
	.addr	_Short_Light_U
	.addr	_Chain_U
	.addr	_Medium_Light_Right
	.addr	_Medium_Light_Left
	.addr	_nometa
	.addr	_nometa
	.addr	_nometa
	.addr	_nometa
	.addr	_Black_Orb
	.addr	_Dash_Orb
	.addr	_Dash_Gravity_Orb
	.addr	_nometa
	.addr	_nometa
	.addr	_Pulsing_Ball
	.addr	_Music_Note
	.addr	_Portal_Gamemode_Swing
	.addr	_Dash_Orb_45Deg_UP
	.addr	_Dash_Gravity_Orb_45Deg_UP
	.addr	_Teleport_Portal_Enter
	.addr	_Teleport_Portal_Exit
	.addr	_Dash_Orb_45Deg_DOWN
	.addr	_Dash_Gravity_Orb_45Deg_DOWN
	.addr	_Red_Jump_Pad
	.addr	_Red_Jump_Pad_U
	.addr	_Spider_Orb_UP
	.addr	_Spider_Orb_DOWN
	.addr	_Spider_Pad_Up
	.addr	_Spider_Pad_Down
	.addr	_Portal_Gamemode_Ninja
	.addr	_Teleport_Square_Enter
	.addr	_Teleport_Square_Exit
	.addr	_Dash_Orb_Upwards
	.addr	_Dash_Gravity_Orb_Upwards
	.addr	_Dash_Orb_Downwards
	.addr	_Dash_Gravity_Orb_Downwards
	.addr	_Gravity_13_Portal
	.addr	_Gravity_12_Portal
	.addr	_Gravity_23_Portal
	.addr	_Gravity_2x_Portal
	.addr	_Gravity_1x_Portal
	.addr	_Portal_Gamemode_Cube
	.addr	_Green_Jump_Pad
	.addr	_Teleport_Portal_Horizontal_Upwards_Enter
	.addr	_Teleport_Portal_Horizontal_Downwards_Exit
	.addr	_Teleport_Portal_Horizontal_Downwards_Enter
	.addr	_Teleport_Portal_Horizontal_Upwards_Exit
	.addr	_Portal_Gamemode_Pogo
	.addr	_Portal_Gamemode_Snake
	.addr	_Portal_Gamemode_Football
	.addr	_Speed_SLOW_Portal
	.addr	_MINICOIN_SPRITE1
	.addr	_nometa
	.addr	_nometa
	.addr	_nometa
	.addr	_nometa
	.addr	_nometa
	.addr	_nometa
	.addr	_nometa
	.addr	_nometa
	.addr	_nometa
	.addr	_nometa
	.addr	_Skull_Trigger_1
	.addr	_WHITE_ORB1
	.addr	_Blue_Jump_Orb
	.addr	_Green_Jump_Orb
	.addr	_nometa
	.addr	_Portal_Gamemode_Cube
_animation_frame_list:
	.word	$0000
	.word	$0000
	.word	$0000
	.word	$0000
	.word	$0000
	.addr	_BLUE_ORB_SPRITES
	.addr	_PINK_ORB_SPRITES
	.addr	_COIN_SPRITES
	.word	$0000
	.word	$0000
	.addr	_YELLOW_PAD_SPRITES
	.addr	_YELLOW_ORB_SPRITES
	.addr	_YELLOW_PAD_U_SPRITES
	.addr	_GRAVITY_PAD_SPRITES
	.addr	_GRAVITY_PAD_U_SPRITES
	.word	$0000
	.word	$0000
	.word	$0000
	.word	$0000
	.word	$0000
	.word	$0000
	.word	$0000
	.word	$0000
	.word	$0000
	.word	$0000
	.word	$0000
	.addr	_COIN_SPRITES
	.addr	_COIN_SPRITES
	.addr	_COIN_SPRITES_X
	.addr	_COIN_SPRITES_X
	.addr	_COIN_SPRITES_X
	.addr	_YELLOW_ORB_SPRITES
	.word	$0000
	.word	$0000
	.word	$0000
	.word	$0000
	.word	$0000
	.addr	_PINK_PAD_SPRITES
	.addr	_PINK_PAD_U_SPRITES
	.addr	_GREEN_ORB_SPRITES
	.addr	_RED_ORB_SPRITES
	.addr	_YELLOW_ORB_SPRITES
	.word	$0000
	.word	$0000
	.word	$0000
	.word	$0000
	.word	$0000
	.word	$0000
	.word	$0000
	.word	$0000
	.word	$0000
	.word	$0000
	.word	$0000
	.word	$0000
	.word	$0000
	.word	$0000
	.word	$0000
	.word	$0000
	.word	$0000
	.word	$0000
	.word	$0000
	.word	$0000
	.word	$0000
	.word	$0000
	.word	$0000
	.word	$0000
	.word	$0000
	.word	$0000
	.word	$0000
	.word	$0000
	.word	$0000
	.word	$0000
	.word	$0000
	.word	$0000
	.word	$0000
	.word	$0000
	.word	$0000
	.word	$0000
	.word	$0000
	.word	$0000
	.word	$0000
	.word	$0000
	.addr	_RED_PAD_SPRITES
	.addr	_RED_PAD_U_SPRITES
	.word	$0000
	.word	$0000
	.word	$0000
	.word	$0000
	.word	$0000
	.word	$0000
	.word	$0000
	.word	$0000
	.word	$0000
	.word	$0000
	.word	$0000
	.word	$0000
	.word	$0000
	.word	$0000
	.word	$0000
	.word	$0000
	.addr	_RANDOM_GAMEMODE_PORTAL
	.addr	_GREEN_PAD_SPRITES
	.word	$0000
	.word	$0000
	.word	$0000
	.word	$0000
	.word	$0000
	.word	$0000
	.word	$0000
	.word	$0000
	.addr	_MINI_COIN_SPRITES
	.word	$0000
	.word	$0000
	.word	$0000
	.word	$0000
	.word	$0000
	.word	$0000
	.word	$0000
	.word	$0000
	.word	$0000
	.word	$0000
	.addr	_Skull_Open_Sprites
	.addr	_WHITE_ORB_SPRITES
	.addr	_BLUE_ORB_SPRITES
	.addr	_GREEN_ORB_SPRITES
	.word	$0000
	.addr	_SUPER_RANDOM_GAMEMODE_PORTAL
_animation_frame_length:
	.byte	$00
	.byte	$00
	.byte	$00
	.byte	$00
	.byte	$00
	.byte	$04
	.byte	$04
	.byte	$04
	.byte	$00
	.byte	$00
	.byte	$04
	.byte	$04
	.byte	$04
	.byte	$04
	.byte	$04
	.byte	$00
	.byte	$00
	.byte	$00
	.byte	$00
	.byte	$00
	.byte	$00
	.byte	$00
	.byte	$00
	.byte	$00
	.byte	$00
	.byte	$00
	.byte	$04
	.byte	$04
	.byte	$04
	.byte	$04
	.byte	$04
	.byte	$04
	.byte	$00
	.byte	$00
	.byte	$00
	.byte	$00
	.byte	$00
	.byte	$04
	.byte	$04
	.byte	$04
	.byte	$04
	.byte	$04
	.byte	$00
	.byte	$00
	.byte	$00
	.byte	$00
	.byte	$00
	.byte	$00
	.byte	$00
	.byte	$00
	.byte	$00
	.byte	$00
	.byte	$00
	.byte	$00
	.byte	$00
	.byte	$00
	.byte	$00
	.byte	$00
	.byte	$00
	.byte	$00
	.byte	$00
	.byte	$00
	.byte	$00
	.byte	$00
	.byte	$00
	.byte	$00
	.byte	$00
	.byte	$00
	.byte	$00
	.byte	$00
	.byte	$00
	.byte	$00
	.byte	$00
	.byte	$00
	.byte	$00
	.byte	$00
	.byte	$00
	.byte	$00
	.byte	$00
	.byte	$00
	.byte	$00
	.byte	$00
	.byte	$04
	.byte	$04
	.byte	$00
	.byte	$00
	.byte	$00
	.byte	$00
	.byte	$00
	.byte	$00
	.byte	$00
	.byte	$00
	.byte	$00
	.byte	$00
	.byte	$00
	.byte	$00
	.byte	$00
	.byte	$00
	.byte	$00
	.byte	$00
	.byte	$08
	.byte	$04
	.byte	$00
	.byte	$00
	.byte	$00
	.byte	$00
	.byte	$00
	.byte	$00
	.byte	$00
	.byte	$00
	.byte	$04
	.byte	$00
	.byte	$00
	.byte	$00
	.byte	$00
	.byte	$00
	.byte	$00
	.byte	$00
	.byte	$00
	.byte	$00
	.byte	$00
	.byte	$04
	.byte	$04
	.byte	$04
	.byte	$04
	.byte	$00
	.byte	$0C
.segment	"RODATA"
.segment	"XCD_BANK_00"
_OUTLINES:
	.byte	$30
	.byte	$11
	.byte	$12
	.byte	$13
	.byte	$14
	.byte	$15
	.byte	$16
	.byte	$27
	.byte	$28
	.byte	$29
	.byte	$2A
	.byte	$2B
	.byte	$2C
	.byte	$21
	.byte	$17
	.byte	$0F
.segment	"XCD_BANK_06"
.segment	"XCD_BANK_00"
.segment	"RODATA"
.segment	"XCD_BANK_04"
_multBufLookup:
	.byte	$00
	.byte	$0B
	.byte	$16
	.byte	$21
	.byte	$2C
	.byte	$37
	.byte	$42
	.byte	$4D
_multStateLookup_lo:
	.byte	$00
	.byte	$AC
	.byte	$58
	.byte	$04
	.byte	$B0
	.byte	$5C
	.byte	$08
	.byte	$B4
_multStateLookup_hi:
	.byte	$00
	.byte	$00
	.byte	$01
	.byte	$02
	.byte	$02
	.byte	$03
	.byte	$04
	.byte	$04
.segment	"RODATA"
.segment	"XCD_BANK_04"
.segment	"RODATA"
_attempttext:
	.byte	$F0,$F1,$F1,$F2,$F3,$F4,$F1,$00
.segment	"XCD_BANK_04"
.segment	"RODATA"
.segment	"XCD_BANK_01"
.segment	"RODATA"
.segment	"XCD_BANK_06"
.segment	"RODATA"
.segment	"CODE"
.segment	"RODATA"
.segment	"XCD_BANK_01"
.segment	"RODATA"
.segment	"XCD_BANK_01"
.segment	"RODATA"
.segment	"XCD_BANK_01"
.segment	"RODATA"
.segment	"XCD_BANK_01"
.segment	"RODATA"
.segment	"XCD_BANK_01"
.segment	"RODATA"
.segment	"XCD_BANK_01"
.segment	"RODATA"
.segment	"XCD_BANK_03"
_level_select_screen:
	.byte	$03
	.byte	$02
	.byte	$03
	.byte	$3F
	.byte	$FF
	.byte	$03
	.byte	$05
	.byte	$0A
	.byte	$0B
	.byte	$06
	.byte	$0E
	.byte	$03
	.byte	$04
	.byte	$06
	.byte	$0E
	.byte	$0E
	.byte	$07
	.byte	$0E
	.byte	$03
	.byte	$04
	.byte	$07
	.byte	$0A
	.byte	$0B
	.byte	$FF
	.byte	$03
	.byte	$0D
	.byte	$08
	.byte	$05
	.byte	$03
	.byte	$04
	.byte	$08
	.byte	$05
	.byte	$05
	.byte	$09
	.byte	$05
	.byte	$03
	.byte	$04
	.byte	$09
	.byte	$FF
	.byte	$03
	.byte	$8D
	.byte	$5C
	.byte	$FE
	.byte	$03
	.byte	$11
	.byte	$5D
	.byte	$FF
	.byte	$03
	.byte	$0B
	.byte	$FE
	.byte	$03
	.byte	$11
	.byte	$8E
	.byte	$FE
	.byte	$FF
	.byte	$03
	.byte	$0B
	.byte	$FE
	.byte	$03
	.byte	$13
	.byte	$FF
	.byte	$03
	.byte	$0B
	.byte	$FE
	.byte	$03
	.byte	$13
	.byte	$FF
	.byte	$03
	.byte	$0B
	.byte	$FE
	.byte	$02
	.byte	$02
	.byte	$FE
	.byte	$03
	.byte	$10
	.byte	$FF
	.byte	$03
	.byte	$0B
	.byte	$6C
	.byte	$FE
	.byte	$03
	.byte	$11
	.byte	$6D
	.byte	$FF
	.byte	$03
	.byte	$07
	.byte	$6E
	.byte	$FF
	.byte	$03
	.byte	$19
	.byte	$6F
	.byte	$FF
	.byte	$03
	.byte	$03
	.byte	$7E
	.byte	$FF
	.byte	$03
	.byte	$07
	.byte	$EE
	.byte	$EF
	.byte	$F2
	.byte	$ED
	.byte	$E1
	.byte	$EC
	.byte	$FF
	.byte	$ED
	.byte	$EF
	.byte	$E4
	.byte	$E5
	.byte	$FF
	.byte	$03
	.byte	$06
	.byte	$7F
	.byte	$FF
	.byte	$03
	.byte	$07
	.byte	$7C
	.byte	$FE
	.byte	$03
	.byte	$11
	.byte	$7D
	.byte	$FF
	.byte	$03
	.byte	$2F
	.byte	$F0
	.byte	$F2
	.byte	$E1
	.byte	$E3
	.byte	$F4
	.byte	$E9
	.byte	$E3
	.byte	$E5
	.byte	$FF
	.byte	$ED
	.byte	$EF
	.byte	$E4
	.byte	$E5
	.byte	$FF
	.byte	$03
	.byte	$0E
	.byte	$7C
	.byte	$FE
	.byte	$03
	.byte	$11
	.byte	$7D
	.byte	$FF
	.byte	$03
	.byte	$65
	.byte	$2A
	.byte	$FF
	.byte	$03
	.byte	$1D
	.byte	$2A
	.byte	$06
	.byte	$07
	.byte	$11
	.byte	$03
	.byte	$05
	.byte	$10
	.byte	$11
	.byte	$03
	.byte	$06
	.byte	$10
	.byte	$11
	.byte	$03
	.byte	$06
	.byte	$10
	.byte	$11
	.byte	$03
	.byte	$04
	.byte	$06
	.byte	$07
	.byte	$08
	.byte	$09
	.byte	$2A
	.byte	$13
	.byte	$03
	.byte	$04
	.byte	$12
	.byte	$13
	.byte	$03
	.byte	$06
	.byte	$12
	.byte	$13
	.byte	$03
	.byte	$06
	.byte	$12
	.byte	$13
	.byte	$03
	.byte	$03
	.byte	$2A
	.byte	$08
	.byte	$09
	.byte	$06
	.byte	$07
	.byte	$06
	.byte	$07
	.byte	$13
	.byte	$03
	.byte	$03
	.byte	$12
	.byte	$13
	.byte	$03
	.byte	$06
	.byte	$12
	.byte	$13
	.byte	$03
	.byte	$06
	.byte	$12
	.byte	$13
	.byte	$03
	.byte	$02
	.byte	$06
	.byte	$07
	.byte	$06
	.byte	$07
	.byte	$08
	.byte	$09
	.byte	$08
	.byte	$09
	.byte	$2A
	.byte	$13
	.byte	$03
	.byte	$02
	.byte	$12
	.byte	$13
	.byte	$03
	.byte	$06
	.byte	$12
	.byte	$13
	.byte	$03
	.byte	$06
	.byte	$12
	.byte	$13
	.byte	$13
	.byte	$2A
	.byte	$08
	.byte	$09
	.byte	$08
	.byte	$09
	.byte	$02
	.byte	$03
	.byte	$3F
	.byte	$00
	.byte	$00
	.byte	$50
	.byte	$10
	.byte	$40
	.byte	$50
	.byte	$00
	.byte	$03
	.byte	$0A
	.byte	$84
	.byte	$21
	.byte	$00
	.byte	$03
	.byte	$02
	.byte	$01
	.byte	$00
	.byte	$03
	.byte	$05
	.byte	$04
	.byte	$01
	.byte	$00
	.byte	$00
	.byte	$04
	.byte	$05
	.byte	$03
	.byte	$03
	.byte	$01
	.byte	$00
	.byte	$03
	.byte	$08
	.byte	$41
	.byte	$00
	.byte	$03
	.byte	$05
	.byte	$14
	.byte	$00
	.byte	$03
	.byte	$06
	.byte	$00
	.byte	$03
	.byte	$00
_game_start_screen:
	.byte	$01
	.byte	$FF
	.byte	$01
	.byte	$87
	.byte	$20
	.byte	$21
	.byte	$22
	.byte	$23
	.byte	$24
	.byte	$25
	.byte	$26
	.byte	$27
	.byte	$28
	.byte	$29
	.byte	$22
	.byte	$23
	.byte	$22
	.byte	$2B
	.byte	$2C
	.byte	$2C
	.byte	$FF
	.byte	$01
	.byte	$0F
	.byte	$30
	.byte	$31
	.byte	$32
	.byte	$33
	.byte	$34
	.byte	$35
	.byte	$36
	.byte	$37
	.byte	$38
	.byte	$39
	.byte	$32
	.byte	$33
	.byte	$3A
	.byte	$3B
	.byte	$3C
	.byte	$3D
	.byte	$FF
	.byte	$01
	.byte	$0F
	.byte	$40
	.byte	$FF
	.byte	$42
	.byte	$43
	.byte	$44
	.byte	$45
	.byte	$46
	.byte	$47
	.byte	$48
	.byte	$49
	.byte	$42
	.byte	$43
	.byte	$4A
	.byte	$4B
	.byte	$4C
	.byte	$4C
	.byte	$FF
	.byte	$01
	.byte	$AF
	.byte	$54
	.byte	$55
	.byte	$56
	.byte	$57
	.byte	$FF
	.byte	$FF
	.byte	$50
	.byte	$51
	.byte	$52
	.byte	$53
	.byte	$FF
	.byte	$FF
	.byte	$54
	.byte	$55
	.byte	$56
	.byte	$57
	.byte	$FF
	.byte	$01
	.byte	$0F
	.byte	$64
	.byte	$65
	.byte	$66
	.byte	$67
	.byte	$FF
	.byte	$FF
	.byte	$60
	.byte	$61
	.byte	$62
	.byte	$63
	.byte	$FF
	.byte	$FF
	.byte	$58
	.byte	$59
	.byte	$5A
	.byte	$5B
	.byte	$FF
	.byte	$01
	.byte	$0F
	.byte	$74
	.byte	$75
	.byte	$76
	.byte	$77
	.byte	$FF
	.byte	$FF
	.byte	$70
	.byte	$71
	.byte	$72
	.byte	$73
	.byte	$FF
	.byte	$FF
	.byte	$68
	.byte	$69
	.byte	$6A
	.byte	$77
	.byte	$FF
	.byte	$01
	.byte	$0F
	.byte	$84
	.byte	$85
	.byte	$86
	.byte	$87
	.byte	$FF
	.byte	$FF
	.byte	$80
	.byte	$81
	.byte	$82
	.byte	$83
	.byte	$FF
	.byte	$FF
	.byte	$84
	.byte	$85
	.byte	$86
	.byte	$87
	.byte	$FF
	.byte	$01
	.byte	$50
	.byte	$78
	.byte	$79
	.byte	$FF
	.byte	$01
	.byte	$03
	.byte	$7A
	.byte	$7B
	.byte	$FF
	.byte	$01
	.byte	$03
	.byte	$2E
	.byte	$2F
	.byte	$FF
	.byte	$01
	.byte	$11
	.byte	$88
	.byte	$89
	.byte	$FF
	.byte	$01
	.byte	$03
	.byte	$8A
	.byte	$8B
	.byte	$FF
	.byte	$01
	.byte	$03
	.byte	$3E
	.byte	$3F
	.byte	$FF
	.byte	$01
	.byte	$48
	.byte	$10
	.byte	$11
	.byte	$01
	.byte	$06
	.byte	$10
	.byte	$11
	.byte	$01
	.byte	$06
	.byte	$10
	.byte	$11
	.byte	$01
	.byte	$06
	.byte	$10
	.byte	$11
	.byte	$01
	.byte	$06
	.byte	$12
	.byte	$13
	.byte	$01
	.byte	$06
	.byte	$12
	.byte	$13
	.byte	$01
	.byte	$06
	.byte	$12
	.byte	$13
	.byte	$01
	.byte	$06
	.byte	$12
	.byte	$13
	.byte	$01
	.byte	$06
	.byte	$12
	.byte	$13
	.byte	$01
	.byte	$06
	.byte	$12
	.byte	$13
	.byte	$01
	.byte	$06
	.byte	$12
	.byte	$13
	.byte	$01
	.byte	$06
	.byte	$12
	.byte	$13
	.byte	$01
	.byte	$06
	.byte	$12
	.byte	$13
	.byte	$01
	.byte	$06
	.byte	$12
	.byte	$13
	.byte	$01
	.byte	$06
	.byte	$12
	.byte	$13
	.byte	$01
	.byte	$06
	.byte	$12
	.byte	$13
	.byte	$01
	.byte	$06
	.byte	$12
	.byte	$13
	.byte	$01
	.byte	$06
	.byte	$12
	.byte	$13
	.byte	$01
	.byte	$06
	.byte	$12
	.byte	$13
	.byte	$01
	.byte	$06
	.byte	$12
	.byte	$13
	.byte	$01
	.byte	$06
	.byte	$12
	.byte	$13
	.byte	$01
	.byte	$06
	.byte	$12
	.byte	$13
	.byte	$01
	.byte	$06
	.byte	$12
	.byte	$13
	.byte	$01
	.byte	$06
	.byte	$12
	.byte	$13
	.byte	$01
	.byte	$06
	.byte	$12
	.byte	$13
	.byte	$01
	.byte	$06
	.byte	$12
	.byte	$13
	.byte	$01
	.byte	$06
	.byte	$12
	.byte	$13
	.byte	$01
	.byte	$06
	.byte	$12
	.byte	$13
	.byte	$01
	.byte	$06
	.byte	$12
	.byte	$13
	.byte	$01
	.byte	$06
	.byte	$12
	.byte	$13
	.byte	$01
	.byte	$06
	.byte	$12
	.byte	$13
	.byte	$01
	.byte	$06
	.byte	$12
	.byte	$13
	.byte	$01
	.byte	$06
	.byte	$00
	.byte	$01
	.byte	$09
	.byte	$55
	.byte	$01
	.byte	$03
	.byte	$00
	.byte	$01
	.byte	$0B
	.byte	$55
	.byte	$44
	.byte	$11
	.byte	$55
	.byte	$00
	.byte	$01
	.byte	$03
	.byte	$50
	.byte	$40
	.byte	$10
	.byte	$50
	.byte	$00
	.byte	$00
	.byte	$F0
	.byte	$01
	.byte	$07
	.byte	$FF
	.byte	$01
	.byte	$07
	.byte	$0F
	.byte	$01
	.byte	$06
	.byte	$0F
	.byte	$01
	.byte	$00
_lvlselect_irq_table:
	.byte	$1F
	.byte	$F5
	.byte	$00
	.byte	$95
	.byte	$F5
	.byte	$00
	.byte	$FF
_loNTAddrTableCustomizeScreen:
	.byte	$0D
	.byte	$C4
	.byte	$CD
	.byte	$D6
	.byte	$0D
	.byte	$C4
_hiNTAddrTableCustomizeScreen:
	.byte	$21
	.byte	$21
	.byte	$21
	.byte	$21
	.byte	$21
	.byte	$21
_customizescreen:
	.byte	$03
	.byte	$02
	.byte	$03
	.byte	$3F
	.byte	$06
	.byte	$07
	.byte	$06
	.byte	$07
	.byte	$0F
	.byte	$FF
	.byte	$03
	.byte	$1A
	.byte	$08
	.byte	$09
	.byte	$08
	.byte	$09
	.byte	$FF
	.byte	$03
	.byte	$1B
	.byte	$06
	.byte	$07
	.byte	$0F
	.byte	$FF
	.byte	$03
	.byte	$05
	.byte	$E3
	.byte	$F5
	.byte	$F3
	.byte	$F4
	.byte	$EF
	.byte	$ED
	.byte	$E9
	.byte	$FA
	.byte	$E5
	.byte	$FF
	.byte	$E9
	.byte	$E3
	.byte	$EF
	.byte	$EE
	.byte	$FF
	.byte	$03
	.byte	$03
	.byte	$D0
	.byte	$A1
	.byte	$FF
	.byte	$03
	.byte	$02
	.byte	$08
	.byte	$09
	.byte	$FF
	.byte	$03
	.byte	$18
	.byte	$D0
	.byte	$A0
	.byte	$FF
	.byte	$03
	.byte	$02
	.byte	$0F
	.byte	$FF
	.byte	$03
	.byte	$2D
	.byte	$12
	.byte	$13
	.byte	$FF
	.byte	$03
	.byte	$1D
	.byte	$20
	.byte	$21
	.byte	$FF
	.byte	$03
	.byte	$1D
	.byte	$30
	.byte	$31
	.byte	$FF
	.byte	$03
	.byte	$1D
	.byte	$10
	.byte	$11
	.byte	$FF
	.byte	$03
	.byte	$54
	.byte	$12
	.byte	$13
	.byte	$FF
	.byte	$03
	.byte	$06
	.byte	$12
	.byte	$13
	.byte	$FF
	.byte	$03
	.byte	$06
	.byte	$12
	.byte	$13
	.byte	$FF
	.byte	$03
	.byte	$0B
	.byte	$48
	.byte	$49
	.byte	$FF
	.byte	$03
	.byte	$06
	.byte	$4A
	.byte	$4B
	.byte	$FF
	.byte	$03
	.byte	$06
	.byte	$4C
	.byte	$4D
	.byte	$FF
	.byte	$03
	.byte	$0B
	.byte	$58
	.byte	$59
	.byte	$FF
	.byte	$03
	.byte	$06
	.byte	$5A
	.byte	$5B
	.byte	$FF
	.byte	$03
	.byte	$06
	.byte	$5C
	.byte	$5D
	.byte	$FF
	.byte	$03
	.byte	$0B
	.byte	$10
	.byte	$11
	.byte	$FF
	.byte	$03
	.byte	$06
	.byte	$10
	.byte	$11
	.byte	$FF
	.byte	$03
	.byte	$06
	.byte	$10
	.byte	$11
	.byte	$FF
	.byte	$03
	.byte	$C5
	.byte	$0F
	.byte	$FF
	.byte	$03
	.byte	$1D
	.byte	$0F
	.byte	$06
	.byte	$07
	.byte	$FF
	.byte	$03
	.byte	$1B
	.byte	$06
	.byte	$07
	.byte	$08
	.byte	$09
	.byte	$0F
	.byte	$FF
	.byte	$03
	.byte	$03
	.byte	$F0
	.byte	$F2
	.byte	$E5
	.byte	$F3
	.byte	$F3
	.byte	$FF
	.byte	$E2
	.byte	$FF
	.byte	$F4
	.byte	$EF
	.byte	$FF
	.byte	$F2
	.byte	$E5
	.byte	$F4
	.byte	$F5
	.byte	$F2
	.byte	$EE
	.byte	$FF
	.byte	$03
	.byte	$04
	.byte	$0F
	.byte	$08
	.byte	$09
	.byte	$06
	.byte	$07
	.byte	$06
	.byte	$07
	.byte	$FF
	.byte	$03
	.byte	$17
	.byte	$06
	.byte	$07
	.byte	$06
	.byte	$07
	.byte	$08
	.byte	$09
	.byte	$08
	.byte	$09
	.byte	$0F
	.byte	$FF
	.byte	$03
	.byte	$15
	.byte	$0F
	.byte	$08
	.byte	$09
	.byte	$08
	.byte	$09
	.byte	$02
	.byte	$03
	.byte	$3F
	.byte	$D0
	.byte	$10
	.byte	$00
	.byte	$03
	.byte	$05
	.byte	$17
	.byte	$00
	.byte	$03
	.byte	$05
	.byte	$01
	.byte	$00
	.byte	$03
	.byte	$02
	.byte	$08
	.byte	$02
	.byte	$00
	.byte	$03
	.byte	$03
	.byte	$80
	.byte	$00
	.byte	$80
	.byte	$20
	.byte	$00
	.byte	$20
	.byte	$00
	.byte	$03
	.byte	$08
	.byte	$10
	.byte	$00
	.byte	$03
	.byte	$05
	.byte	$40
	.byte	$D7
	.byte	$10
	.byte	$00
	.byte	$03
	.byte	$03
	.byte	$40
	.byte	$7D
	.byte	$00
	.byte	$03
	.byte	$06
	.byte	$00
	.byte	$03
	.byte	$00
_loNTAddrTableTitleScreen:
	.byte	$69
	.byte	$6F
	.byte	$75
	.byte	$29
	.byte	$2F
	.byte	$35
	.byte	$3B
	.byte	$69
	.byte	$6F
_hiNTAddrTableTitleScreen:
	.byte	$21
	.byte	$21
	.byte	$21
	.byte	$22
	.byte	$22
	.byte	$22
	.byte	$20
	.byte	$21
	.byte	$21
_palsystem:
	.byte	$E6,$EF,$F2,$FF,$F0,$E1,$EC,$FF,$F3,$F9,$F3,$F4,$E5,$ED,$F3,$00
_BG_Table2:
	.byte	$11
	.byte	$12
	.byte	$13
	.byte	$14
	.byte	$15
	.byte	$16
	.byte	$17
	.byte	$18
	.byte	$19
	.byte	$1A
	.byte	$1B
	.byte	$1C
_G_Table2:
	.byte	$21
	.byte	$22
	.byte	$23
	.byte	$24
	.byte	$25
	.byte	$26
	.byte	$27
	.byte	$28
	.byte	$29
	.byte	$2A
	.byte	$2B
	.byte	$2C
_menu_irq_table:
	.byte	$B4
	.byte	$F5
	.byte	$00
	.byte	$FF
_UFO_Title_Jump_Table:
	.byte	$05
	.byte	$04
	.byte	$03
	.byte	$03
	.byte	$02
	.byte	$02
	.byte	$02
	.byte	$02
	.byte	$01
	.byte	$01
	.byte	$01
	.byte	$01
	.byte	$01
	.byte	$00
	.byte	$FF
	.byte	$FF
	.byte	$FF
	.byte	$FF
	.byte	$FF
	.byte	$FE
	.byte	$FE
	.byte	$FE
	.byte	$FE
	.byte	$FD
	.byte	$FD
	.byte	$FC
	.byte	$FB
_BALL_Title_Jump_Table:
	.byte	$01
	.byte	$01
	.byte	$01
	.byte	$02
	.byte	$02
	.byte	$03
	.byte	$03
	.byte	$04
_menu_color_table:
	.byte	$00
	.byte	$01
	.byte	$02
	.byte	$03
	.byte	$04
	.byte	$05
	.byte	$06
	.byte	$07
	.byte	$08
	.byte	$09
	.byte	$0A
	.byte	$0B
	.byte	$0C
	.byte	$0F
	.byte	$10
	.byte	$11
	.byte	$12
	.byte	$13
	.byte	$14
	.byte	$15
	.byte	$16
	.byte	$17
	.byte	$18
	.byte	$19
	.byte	$1A
	.byte	$1B
	.byte	$1C
	.byte	$20
	.byte	$21
	.byte	$22
	.byte	$23
	.byte	$24
	.byte	$25
	.byte	$26
	.byte	$27
	.byte	$28
	.byte	$29
	.byte	$2A
	.byte	$2B
	.byte	$2C
	.byte	$30
	.byte	$31
	.byte	$32
	.byte	$33
	.byte	$34
	.byte	$35
	.byte	$36
	.byte	$37
	.byte	$38
	.byte	$39
	.byte	$3A
	.byte	$3B
	.byte	$3C
_shipFrameTable:
	.byte	$21
	.byte	$21
	.byte	$25
	.byte	$29
	.byte	$2D
	.byte	$31
	.byte	$31
_robotFrameTable1:
	.byte	$01
	.byte	$FF
_robotFrameTable2:
	.byte	$03
	.byte	$07
	.byte	$0B
	.byte	$0D
	.byte	$01
	.byte	$07
	.byte	$0B
	.byte	$11
_robotFrameTable3:
	.byte	$05
	.byte	$09
	.byte	$05
	.byte	$09
	.byte	$03
	.byte	$09
	.byte	$0D
	.byte	$13
_spiderFrameTable1:
	.byte	$21
	.byte	$27
	.byte	$2D
	.byte	$FF
_spiderFrameTable2:
	.byte	$23
	.byte	$29
	.byte	$2F
	.byte	$33
_spiderFrameTable3:
	.byte	$25
	.byte	$2B
	.byte	$31
	.byte	$35
_swingFrameTable1:
	.byte	$31
	.byte	$35
_swingFrameTable2:
	.byte	$20
	.byte	$20
	.byte	$20
	.byte	$A0
_miniShipFrameTable:
	.byte	$01
	.byte	$01
	.byte	$03
	.byte	$05
	.byte	$07
	.byte	$09
	.byte	$09
_miniSwingFrameTable:
	.byte	$3F
	.byte	$1B
	.byte	$3F
	.byte	$3D
_mysteryFrameTable:
	.byte	$1D
	.byte	$7D
	.byte	$1F
	.byte	$7F
	.byte	$FF
.segment	"XCD_BANK_05"
_musicSoundTestString00:
	.byte	$CD,$CE,$BF,$CC,$BF,$C9,$FE
_musicSoundTestString01:
	.byte	$BC,$BB,$BD,$C5,$FE,$C9,$C8
_musicSoundTestString02:
	.byte	$BC,$BB,$CD,$BF,$FE,$BB,$C0,$CE,$BF,$CC
_musicSoundTestString03:
	.byte	$CE,$C2,$BF,$C9,$CC,$DE,$FE,$C9,$C0
_musicSoundTestString04:
	.byte	$BF,$C6,$BF,$BD,$CE,$CC,$C9,$C7,$BB,$C8
_musicSoundTestString05:
	.byte	$C2,$BF,$DD,$BB,$C1,$C9,$C8
_musicSoundTestString06:
	.byte	$BC,$C6,$BB,$CD,$CE
_musicSoundTestString07:
	.byte	$C1,$BF,$C9,$C7,$BF,$CE,$CC,$C3,$BD,$BB,$C6
_musicSoundTestString08:
	.byte	$CE,$C2,$BF
_musicSoundTestString09:
	.byte	$CD,$BD,$C2,$BF,$C7,$C3,$C8,$C1
_musicSoundTestString0A:
	.byte	$BB,$CE,$FE,$CE,$C2,$BF,$FE,$CD,$CA,$BF,$BF,$BE
_musicSoundTestString0B:
	.byte	$BF,$DD,$CE,$CC,$BB,$C9,$CC,$BE,$C3,$C8,$BB,$CC,$DE
_musicSoundTestString0C:
	.byte	$C1,$C9,$C6,$BE,$BF,$C8,$FE,$C2,$BB,$DF,$BF
_musicSoundTestString0D:
	.byte	$C1,$CC,$C9,$CF,$C8,$BE,$FE,$CE,$C9
_musicSoundTestString0E:
	.byte	$CC,$BB,$C3,$C8,$BC,$C9,$DC
_musicSoundTestString0F:
	.byte	$CD,$CE,$BB,$C6,$BF,$C7,$BB,$CE,$BF
_musicSoundTestString10:
	.byte	$C7,$BF,$C8,$CF
_musicSoundTestString11:
	.byte	$C7,$BB,$BE,$C8,$BF,$CD,$CD
_musicSoundTestString12:
	.byte	$CE,$CC,$BB,$BD,$C5
_musicSoundTestString13:
	.byte	$CA,$C9,$C6,$BB,$CC,$C1,$BF,$C3,$CD,$CE
_musicSoundTestString14:
	.byte	$BE,$CC,$DE,$FE,$C9,$CF,$CE
_musicSoundTestString15:
	.byte	$BC,$BB,$CD,$BF
_musicSoundTestString16:
	.byte	$BD,$BB,$C8,$CE,$FE,$C6,$BF,$CE,$FE,$C1,$C9
_musicSoundTestString17:
	.byte	$C4,$CF,$C7,$CA,$BF,$CC
_musicSoundTestString18:
	.byte	$CE,$C3,$C7,$BF,$FE,$C7,$BB,$BD,$C2,$C3,$C8,$BF
_musicSoundTestString19:
	.byte	$BD,$DE,$BD,$C6,$BF,$CD
_musicSoundTestString1A:
	.byte	$DD,$CD,$CE,$BF,$CA
_musicSoundTestString1B:
	.byte	$BD,$C6,$CF,$CE,$CE,$BF,$CC,$C0,$CF,$C8,$C5
_musicSoundTestString1C:
	.byte	$BF,$DB,$BF,$CC,$DE,$CE,$C2,$C3,$C8,$C1
_musicSoundTestString1D:
	.byte	$BB,$BE,$DB,$BF,$C8,$CE,$CF,$CC,$BF,$CD
_musicSoundTestString1E:
	.byte	$BD,$C6,$CF,$BC,$CD,$CE,$BF,$CA
_musicSoundTestString1F:
	.byte	$BF,$C6,$BF,$BD,$CE,$CC,$C9,$BE,$DE,$C8,$BB,$C7,$C3,$DD
_musicSoundTestString20:
	.byte	$C0,$C9,$CC,$BD,$BF
_musicSoundTestString21:
	.byte	$CA,$CC,$C9,$BD,$BF,$CD,$CD,$C3,$C8,$C1
_musicSoundTestString22:
	.byte	$BF,$DB,$BF,$CC,$DE,$CE,$C2,$C3,$C8,$C1,$FE,$B2
_musicSoundTestString23:
	.byte	$BE,$C9,$C7,$C3,$C8,$BB,$CE,$C9,$CC
_musicSoundTestString24:
	.byte	$BE,$BF,$BB,$BE,$C6,$C9,$BD,$C5,$BF,$BE
_musicSoundTestString25:
	.byte	$C0,$C3,$C8,$C1,$BF,$CC,$BE,$BB,$CD,$C2
_musicSoundTestString26:
	.byte	$BE,$BB,$CD,$C2
_musicSoundTestString27:
	.byte	$BE,$BF,$CD,$BF,$CC,$CE,$FE,$BD,$C3,$CE,$DE
_musicSoundTestString28:
	.byte	$BD,$C2,$BB,$C6,$C6,$BF,$C8,$C1,$BF
_musicSoundTestString29:
	.byte	$CA,$CC,$BB,$BD,$CE,$C3,$BD,$BF
_musicSoundTestString2A:
	.byte	$DC,$BF,$BB,$CD,$BF,$C6
_musicSoundTestString2B:
	.byte	$C9,$C0,$FE,$C6,$C3,$C1,$C2,$CE,$FE,$CA,$CE,$FE,$B1
_musicSoundTestString2C:
	.byte	$C9,$C0,$FE,$C6,$C3,$C1,$C2,$CE,$FE,$CA,$CE,$FE,$B2
_musicSoundTestString2D:
	.byte	$BF,$DD,$BD,$C3,$CE,$BF,$C7,$BF,$C8,$CE
_musicSoundTestString2E:
	.byte	$BD,$CF,$CE
_musicSoundTestString2F:
	.byte	$CD,$CA,$BB,$BD,$BF
_musicSoundTestString30:
	.byte	$C2,$BB,$CF,$C8,$CE,$BF,$BE,$FE,$DC,$C9,$C9,$BE,$CD
_musicSoundTestString31:
	.byte	$C3,$C8,$C0,$BF,$CC,$C8,$C9,$CA,$C6,$BF,$DD
_musicSoundTestString32:
	.byte	$C4,$CF,$CD,$CE,$FE,$CC,$C3,$C1,$C2,$CE
_musicSoundTestString33:
	.byte	$C7,$C3,$BE,$C8,$C3,$C1,$C2,$CE
_musicSoundTestString34:
	.byte	$CE,$DE,$C6,$BF,$C8,$C9,$C6
_musicSoundTestString35:
	.byte	$C1,$CC,$BF,$C3,$C0,$FE,$BD,$CF,$CE
_musicSoundTestString36:
	.byte	$CC,$C9,$BC,$CE,$C9,$CA
_musicSoundTestString37:
	.byte	$C0,$C9,$CC,$BF,$DB,$BF,$CC,$BC,$C9,$CF,$C8,$BE
_musicSoundTestString38:
	.byte	$BE,$C4,$DB,$C3
_musicSoundTestString39:
	.byte	$CD,$CE,$BF,$CA
_musicSoundTestString3A:
	.byte	$DC,$BB,$CE,$BF,$CC,$C0,$C6,$BB,$C7,$BF
_musicSoundTestString3B:
	.byte	$BE,$C4,$FE,$C8,$BB,$CE,$BF
_musicSoundTestString3C:
	.byte	$C0,$B7,$B7,$B7
_musicSoundTestString3D:
	.byte	$C7,$BE,$C5
_musicSoundTestString3E:
	.byte	$C5,$BF,$DB,$C3,$C8,$FE,$C7,$BB,$BD,$C6,$BF,$C9,$BE
_musicSoundTestString3F:
	.byte	$C9,$BD,$CF,$C6,$BB,$CC,$C8,$BF,$BC,$CF,$C6,$BB
_musicSoundTestString40:
	.byte	$BE,$C3,$C7,$CC,$BB,$C3,$C8,$B4,$B7
_musicSoundTestString41:
	.byte	$CD,$BF,$BB,$C1,$C6,$C9,$DC,$C3,$C8,$C1,$CA,$CC,$C9
_musicSoundTestString42:
	.byte	$BE,$BF,$CE,$C3,$C9,$CF,$CD,$C7,$CF,$CD,$C3,$BD
_musicSoundTestString43:
	.byte	$BE,$BB,$C8,$FE,$C2,$BB,$CC,$CC,$C3,$CD,$C9,$C8,$FE,$BC
_musicSoundTestString44:
	.byte	$BD,$C9,$CC,$C8,$BB,$C8,$BE,$BC,$BF,$BB,$C8,$CD
_musicSoundTestString45:
	.byte	$C5,$C3,$CE,$CD,$CF,$C8,$BF,$B2
_musicSoundTestString46:
	.byte	$C5,$BB,$DE,$C9,$CD,$DF,$DD
_xbgmtextsUpper:
	.word	$0000
	.addr	_musicSoundTestString00
	.addr	_musicSoundTestString01
	.word	$0000
	.word	$0000
	.addr	_musicSoundTestString02
	.word	$0000
	.word	$0000
	.word	$0000
	.word	$0000
	.word	$0000
	.word	$0000
	.addr	_musicSoundTestString03
	.addr	_musicSoundTestString04
	.word	$0000
	.word	$0000
	.addr	_musicSoundTestString05
	.addr	_musicSoundTestString06
	.addr	_musicSoundTestString03
	.addr	_musicSoundTestString07
	.word	$0000
	.word	$0000
	.word	$0000
	.word	$0000
	.addr	_musicSoundTestString08
	.word	$0000
	.addr	_musicSoundTestString09
	.addr	_musicSoundTestString0A
	.addr	_musicSoundTestString0A
	.addr	_musicSoundTestString0B
	.addr	_musicSoundTestString0C
	.addr	_musicSoundTestString0D
	.word	$0000
	.word	$0000
	.word	$0000
	.word	$0000
	.addr	_musicSoundTestString0E
	.addr	_musicSoundTestString0F
_xbgmtextsUpperSize:
	.byte	$00
	.byte	$07
	.byte	$07
	.byte	$00
	.byte	$00
	.byte	$0A
	.byte	$00
	.byte	$00
	.byte	$00
	.byte	$00
	.byte	$00
	.byte	$00
	.byte	$09
	.byte	$0A
	.byte	$00
	.byte	$00
	.byte	$07
	.byte	$05
	.byte	$09
	.byte	$0B
	.byte	$00
	.byte	$00
	.byte	$00
	.byte	$00
	.byte	$03
	.byte	$00
	.byte	$08
	.byte	$0C
	.byte	$0C
	.byte	$0D
	.byte	$0B
	.byte	$09
	.byte	$00
	.byte	$00
	.byte	$00
	.byte	$00
	.byte	$07
	.byte	$09
_xbgmtextsLower:
	.addr	_musicSoundTestString10
	.addr	_musicSoundTestString11
	.addr	_musicSoundTestString12
	.addr	_musicSoundTestString13
	.addr	_musicSoundTestString14
	.addr	_musicSoundTestString15
	.addr	_musicSoundTestString16
	.addr	_musicSoundTestString17
	.addr	_musicSoundTestString18
	.addr	_musicSoundTestString19
	.addr	_musicSoundTestString1A
	.addr	_musicSoundTestString1B
	.addr	_musicSoundTestString1C
	.addr	_musicSoundTestString1D
	.addr	_musicSoundTestString1E
	.addr	_musicSoundTestString1F
	.addr	_musicSoundTestString20
	.addr	_musicSoundTestString21
	.addr	_musicSoundTestString22
	.addr	_musicSoundTestString23
	.addr	_musicSoundTestString24
	.addr	_musicSoundTestString25
	.addr	_musicSoundTestString26
	.addr	_musicSoundTestString27
	.addr	_musicSoundTestString28
	.addr	_musicSoundTestString29
	.addr	_musicSoundTestString2A
	.addr	_musicSoundTestString2B
	.addr	_musicSoundTestString2C
	.addr	_musicSoundTestString2D
	.addr	_musicSoundTestString2E
	.addr	_musicSoundTestString2F
	.addr	_musicSoundTestString30
	.addr	_musicSoundTestString31
	.addr	_musicSoundTestString32
	.addr	_musicSoundTestString33
	.addr	_musicSoundTestString34
	.addr	_musicSoundTestString35
_xbgmtextsLowerSize:
	.byte	$04
	.byte	$07
	.byte	$05
	.byte	$0A
	.byte	$07
	.byte	$04
	.byte	$0B
	.byte	$06
	.byte	$0C
	.byte	$06
	.byte	$05
	.byte	$0B
	.byte	$0A
	.byte	$0A
	.byte	$08
	.byte	$0E
	.byte	$05
	.byte	$0A
	.byte	$0C
	.byte	$09
	.byte	$0A
	.byte	$0A
	.byte	$04
	.byte	$0B
	.byte	$09
	.byte	$08
	.byte	$06
	.byte	$0D
	.byte	$0D
	.byte	$0A
	.byte	$03
	.byte	$05
	.byte	$0D
	.byte	$0B
	.byte	$0A
	.byte	$08
	.byte	$07
	.byte	$09
_xbgmtextsOriginalArtist:
	.addr	_musicSoundTestString36
	.addr	_musicSoundTestString37
	.addr	_musicSoundTestString38
	.addr	_musicSoundTestString39
	.addr	_musicSoundTestString38
	.addr	_musicSoundTestString38
	.addr	_musicSoundTestString38
	.addr	_musicSoundTestString3A
	.addr	_musicSoundTestString3A
	.addr	_musicSoundTestString38
	.addr	_musicSoundTestString38
	.addr	_musicSoundTestString3A
	.addr	_musicSoundTestString3B
	.addr	_musicSoundTestString3A
	.addr	_musicSoundTestString3B
	.addr	_musicSoundTestString3B
	.addr	_musicSoundTestString3A
	.addr	_musicSoundTestString3A
	.addr	_musicSoundTestString3B
	.addr	_musicSoundTestString3A
	.addr	_musicSoundTestString3C
	.addr	_musicSoundTestString3D
	.addr	_musicSoundTestString3D
	.addr	_musicSoundTestString3E
	.addr	_musicSoundTestString36
	.addr	_musicSoundTestString3F
	.addr	_musicSoundTestString3E
	.addr	_musicSoundTestString40
	.addr	_musicSoundTestString40
	.addr	_musicSoundTestString41
	.addr	_musicSoundTestString42
	.addr	_musicSoundTestString41
	.addr	_musicSoundTestString3A
	.addr	_musicSoundTestString40
	.addr	_musicSoundTestString43
	.addr	_musicSoundTestString44
	.addr	_musicSoundTestString45
	.addr	_musicSoundTestString46
_xbgmtextsOriginalArtistSize:
	.byte	$06
	.byte	$0C
	.byte	$04
	.byte	$04
	.byte	$04
	.byte	$04
	.byte	$04
	.byte	$0A
	.byte	$0A
	.byte	$04
	.byte	$04
	.byte	$0A
	.byte	$07
	.byte	$0A
	.byte	$07
	.byte	$07
	.byte	$0A
	.byte	$0A
	.byte	$07
	.byte	$0A
	.byte	$04
	.byte	$03
	.byte	$03
	.byte	$0D
	.byte	$06
	.byte	$0C
	.byte	$0D
	.byte	$09
	.byte	$09
	.byte	$0D
	.byte	$0C
	.byte	$0D
	.byte	$0A
	.byte	$09
	.byte	$0E
	.byte	$0C
	.byte	$08
	.byte	$07
.segment	"RODATA"
_xbgmlookuptable:
	.byte	$0A
	.byte	$1F
	.byte	$17
	.byte	$05
	.byte	$20
	.byte	$13
	.byte	$10
	.byte	$24
	.byte	$06
	.byte	$1C
	.byte	$21
	.byte	$01
	.byte	$11
	.byte	$0B
	.byte	$18
	.byte	$0E
	.byte	$12
	.byte	$14
	.byte	$09
	.byte	$0C
	.byte	$15
	.byte	$07
	.byte	$02
	.byte	$0F
	.byte	$25
	.byte	$03
	.byte	$22
	.byte	$16
	.byte	$08
	.byte	$19
	.byte	$23
	.byte	$1A
	.byte	$00
	.byte	$04
	.byte	$1B
	.byte	$1D
	.byte	$0D
	.byte	$1E
.segment	"XCD_BANK_05"
_sfxSoundTestString00:
	.byte	$BE,$BF,$BB,$CE,$C2
_sfxSoundTestString01:
	.byte	$BD,$C6,$C3,$BD,$C5
_sfxSoundTestString02:
	.byte	$C6,$BF,$DB,$BF,$C6,$FE,$BD,$C9,$C7,$CA,$C6,$BF,$CE,$BF
_sfxSoundTestString03:
	.byte	$BD,$C9,$C3,$C8
_sfxSoundTestString04:
	.byte	$BD,$C2,$BF,$CD,$CE,$FE,$C9,$CA,$BF,$C8
_sfxSoundTestString05:
	.byte	$C9,$CC,$BC,$CD
_sfxSoundTestString06:
	.byte	$BE,$C3,$BB,$C7,$C9,$C8,$BE,$CD
_sfxSoundTestString07:
	.byte	$BF,$DD,$C3,$CE,$FE,$C6,$BF,$DB,$BF,$C6
_sfxSoundTestString08:
	.byte	$CD,$CE,$BB,$CC,$CE,$FE,$C6,$BF,$DB,$BF,$C6
_sfxSoundTestString09:
	.byte	$C3,$C8,$DB,$BB,$C6,$C3,$BE
_sfxSoundTestString0A:
	.byte	$BB,$BD,$C2,$C3,$BF,$DB,$BF,$C7,$BF,$C8,$CE,$FE,$C1,$BF,$CE
_sfxtexts:
	.addr	_sfxSoundTestString00
	.addr	_sfxSoundTestString01
	.addr	_sfxSoundTestString02
	.addr	_sfxSoundTestString03
	.addr	_sfxSoundTestString04
	.addr	_sfxSoundTestString05
	.addr	_sfxSoundTestString06
	.addr	_sfxSoundTestString07
	.addr	_sfxSoundTestString08
	.addr	_sfxSoundTestString09
	.addr	_sfxSoundTestString0A
_sfxtextSizes:
	.byte	$05
	.byte	$05
	.byte	$0E
	.byte	$04
	.byte	$0A
	.byte	$04
	.byte	$08
	.byte	$0A
	.byte	$0B
	.byte	$07
	.byte	$0F
_bgmtestscreen:
	.byte	$01
	.byte	$02
	.byte	$01
	.byte	$04
	.byte	$AE
	.byte	$02
	.byte	$01
	.byte	$13
	.byte	$AE
	.byte	$02
	.byte	$01
	.byte	$09
	.byte	$AF
	.byte	$02
	.byte	$01
	.byte	$13
	.byte	$AF
	.byte	$02
	.byte	$01
	.byte	$06
	.byte	$06
	.byte	$07
	.byte	$04
	.byte	$01
	.byte	$17
	.byte	$06
	.byte	$07
	.byte	$02
	.byte	$01
	.byte	$03
	.byte	$08
	.byte	$09
	.byte	$05
	.byte	$01
	.byte	$17
	.byte	$08
	.byte	$09
	.byte	$02
	.byte	$01
	.byte	$03
	.byte	$0C
	.byte	$FF
	.byte	$01
	.byte	$07
	.byte	$F3
	.byte	$EF
	.byte	$F5
	.byte	$EE
	.byte	$E4
	.byte	$FF
	.byte	$F4
	.byte	$E5
	.byte	$F3
	.byte	$F4
	.byte	$FF
	.byte	$01
	.byte	$07
	.byte	$0D
	.byte	$02
	.byte	$01
	.byte	$03
	.byte	$0C
	.byte	$FF
	.byte	$01
	.byte	$19
	.byte	$0D
	.byte	$02
	.byte	$01
	.byte	$03
	.byte	$0C
	.byte	$FF
	.byte	$01
	.byte	$09
	.byte	$ED
	.byte	$F5
	.byte	$F3
	.byte	$E9
	.byte	$E3
	.byte	$FF
	.byte	$01
	.byte	$0A
	.byte	$0D
	.byte	$02
	.byte	$01
	.byte	$03
	.byte	$0C
	.byte	$FF
	.byte	$01
	.byte	$03
	.byte	$5C
	.byte	$FE
	.byte	$01
	.byte	$0F
	.byte	$5D
	.byte	$FF
	.byte	$01
	.byte	$03
	.byte	$0D
	.byte	$02
	.byte	$01
	.byte	$03
	.byte	$0C
	.byte	$FF
	.byte	$FF
	.byte	$6E
	.byte	$FF
	.byte	$FE
	.byte	$01
	.byte	$11
	.byte	$FF
	.byte	$6F
	.byte	$FF
	.byte	$FF
	.byte	$0D
	.byte	$02
	.byte	$01
	.byte	$03
	.byte	$0C
	.byte	$FF
	.byte	$FF
	.byte	$7E
	.byte	$FF
	.byte	$FE
	.byte	$01
	.byte	$11
	.byte	$FF
	.byte	$7F
	.byte	$FF
	.byte	$FF
	.byte	$0D
	.byte	$02
	.byte	$01
	.byte	$03
	.byte	$0C
	.byte	$FF
	.byte	$01
	.byte	$03
	.byte	$6C
	.byte	$FE
	.byte	$01
	.byte	$0F
	.byte	$6D
	.byte	$FF
	.byte	$01
	.byte	$03
	.byte	$0D
	.byte	$02
	.byte	$01
	.byte	$03
	.byte	$0C
	.byte	$FF
	.byte	$01
	.byte	$19
	.byte	$0D
	.byte	$02
	.byte	$01
	.byte	$03
	.byte	$0C
	.byte	$FF
	.byte	$01
	.byte	$08
	.byte	$E1
	.byte	$F2
	.byte	$F4
	.byte	$E9
	.byte	$F3
	.byte	$F4
	.byte	$FF
	.byte	$01
	.byte	$0A
	.byte	$0D
	.byte	$02
	.byte	$01
	.byte	$03
	.byte	$0C
	.byte	$FF
	.byte	$01
	.byte	$03
	.byte	$5C
	.byte	$FE
	.byte	$01
	.byte	$0F
	.byte	$5D
	.byte	$FF
	.byte	$01
	.byte	$03
	.byte	$0D
	.byte	$02
	.byte	$01
	.byte	$03
	.byte	$0C
	.byte	$FF
	.byte	$01
	.byte	$03
	.byte	$FE
	.byte	$01
	.byte	$11
	.byte	$FF
	.byte	$01
	.byte	$03
	.byte	$0D
	.byte	$02
	.byte	$01
	.byte	$03
	.byte	$0C
	.byte	$FF
	.byte	$01
	.byte	$03
	.byte	$6C
	.byte	$FE
	.byte	$01
	.byte	$0F
	.byte	$6D
	.byte	$FF
	.byte	$01
	.byte	$03
	.byte	$0D
	.byte	$02
	.byte	$01
	.byte	$03
	.byte	$0C
	.byte	$FF
	.byte	$01
	.byte	$19
	.byte	$0D
	.byte	$02
	.byte	$01
	.byte	$03
	.byte	$0C
	.byte	$FF
	.byte	$01
	.byte	$09
	.byte	$F3
	.byte	$EF
	.byte	$F5
	.byte	$EE
	.byte	$E4
	.byte	$FF
	.byte	$01
	.byte	$0A
	.byte	$0D
	.byte	$02
	.byte	$01
	.byte	$03
	.byte	$0C
	.byte	$FF
	.byte	$01
	.byte	$03
	.byte	$5C
	.byte	$FE
	.byte	$01
	.byte	$0F
	.byte	$5D
	.byte	$FF
	.byte	$01
	.byte	$03
	.byte	$0D
	.byte	$02
	.byte	$01
	.byte	$03
	.byte	$0C
	.byte	$FF
	.byte	$FF
	.byte	$6E
	.byte	$FF
	.byte	$FE
	.byte	$01
	.byte	$11
	.byte	$FF
	.byte	$6F
	.byte	$FF
	.byte	$FF
	.byte	$0D
	.byte	$02
	.byte	$01
	.byte	$03
	.byte	$0C
	.byte	$FF
	.byte	$FF
	.byte	$7E
	.byte	$FF
	.byte	$FE
	.byte	$01
	.byte	$11
	.byte	$FF
	.byte	$7F
	.byte	$FF
	.byte	$FF
	.byte	$0D
	.byte	$02
	.byte	$01
	.byte	$03
	.byte	$0C
	.byte	$FF
	.byte	$01
	.byte	$03
	.byte	$6C
	.byte	$FE
	.byte	$01
	.byte	$0F
	.byte	$6D
	.byte	$FF
	.byte	$01
	.byte	$03
	.byte	$0D
	.byte	$02
	.byte	$01
	.byte	$03
	.byte	$0C
	.byte	$FF
	.byte	$01
	.byte	$19
	.byte	$0D
	.byte	$02
	.byte	$01
	.byte	$03
	.byte	$0C
	.byte	$FF
	.byte	$FF
	.byte	$F3
	.byte	$E5
	.byte	$EC
	.byte	$E5
	.byte	$E3
	.byte	$F4
	.byte	$E0
	.byte	$F3
	.byte	$E5
	.byte	$F4
	.byte	$FF
	.byte	$ED
	.byte	$E5
	.byte	$EE
	.byte	$F5
	.byte	$FF
	.byte	$ED
	.byte	$F5
	.byte	$F3
	.byte	$E9
	.byte	$E3
	.byte	$FF
	.byte	$01
	.byte	$02
	.byte	$0D
	.byte	$02
	.byte	$01
	.byte	$03
	.byte	$0C
	.byte	$FF
	.byte	$FF
	.byte	$F0
	.byte	$F2
	.byte	$E5
	.byte	$F3
	.byte	$F3
	.byte	$FF
	.byte	$E1
	.byte	$FF
	.byte	$F4
	.byte	$EF
	.byte	$FF
	.byte	$F0
	.byte	$EC
	.byte	$E1
	.byte	$F9
	.byte	$FF
	.byte	$E0
	.byte	$FF
	.byte	$F3
	.byte	$F4
	.byte	$EF
	.byte	$F0
	.byte	$FF
	.byte	$FF
	.byte	$0D
	.byte	$02
	.byte	$01
	.byte	$03
	.byte	$0C
	.byte	$FF
	.byte	$01
	.byte	$03
	.byte	$F0
	.byte	$F2
	.byte	$E5
	.byte	$F3
	.byte	$F3
	.byte	$FF
	.byte	$E2
	.byte	$FF
	.byte	$F4
	.byte	$EF
	.byte	$FF
	.byte	$F2
	.byte	$E5
	.byte	$F4
	.byte	$F5
	.byte	$F2
	.byte	$EE
	.byte	$FF
	.byte	$01
	.byte	$04
	.byte	$0D
	.byte	$02
	.byte	$01
	.byte	$03
	.byte	$0A
	.byte	$0B
	.byte	$04
	.byte	$01
	.byte	$09
	.byte	$06
	.byte	$0E
	.byte	$0E
	.byte	$07
	.byte	$04
	.byte	$01
	.byte	$09
	.byte	$0A
	.byte	$0B
	.byte	$02
	.byte	$01
	.byte	$05
	.byte	$05
	.byte	$01
	.byte	$09
	.byte	$08
	.byte	$05
	.byte	$05
	.byte	$09
	.byte	$05
	.byte	$01
	.byte	$09
	.byte	$02
	.byte	$01
	.byte	$43
	.byte	$FF
	.byte	$5C
	.byte	$5F
	.byte	$01
	.byte	$03
	.byte	$53
	.byte	$FF
	.byte	$77
	.byte	$00
	.byte	$01
	.byte	$05
	.byte	$DD
	.byte	$77
	.byte	$00
	.byte	$01
	.byte	$05
	.byte	$DD
	.byte	$77
	.byte	$00
	.byte	$01
	.byte	$05
	.byte	$DD
	.byte	$77
	.byte	$00
	.byte	$01
	.byte	$05
	.byte	$DD
	.byte	$77
	.byte	$00
	.byte	$01
	.byte	$05
	.byte	$DD
	.byte	$F7
	.byte	$50
	.byte	$50
	.byte	$D0
	.byte	$70
	.byte	$50
	.byte	$50
	.byte	$FD
	.byte	$0F
	.byte	$01
	.byte	$06
	.byte	$0F
	.byte	$01
	.byte	$00
.segment	"XCD_BANK_06"
_leveldone:
	.byte	$01
	.byte	$02
	.byte	$01
	.byte	$04
	.byte	$AE
	.byte	$02
	.byte	$01
	.byte	$13
	.byte	$AE
	.byte	$02
	.byte	$01
	.byte	$09
	.byte	$AF
	.byte	$02
	.byte	$01
	.byte	$13
	.byte	$AF
	.byte	$02
	.byte	$01
	.byte	$06
	.byte	$06
	.byte	$07
	.byte	$04
	.byte	$01
	.byte	$17
	.byte	$06
	.byte	$07
	.byte	$02
	.byte	$01
	.byte	$03
	.byte	$08
	.byte	$09
	.byte	$05
	.byte	$01
	.byte	$17
	.byte	$08
	.byte	$09
	.byte	$02
	.byte	$01
	.byte	$03
	.byte	$0C
	.byte	$FF
	.byte	$01
	.byte	$19
	.byte	$0D
	.byte	$02
	.byte	$01
	.byte	$03
	.byte	$0C
	.byte	$FF
	.byte	$01
	.byte	$19
	.byte	$0D
	.byte	$02
	.byte	$01
	.byte	$03
	.byte	$0C
	.byte	$FF
	.byte	$01
	.byte	$08
	.byte	$20
	.byte	$21
	.byte	$22
	.byte	$23
	.byte	$24
	.byte	$21
	.byte	$22
	.byte	$20
	.byte	$FF
	.byte	$01
	.byte	$08
	.byte	$0D
	.byte	$02
	.byte	$01
	.byte	$03
	.byte	$0C
	.byte	$FF
	.byte	$01
	.byte	$08
	.byte	$30
	.byte	$31
	.byte	$32
	.byte	$33
	.byte	$34
	.byte	$31
	.byte	$32
	.byte	$30
	.byte	$FF
	.byte	$01
	.byte	$08
	.byte	$0D
	.byte	$02
	.byte	$01
	.byte	$03
	.byte	$0C
	.byte	$FF
	.byte	$01
	.byte	$08
	.byte	$40
	.byte	$41
	.byte	$42
	.byte	$43
	.byte	$44
	.byte	$41
	.byte	$42
	.byte	$40
	.byte	$FF
	.byte	$01
	.byte	$08
	.byte	$0D
	.byte	$02
	.byte	$01
	.byte	$03
	.byte	$0C
	.byte	$FF
	.byte	$01
	.byte	$03
	.byte	$21
	.byte	$26
	.byte	$27
	.byte	$28
	.byte	$29
	.byte	$2A
	.byte	$2B
	.byte	$2C
	.byte	$2D
	.byte	$20
	.byte	$21
	.byte	$22
	.byte	$2E
	.byte	$2F
	.byte	$21
	.byte	$22
	.byte	$57
	.byte	$FF
	.byte	$01
	.byte	$04
	.byte	$0D
	.byte	$02
	.byte	$01
	.byte	$03
	.byte	$0C
	.byte	$FF
	.byte	$01
	.byte	$03
	.byte	$35
	.byte	$36
	.byte	$37
	.byte	$38
	.byte	$39
	.byte	$3A
	.byte	$3B
	.byte	$3C
	.byte	$3D
	.byte	$30
	.byte	$31
	.byte	$32
	.byte	$3E
	.byte	$3F
	.byte	$31
	.byte	$32
	.byte	$67
	.byte	$FF
	.byte	$01
	.byte	$04
	.byte	$0D
	.byte	$02
	.byte	$01
	.byte	$03
	.byte	$0C
	.byte	$FF
	.byte	$01
	.byte	$03
	.byte	$45
	.byte	$46
	.byte	$47
	.byte	$48
	.byte	$49
	.byte	$4A
	.byte	$4B
	.byte	$4C
	.byte	$FF
	.byte	$40
	.byte	$41
	.byte	$42
	.byte	$4E
	.byte	$4F
	.byte	$41
	.byte	$42
	.byte	$77
	.byte	$FF
	.byte	$01
	.byte	$04
	.byte	$0D
	.byte	$02
	.byte	$01
	.byte	$03
	.byte	$0C
	.byte	$FF
	.byte	$01
	.byte	$19
	.byte	$0D
	.byte	$02
	.byte	$01
	.byte	$03
	.byte	$0C
	.byte	$FF
	.byte	$01
	.byte	$05
	.byte	$E1
	.byte	$F4
	.byte	$F4
	.byte	$E5
	.byte	$ED
	.byte	$F0
	.byte	$F4
	.byte	$F3
	.byte	$16
	.byte	$FF
	.byte	$01
	.byte	$0A
	.byte	$0D
	.byte	$02
	.byte	$01
	.byte	$03
	.byte	$0C
	.byte	$FF
	.byte	$01
	.byte	$19
	.byte	$0D
	.byte	$02
	.byte	$01
	.byte	$03
	.byte	$0C
	.byte	$FF
	.byte	$01
	.byte	$07
	.byte	$EA
	.byte	$F5
	.byte	$ED
	.byte	$F0
	.byte	$F3
	.byte	$16
	.byte	$FF
	.byte	$01
	.byte	$0B
	.byte	$0D
	.byte	$02
	.byte	$01
	.byte	$03
	.byte	$0C
	.byte	$FF
	.byte	$01
	.byte	$19
	.byte	$0D
	.byte	$02
	.byte	$01
	.byte	$03
	.byte	$0C
	.byte	$FF
	.byte	$01
	.byte	$19
	.byte	$0D
	.byte	$02
	.byte	$01
	.byte	$03
	.byte	$0C
	.byte	$FF
	.byte	$01
	.byte	$07
	.byte	$92
	.byte	$93
	.byte	$FF
	.byte	$FF
	.byte	$92
	.byte	$93
	.byte	$FF
	.byte	$FF
	.byte	$92
	.byte	$93
	.byte	$FF
	.byte	$01
	.byte	$07
	.byte	$0D
	.byte	$02
	.byte	$01
	.byte	$03
	.byte	$0C
	.byte	$FF
	.byte	$01
	.byte	$07
	.byte	$A2
	.byte	$A3
	.byte	$FF
	.byte	$FF
	.byte	$A2
	.byte	$A3
	.byte	$FF
	.byte	$FF
	.byte	$A2
	.byte	$A3
	.byte	$FF
	.byte	$01
	.byte	$07
	.byte	$0D
	.byte	$02
	.byte	$01
	.byte	$03
	.byte	$0C
	.byte	$FF
	.byte	$01
	.byte	$19
	.byte	$0D
	.byte	$02
	.byte	$01
	.byte	$03
	.byte	$0C
	.byte	$FF
	.byte	$01
	.byte	$19
	.byte	$0D
	.byte	$02
	.byte	$01
	.byte	$03
	.byte	$0C
	.byte	$FF
	.byte	$01
	.byte	$19
	.byte	$0D
	.byte	$02
	.byte	$01
	.byte	$03
	.byte	$0C
	.byte	$FF
	.byte	$01
	.byte	$19
	.byte	$0D
	.byte	$02
	.byte	$01
	.byte	$03
	.byte	$0C
	.byte	$FF
	.byte	$01
	.byte	$19
	.byte	$0D
	.byte	$02
	.byte	$01
	.byte	$03
	.byte	$0C
	.byte	$FF
	.byte	$01
	.byte	$03
	.byte	$A4
	.byte	$A5
	.byte	$A6
	.byte	$A7
	.byte	$FF
	.byte	$01
	.byte	$09
	.byte	$A4
	.byte	$A5
	.byte	$A6
	.byte	$A7
	.byte	$FF
	.byte	$01
	.byte	$03
	.byte	$0D
	.byte	$02
	.byte	$01
	.byte	$03
	.byte	$0A
	.byte	$0B
	.byte	$04
	.byte	$01
	.byte	$02
	.byte	$9C
	.byte	$9A
	.byte	$9B
	.byte	$9D
	.byte	$04
	.byte	$01
	.byte	$02
	.byte	$06
	.byte	$0E
	.byte	$0E
	.byte	$07
	.byte	$04
	.byte	$01
	.byte	$02
	.byte	$9C
	.byte	$98
	.byte	$99
	.byte	$9D
	.byte	$04
	.byte	$01
	.byte	$02
	.byte	$0A
	.byte	$0B
	.byte	$02
	.byte	$01
	.byte	$05
	.byte	$05
	.byte	$01
	.byte	$02
	.byte	$AC
	.byte	$AA
	.byte	$AB
	.byte	$AD
	.byte	$05
	.byte	$01
	.byte	$02
	.byte	$08
	.byte	$05
	.byte	$05
	.byte	$09
	.byte	$05
	.byte	$01
	.byte	$02
	.byte	$AC
	.byte	$A8
	.byte	$A9
	.byte	$AD
	.byte	$05
	.byte	$01
	.byte	$02
	.byte	$02
	.byte	$01
	.byte	$0A
	.byte	$84
	.byte	$85
	.byte	$86
	.byte	$87
	.byte	$02
	.byte	$01
	.byte	$09
	.byte	$84
	.byte	$85
	.byte	$86
	.byte	$87
	.byte	$02
	.byte	$01
	.byte	$26
	.byte	$FF
	.byte	$5C
	.byte	$5F
	.byte	$01
	.byte	$03
	.byte	$53
	.byte	$FF
	.byte	$77
	.byte	$00
	.byte	$00
	.byte	$50
	.byte	$50
	.byte	$00
	.byte	$00
	.byte	$DD
	.byte	$77
	.byte	$44
	.byte	$55
	.byte	$01
	.byte	$03
	.byte	$00
	.byte	$DD
	.byte	$77
	.byte	$00
	.byte	$01
	.byte	$05
	.byte	$DD
	.byte	$77
	.byte	$00
	.byte	$40
	.byte	$50
	.byte	$50
	.byte	$10
	.byte	$00
	.byte	$DD
	.byte	$77
	.byte	$00
	.byte	$01
	.byte	$05
	.byte	$DD
	.byte	$F7
	.byte	$54
	.byte	$65
	.byte	$D0
	.byte	$70
	.byte	$95
	.byte	$51
	.byte	$FD
	.byte	$FF
	.byte	$F7
	.byte	$F5
	.byte	$FF
	.byte	$FF
	.byte	$F5
	.byte	$FD
	.byte	$FF
	.byte	$01
	.byte	$00
_practicedone:
	.byte	$01
	.byte	$02
	.byte	$01
	.byte	$04
	.byte	$AE
	.byte	$02
	.byte	$01
	.byte	$13
	.byte	$AE
	.byte	$02
	.byte	$01
	.byte	$09
	.byte	$AF
	.byte	$02
	.byte	$01
	.byte	$13
	.byte	$AF
	.byte	$02
	.byte	$01
	.byte	$06
	.byte	$06
	.byte	$07
	.byte	$04
	.byte	$01
	.byte	$17
	.byte	$06
	.byte	$07
	.byte	$02
	.byte	$01
	.byte	$03
	.byte	$08
	.byte	$09
	.byte	$05
	.byte	$01
	.byte	$17
	.byte	$08
	.byte	$09
	.byte	$02
	.byte	$01
	.byte	$03
	.byte	$0C
	.byte	$FF
	.byte	$01
	.byte	$19
	.byte	$0D
	.byte	$02
	.byte	$01
	.byte	$03
	.byte	$0C
	.byte	$FF
	.byte	$01
	.byte	$19
	.byte	$0D
	.byte	$02
	.byte	$01
	.byte	$03
	.byte	$0C
	.byte	$FF
	.byte	$01
	.byte	$04
	.byte	$2C
	.byte	$2D
	.byte	$2C
	.byte	$2D
	.byte	$52
	.byte	$53
	.byte	$21
	.byte	$26
	.byte	$2E
	.byte	$2F
	.byte	$54
	.byte	$21
	.byte	$26
	.byte	$21
	.byte	$22
	.byte	$FF
	.byte	$01
	.byte	$05
	.byte	$0D
	.byte	$02
	.byte	$01
	.byte	$03
	.byte	$0C
	.byte	$FF
	.byte	$01
	.byte	$04
	.byte	$3C
	.byte	$3D
	.byte	$50
	.byte	$51
	.byte	$62
	.byte	$63
	.byte	$35
	.byte	$36
	.byte	$3E
	.byte	$3F
	.byte	$64
	.byte	$35
	.byte	$36
	.byte	$31
	.byte	$32
	.byte	$FF
	.byte	$01
	.byte	$05
	.byte	$0D
	.byte	$02
	.byte	$01
	.byte	$03
	.byte	$0C
	.byte	$FF
	.byte	$01
	.byte	$04
	.byte	$4C
	.byte	$FF
	.byte	$60
	.byte	$61
	.byte	$60
	.byte	$73
	.byte	$45
	.byte	$46
	.byte	$4E
	.byte	$4F
	.byte	$74
	.byte	$45
	.byte	$46
	.byte	$41
	.byte	$42
	.byte	$FF
	.byte	$01
	.byte	$05
	.byte	$0D
	.byte	$02
	.byte	$01
	.byte	$03
	.byte	$0C
	.byte	$FF
	.byte	$01
	.byte	$03
	.byte	$21
	.byte	$26
	.byte	$27
	.byte	$28
	.byte	$29
	.byte	$2A
	.byte	$2B
	.byte	$2C
	.byte	$2D
	.byte	$20
	.byte	$21
	.byte	$22
	.byte	$2E
	.byte	$2F
	.byte	$21
	.byte	$22
	.byte	$57
	.byte	$FF
	.byte	$01
	.byte	$04
	.byte	$0D
	.byte	$02
	.byte	$01
	.byte	$03
	.byte	$0C
	.byte	$FF
	.byte	$01
	.byte	$03
	.byte	$35
	.byte	$36
	.byte	$37
	.byte	$38
	.byte	$39
	.byte	$3A
	.byte	$3B
	.byte	$3C
	.byte	$3D
	.byte	$30
	.byte	$31
	.byte	$32
	.byte	$3E
	.byte	$3F
	.byte	$31
	.byte	$32
	.byte	$67
	.byte	$FF
	.byte	$01
	.byte	$04
	.byte	$0D
	.byte	$02
	.byte	$01
	.byte	$03
	.byte	$0C
	.byte	$FF
	.byte	$01
	.byte	$03
	.byte	$45
	.byte	$46
	.byte	$47
	.byte	$48
	.byte	$49
	.byte	$4A
	.byte	$4B
	.byte	$4C
	.byte	$FF
	.byte	$40
	.byte	$41
	.byte	$42
	.byte	$4E
	.byte	$4F
	.byte	$41
	.byte	$42
	.byte	$77
	.byte	$FF
	.byte	$01
	.byte	$04
	.byte	$0D
	.byte	$02
	.byte	$01
	.byte	$03
	.byte	$0C
	.byte	$FF
	.byte	$01
	.byte	$19
	.byte	$0D
	.byte	$02
	.byte	$01
	.byte	$03
	.byte	$0C
	.byte	$FF
	.byte	$01
	.byte	$05
	.byte	$E1
	.byte	$F4
	.byte	$F4
	.byte	$E5
	.byte	$ED
	.byte	$F0
	.byte	$F4
	.byte	$F3
	.byte	$16
	.byte	$FF
	.byte	$01
	.byte	$0A
	.byte	$0D
	.byte	$02
	.byte	$01
	.byte	$03
	.byte	$0C
	.byte	$FF
	.byte	$01
	.byte	$19
	.byte	$0D
	.byte	$02
	.byte	$01
	.byte	$03
	.byte	$0C
	.byte	$FF
	.byte	$01
	.byte	$07
	.byte	$EA
	.byte	$F5
	.byte	$ED
	.byte	$F0
	.byte	$F3
	.byte	$16
	.byte	$FF
	.byte	$01
	.byte	$0B
	.byte	$0D
	.byte	$02
	.byte	$01
	.byte	$03
	.byte	$0C
	.byte	$FF
	.byte	$01
	.byte	$19
	.byte	$0D
	.byte	$02
	.byte	$01
	.byte	$03
	.byte	$0C
	.byte	$FF
	.byte	$01
	.byte	$19
	.byte	$0D
	.byte	$02
	.byte	$01
	.byte	$03
	.byte	$0C
	.byte	$FF
	.byte	$01
	.byte	$07
	.byte	$92
	.byte	$93
	.byte	$FF
	.byte	$FF
	.byte	$92
	.byte	$93
	.byte	$FF
	.byte	$FF
	.byte	$92
	.byte	$93
	.byte	$FF
	.byte	$01
	.byte	$07
	.byte	$0D
	.byte	$02
	.byte	$01
	.byte	$03
	.byte	$0C
	.byte	$FF
	.byte	$01
	.byte	$07
	.byte	$A2
	.byte	$A3
	.byte	$FF
	.byte	$FF
	.byte	$A2
	.byte	$A3
	.byte	$FF
	.byte	$FF
	.byte	$A2
	.byte	$A3
	.byte	$FF
	.byte	$01
	.byte	$07
	.byte	$0D
	.byte	$02
	.byte	$01
	.byte	$03
	.byte	$0C
	.byte	$FF
	.byte	$01
	.byte	$19
	.byte	$0D
	.byte	$02
	.byte	$01
	.byte	$03
	.byte	$0C
	.byte	$FF
	.byte	$01
	.byte	$19
	.byte	$0D
	.byte	$02
	.byte	$01
	.byte	$03
	.byte	$0C
	.byte	$FF
	.byte	$01
	.byte	$19
	.byte	$0D
	.byte	$02
	.byte	$01
	.byte	$03
	.byte	$0C
	.byte	$FF
	.byte	$01
	.byte	$19
	.byte	$0D
	.byte	$02
	.byte	$01
	.byte	$03
	.byte	$0C
	.byte	$FF
	.byte	$01
	.byte	$19
	.byte	$0D
	.byte	$02
	.byte	$01
	.byte	$03
	.byte	$0C
	.byte	$FF
	.byte	$01
	.byte	$03
	.byte	$A4
	.byte	$A5
	.byte	$A6
	.byte	$A7
	.byte	$FF
	.byte	$01
	.byte	$09
	.byte	$A4
	.byte	$A5
	.byte	$A6
	.byte	$A7
	.byte	$FF
	.byte	$01
	.byte	$03
	.byte	$0D
	.byte	$02
	.byte	$01
	.byte	$03
	.byte	$0A
	.byte	$0B
	.byte	$04
	.byte	$01
	.byte	$02
	.byte	$9C
	.byte	$9A
	.byte	$9B
	.byte	$9D
	.byte	$04
	.byte	$01
	.byte	$02
	.byte	$06
	.byte	$0E
	.byte	$0E
	.byte	$07
	.byte	$04
	.byte	$01
	.byte	$02
	.byte	$9C
	.byte	$98
	.byte	$99
	.byte	$9D
	.byte	$04
	.byte	$01
	.byte	$02
	.byte	$0A
	.byte	$0B
	.byte	$02
	.byte	$01
	.byte	$05
	.byte	$05
	.byte	$01
	.byte	$02
	.byte	$AC
	.byte	$AA
	.byte	$AB
	.byte	$AD
	.byte	$05
	.byte	$01
	.byte	$02
	.byte	$08
	.byte	$05
	.byte	$05
	.byte	$09
	.byte	$05
	.byte	$01
	.byte	$02
	.byte	$AC
	.byte	$A8
	.byte	$A9
	.byte	$AD
	.byte	$05
	.byte	$01
	.byte	$02
	.byte	$02
	.byte	$01
	.byte	$0A
	.byte	$84
	.byte	$85
	.byte	$86
	.byte	$87
	.byte	$02
	.byte	$01
	.byte	$09
	.byte	$84
	.byte	$85
	.byte	$86
	.byte	$87
	.byte	$02
	.byte	$01
	.byte	$26
	.byte	$FF
	.byte	$5C
	.byte	$5F
	.byte	$01
	.byte	$03
	.byte	$53
	.byte	$FF
	.byte	$77
	.byte	$00
	.byte	$F0
	.byte	$01
	.byte	$03
	.byte	$00
	.byte	$DD
	.byte	$77
	.byte	$CC
	.byte	$FF
	.byte	$01
	.byte	$03
	.byte	$00
	.byte	$DD
	.byte	$77
	.byte	$00
	.byte	$01
	.byte	$05
	.byte	$DD
	.byte	$77
	.byte	$00
	.byte	$40
	.byte	$50
	.byte	$50
	.byte	$10
	.byte	$00
	.byte	$DD
	.byte	$77
	.byte	$00
	.byte	$01
	.byte	$05
	.byte	$DD
	.byte	$F7
	.byte	$54
	.byte	$65
	.byte	$D0
	.byte	$70
	.byte	$95
	.byte	$51
	.byte	$FD
	.byte	$FF
	.byte	$F7
	.byte	$F5
	.byte	$FF
	.byte	$FF
	.byte	$F5
	.byte	$FD
	.byte	$FF
	.byte	$01
	.byte	$00
_gameboytext1:
	.byte	$FE,$FE,$E7,$F2,$E5,$F9,$00
_gameboytext2:
	.byte	$FE,$FE,$FE,$F2,$E5,$E4,$00
_gameboytext3:
	.byte	$FE,$E7,$F2,$E5,$E5,$EE,$00
_gameboytext4:
	.byte	$FE,$FE,$E2,$EC,$F5,$E5,$00
_gameboytext5:
	.byte	$F9,$E5,$EC,$EC,$EF,$F7,$00
_gameboytext6:
	.byte	$F0,$F5,$F2,$F0,$EC,$E5,$00
_gameboytext7:
	.byte	$FE,$FE,$E3,$F9,$E1,$EE,$00
_gameboytext8:
	.byte	$FE,$FE,$E4,$E1,$F2,$EB,$00
_gameboytexts:
	.word	$0000
	.addr	_gameboytext1
	.addr	_gameboytext2
	.addr	_gameboytext3
	.addr	_gameboytext4
	.addr	_gameboytext5
	.addr	_gameboytext6
	.addr	_gameboytext7
	.addr	_gameboytext8
_gameboy_text_size:
	.byte	$00
	.byte	$06
	.byte	$06
	.byte	$06
	.byte	$06
	.byte	$06
	.byte	$06
	.byte	$06
	.byte	$06
_funsettingscreen:
	.byte	$01
	.byte	$02
	.byte	$01
	.byte	$04
	.byte	$AE
	.byte	$02
	.byte	$01
	.byte	$13
	.byte	$AE
	.byte	$02
	.byte	$01
	.byte	$09
	.byte	$AF
	.byte	$02
	.byte	$01
	.byte	$13
	.byte	$AF
	.byte	$02
	.byte	$01
	.byte	$06
	.byte	$06
	.byte	$07
	.byte	$04
	.byte	$01
	.byte	$17
	.byte	$06
	.byte	$07
	.byte	$02
	.byte	$01
	.byte	$03
	.byte	$08
	.byte	$09
	.byte	$05
	.byte	$01
	.byte	$17
	.byte	$08
	.byte	$09
	.byte	$02
	.byte	$01
	.byte	$03
	.byte	$0C
	.byte	$FF
	.byte	$01
	.byte	$06
	.byte	$E6
	.byte	$F5
	.byte	$EE
	.byte	$FF
	.byte	$F3
	.byte	$E5
	.byte	$F4
	.byte	$F4
	.byte	$E9
	.byte	$EE
	.byte	$E7
	.byte	$F3
	.byte	$FF
	.byte	$01
	.byte	$06
	.byte	$0D
	.byte	$02
	.byte	$01
	.byte	$03
	.byte	$0C
	.byte	$FF
	.byte	$01
	.byte	$02
	.byte	$7C
	.byte	$C3
	.byte	$C8
	.byte	$DB
	.byte	$C3
	.byte	$CD
	.byte	$C3
	.byte	$BC
	.byte	$C6
	.byte	$BF
	.byte	$02
	.byte	$C7
	.byte	$C9
	.byte	$BE
	.byte	$BF
	.byte	$02
	.byte	$01
	.byte	$04
	.byte	$0F
	.byte	$7D
	.byte	$FF
	.byte	$0D
	.byte	$02
	.byte	$01
	.byte	$03
	.byte	$0C
	.byte	$FF
	.byte	$01
	.byte	$19
	.byte	$0D
	.byte	$02
	.byte	$01
	.byte	$03
	.byte	$0C
	.byte	$FF
	.byte	$01
	.byte	$02
	.byte	$7C
	.byte	$CA
	.byte	$C6
	.byte	$BB
	.byte	$CE
	.byte	$C0
	.byte	$C9
	.byte	$CC
	.byte	$C7
	.byte	$BF
	.byte	$CC
	.byte	$02
	.byte	$C7
	.byte	$C9
	.byte	$BE
	.byte	$BF
	.byte	$02
	.byte	$01
	.byte	$03
	.byte	$0F
	.byte	$7D
	.byte	$FF
	.byte	$0D
	.byte	$02
	.byte	$01
	.byte	$03
	.byte	$0C
	.byte	$FF
	.byte	$01
	.byte	$19
	.byte	$0D
	.byte	$02
	.byte	$01
	.byte	$03
	.byte	$0C
	.byte	$FF
	.byte	$01
	.byte	$02
	.byte	$7C
	.byte	$CC
	.byte	$BF
	.byte	$CE
	.byte	$CC
	.byte	$C9
	.byte	$02
	.byte	$C7
	.byte	$C9
	.byte	$BE
	.byte	$BF
	.byte	$02
	.byte	$01
	.byte	$08
	.byte	$0F
	.byte	$7D
	.byte	$FF
	.byte	$0D
	.byte	$02
	.byte	$01
	.byte	$03
	.byte	$0C
	.byte	$FF
	.byte	$01
	.byte	$19
	.byte	$0D
	.byte	$02
	.byte	$01
	.byte	$03
	.byte	$0C
	.byte	$FF
	.byte	$01
	.byte	$02
	.byte	$7C
	.byte	$BE
	.byte	$C3
	.byte	$CD
	.byte	$BD
	.byte	$C9
	.byte	$02
	.byte	$C7
	.byte	$C9
	.byte	$BE
	.byte	$BF
	.byte	$02
	.byte	$01
	.byte	$08
	.byte	$0F
	.byte	$7D
	.byte	$FF
	.byte	$0D
	.byte	$02
	.byte	$01
	.byte	$03
	.byte	$0C
	.byte	$FF
	.byte	$01
	.byte	$19
	.byte	$0D
	.byte	$02
	.byte	$01
	.byte	$03
	.byte	$0C
	.byte	$FF
	.byte	$01
	.byte	$02
	.byte	$7C
	.byte	$BC
	.byte	$C6
	.byte	$C3
	.byte	$C8
	.byte	$BE
	.byte	$02
	.byte	$C7
	.byte	$C9
	.byte	$BE
	.byte	$BF
	.byte	$02
	.byte	$01
	.byte	$08
	.byte	$0F
	.byte	$7D
	.byte	$FF
	.byte	$0D
	.byte	$02
	.byte	$01
	.byte	$03
	.byte	$0C
	.byte	$FF
	.byte	$01
	.byte	$19
	.byte	$0D
	.byte	$02
	.byte	$01
	.byte	$03
	.byte	$0C
	.byte	$FF
	.byte	$01
	.byte	$02
	.byte	$7C
	.byte	$BD
	.byte	$BB
	.byte	$C7
	.byte	$FE
	.byte	$CD
	.byte	$BF
	.byte	$BF
	.byte	$CD
	.byte	$BB
	.byte	$DC
	.byte	$02
	.byte	$01
	.byte	$08
	.byte	$0F
	.byte	$7D
	.byte	$FF
	.byte	$0D
	.byte	$02
	.byte	$01
	.byte	$03
	.byte	$0C
	.byte	$FF
	.byte	$01
	.byte	$19
	.byte	$0D
	.byte	$02
	.byte	$01
	.byte	$03
	.byte	$0C
	.byte	$FF
	.byte	$01
	.byte	$02
	.byte	$7C
	.byte	$C1
	.byte	$BB
	.byte	$C7
	.byte	$BF
	.byte	$BC
	.byte	$C9
	.byte	$DE
	.byte	$02
	.byte	$C7
	.byte	$C9
	.byte	$BE
	.byte	$BF
	.byte	$02
	.byte	$01
	.byte	$06
	.byte	$0F
	.byte	$7D
	.byte	$FF
	.byte	$0D
	.byte	$02
	.byte	$01
	.byte	$03
	.byte	$0C
	.byte	$FF
	.byte	$01
	.byte	$19
	.byte	$0D
	.byte	$02
	.byte	$01
	.byte	$03
	.byte	$0C
	.byte	$FF
	.byte	$01
	.byte	$02
	.byte	$7C
	.byte	$BD
	.byte	$CF
	.byte	$CC
	.byte	$CD
	.byte	$BF
	.byte	$BE
	.byte	$02
	.byte	$C7
	.byte	$CF
	.byte	$CD
	.byte	$C3
	.byte	$BD
	.byte	$02
	.byte	$01
	.byte	$06
	.byte	$0F
	.byte	$7D
	.byte	$FF
	.byte	$0D
	.byte	$02
	.byte	$01
	.byte	$03
	.byte	$0C
	.byte	$FF
	.byte	$01
	.byte	$19
	.byte	$0D
	.byte	$02
	.byte	$01
	.byte	$03
	.byte	$0C
	.byte	$FF
	.byte	$01
	.byte	$02
	.byte	$7C
	.byte	$CA
	.byte	$CC
	.byte	$BB
	.byte	$BD
	.byte	$CE
	.byte	$C3
	.byte	$BD
	.byte	$BF
	.byte	$02
	.byte	$C7
	.byte	$CF
	.byte	$CD
	.byte	$C3
	.byte	$BD
	.byte	$02
	.byte	$CD
	.byte	$DE
	.byte	$C8
	.byte	$BD
	.byte	$0F
	.byte	$7D
	.byte	$FF
	.byte	$0D
	.byte	$02
	.byte	$01
	.byte	$03
	.byte	$0C
	.byte	$FF
	.byte	$01
	.byte	$19
	.byte	$0D
	.byte	$02
	.byte	$01
	.byte	$03
	.byte	$0C
	.byte	$FF
	.byte	$01
	.byte	$03
	.byte	$F0
	.byte	$F2
	.byte	$E5
	.byte	$F3
	.byte	$F3
	.byte	$FF
	.byte	$E1
	.byte	$FF
	.byte	$F4
	.byte	$EF
	.byte	$FF
	.byte	$F4
	.byte	$EF
	.byte	$E7
	.byte	$E7
	.byte	$EC
	.byte	$E5
	.byte	$FF
	.byte	$01
	.byte	$04
	.byte	$0D
	.byte	$02
	.byte	$01
	.byte	$03
	.byte	$0C
	.byte	$FF
	.byte	$F0
	.byte	$F2
	.byte	$E5
	.byte	$F3
	.byte	$F3
	.byte	$FF
	.byte	$E2
	.byte	$FF
	.byte	$F4
	.byte	$EF
	.byte	$FF
	.byte	$F3
	.byte	$E1
	.byte	$F6
	.byte	$E5
	.byte	$FF
	.byte	$E0
	.byte	$FF
	.byte	$F2
	.byte	$E5
	.byte	$F4
	.byte	$F5
	.byte	$F2
	.byte	$EE
	.byte	$FF
	.byte	$0D
	.byte	$02
	.byte	$01
	.byte	$03
	.byte	$0C
	.byte	$FF
	.byte	$01
	.byte	$19
	.byte	$0D
	.byte	$02
	.byte	$01
	.byte	$03
	.byte	$0A
	.byte	$0B
	.byte	$04
	.byte	$01
	.byte	$09
	.byte	$06
	.byte	$0E
	.byte	$0E
	.byte	$07
	.byte	$04
	.byte	$01
	.byte	$09
	.byte	$0A
	.byte	$0B
	.byte	$02
	.byte	$01
	.byte	$05
	.byte	$05
	.byte	$01
	.byte	$09
	.byte	$08
	.byte	$05
	.byte	$05
	.byte	$09
	.byte	$05
	.byte	$01
	.byte	$09
	.byte	$02
	.byte	$01
	.byte	$43
	.byte	$FF
	.byte	$5C
	.byte	$5F
	.byte	$01
	.byte	$03
	.byte	$53
	.byte	$FF
	.byte	$77
	.byte	$00
	.byte	$01
	.byte	$04
	.byte	$44
	.byte	$DD
	.byte	$77
	.byte	$00
	.byte	$01
	.byte	$04
	.byte	$04
	.byte	$DD
	.byte	$77
	.byte	$00
	.byte	$01
	.byte	$04
	.byte	$44
	.byte	$DD
	.byte	$77
	.byte	$00
	.byte	$01
	.byte	$04
	.byte	$40
	.byte	$DD
	.byte	$77
	.byte	$00
	.byte	$01
	.byte	$04
	.byte	$04
	.byte	$DD
	.byte	$F7
	.byte	$50
	.byte	$50
	.byte	$D0
	.byte	$70
	.byte	$50
	.byte	$50
	.byte	$FD
	.byte	$0F
	.byte	$01
	.byte	$06
	.byte	$0F
	.byte	$01
	.byte	$00
_levelText00:
	.byte	$CD,$CE,$BF,$CC,$BF,$C9,$FE
_levelText01:
	.byte	$BC,$BB,$BD,$C5,$FE,$C9,$C8
_levelText02:
	.byte	$BC,$BB,$CD,$BF,$FE,$BB,$C0,$CE,$BF,$CC
_levelText03:
	.byte	$CE,$C2,$BF,$C9,$CC,$DE,$FE,$C9,$C0
_levelText04:
	.byte	$BF,$C6,$BF,$BD,$CE,$CC,$C9,$C7,$BB,$C8
_levelText05:
	.byte	$C2,$BF,$DD,$BB,$C1,$C9,$C8
_levelText06:
	.byte	$BC,$C6,$BB,$CD,$CE
_levelText07:
	.byte	$C1,$BF,$C9,$C7,$BF,$CE,$CC,$C3,$BD,$BB,$C6
_levelText08:
	.byte	$CE,$C2,$BF
_levelText09:
	.byte	$BE,$C9,$CC,$BB,$BC,$BB,$BF
_levelText0A:
	.byte	$C1,$CC,$C9,$CF,$C8,$BE,$FE,$CE,$C9
_levelText0B:
	.byte	$C0,$CF,$C8,$C8,$DE,$C1,$BB,$C7,$BF
_levelText0C:
	.byte	$C6,$C9,$CD,$CE,$FE,$C3,$C8
_levelText0D:
	.byte	$BC,$C6,$C9,$C9,$BE,$BC,$BB,$CE,$C2
_levelText0E:
	.byte	$CC,$BB,$C3,$C8,$BC,$C9,$DC
_levelText0F:
	.byte	$BF,$DD,$CE,$CC,$BB,$C9,$CC,$BE,$C3,$C8,$BB,$CC,$DE
_levelText10:
	.byte	$CE,$C2,$BF,$FE,$C6,$C3,$C1,$C2,$CE,$C8,$C3,$C8,$C1
_levelText11:
	.byte	$C7,$BB,$BE,$C8,$BF,$CD,$CD
_levelText12:
	.byte	$CE,$CC,$BB,$BD,$C5
_levelText13:
	.byte	$CA,$C9,$C6,$BB,$CC,$C1,$BF,$C3,$CD,$CE
_levelText14:
	.byte	$BE,$CC,$DE,$FE,$C9,$CF,$CE
_levelText15:
	.byte	$BC,$BB,$CD,$BF
_levelText16:
	.byte	$BD,$BB,$C8,$CE,$FE,$C6,$BF,$CE,$FE,$C1,$C9
_levelText17:
	.byte	$C4,$CF,$C7,$CA,$BF,$CC
_levelText18:
	.byte	$CE,$C3,$C7,$BF,$FE,$C7,$BB,$BD,$C2,$C3,$C8,$BF
_levelText19:
	.byte	$BD,$DE,$BD,$C6,$BF,$CD
_levelText1A:
	.byte	$DD,$CD,$CE,$BF,$CA
_levelText1B:
	.byte	$BD,$C6,$CF,$CE,$CE,$BF,$CC,$C0,$CF,$C8,$C5
_levelText1C:
	.byte	$BF,$DB,$BF,$CC,$DE,$CE,$C2,$C3,$C8,$C1
_levelText1D:
	.byte	$BB,$BE,$DB,$BF,$C8,$CE,$CF,$CC,$BF,$CD
_levelText1E:
	.byte	$BD,$C6,$CF,$BC,$CD,$CE,$BF,$CA
_levelText1F:
	.byte	$FE,$BF,$C6,$BF,$BD,$CE,$CC,$C9,$BE,$DE,$C8,$BB,$C7,$C3,$DD
_levelText20:
	.byte	$C0,$C9,$CC,$BD,$BF
_levelText21:
	.byte	$CA,$CC,$C9,$BD,$BF,$CD,$CD,$C3,$C8,$C1
_levelText22:
	.byte	$BF,$DB,$BF,$CC,$DE,$CE,$C2,$C3,$C8,$C1,$FE,$B2
_levelText23:
	.byte	$BE,$C9,$C7,$C3,$C8,$BB,$CE,$C9,$CC
_levelText24:
	.byte	$BE,$BF,$BB,$BE,$C6,$C9,$BD,$C5,$BF,$BE
_levelText25:
	.byte	$C0,$C3,$C8,$C1,$BF,$CC,$BE,$BB,$CD,$C2
_levelText26:
	.byte	$BE,$BB,$CD,$C2
_levelText27:
	.byte	$CE,$C2,$BF,$FE,$CE,$C9,$DC,$BF,$CC
_levelText28:
	.byte	$CE,$C2,$BF,$FE,$CD,$BF,$DC,$BF,$CC,$CD
_levelText29:
	.byte	$BD,$C2,$BB,$C6,$C6,$BF,$C8,$C1,$BF
_levelText2A:
	.byte	$CC,$BF,$CE,$CC,$BB,$DE
_levelText2B:
	.byte	$C6,$BF,$DB,$BF,$C6,$FE,$BF,$BB,$CD,$DE
_levelText2C:
	.byte	$BC,$BB,$CD,$C3,$BD,$B4
_levelText2D:
	.byte	$BC,$BB,$CD,$C3,$BD,$B6
_levelText2E:
	.byte	$BE,$CC,$BF,$BB,$C7,$BF,$CC
_levelText2F:
	.byte	$CD,$CA,$BB,$BD,$BF
_levelText30:
	.byte	$CD,$CF,$BC,$DF,$BF,$CC,$C9
_levelText31:
	.byte	$C5,$BB,$CA,$CA,$BB,$BD,$C6,$DE,$CD,$C7
_levelText32:
	.byte	$CD,$CF,$C8,$CD,$C2,$C3,$C8,$BF
_levelText33:
	.byte	$CC,$BF,$DB,$C9,$C6,$CF,$CE,$C3,$C9,$C8
_levelText34:
	.byte	$C2,$C9,$C6,$C3,$BE,$BB,$DE
_levelText35:
	.byte	$CE,$C2,$BF,$FE,$DC,$C9,$C9,$BE,$CD
_levelText36:
	.byte	$BC,$CF,$CE,$FE,$C8,$C9
_levelText37:
	.byte	$CE,$DE,$C6,$BF,$C8,$C9,$C6
_levelText38:
	.byte	$C1,$CC,$BF,$C3,$C0
_levelText39:
	.byte	$BF,$DD,$BD,$C3,$CE,$BF,$C7,$BF,$C8,$CE
_levelText3A:
	.byte	$CC,$C9,$BB,$BE
_levelText3B:
	.byte	$CE,$C2,$BF,$FE,$C8,$C3,$C1,$C2,$CE,$C7,$BB,$CC,$BF
_levelText3C:
	.byte	$C0,$C3,$CC,$BF,$FE,$CE,$BF,$C7,$CA,$C6,$BF
_levelTextsUpper:
	.addr	_levelText00
	.addr	_levelText01
	.word	$0000
	.word	$0000
	.addr	_levelText02
	.word	$0000
	.word	$0000
	.word	$0000
	.word	$0000
	.word	$0000
	.word	$0000
	.addr	_levelText03
	.addr	_levelText04
	.word	$0000
	.word	$0000
	.addr	_levelText05
	.addr	_levelText06
	.addr	_levelText03
	.addr	_levelText07
	.word	$0000
	.word	$0000
	.word	$0000
	.word	$0000
	.word	$0000
	.addr	_levelText08
	.word	$0000
	.word	$0000
	.addr	_levelText09
	.addr	_levelText09
	.word	$0000
	.addr	_levelText0A
	.word	$0000
	.word	$0000
	.word	$0000
	.word	$0000
	.addr	_levelText0B
	.addr	_levelText0C
	.addr	_levelText0D
	.addr	_levelText0E
	.word	$0000
	.addr	_levelText0F
	.addr	_levelText10
	.word	$0000
	.word	$0000
_levelTextsUpperSize:
	.byte	$07
	.byte	$07
	.byte	$00
	.byte	$00
	.byte	$0A
	.byte	$00
	.byte	$00
	.byte	$00
	.byte	$00
	.byte	$00
	.byte	$00
	.byte	$09
	.byte	$0A
	.byte	$00
	.byte	$00
	.byte	$07
	.byte	$05
	.byte	$09
	.byte	$0B
	.byte	$00
	.byte	$00
	.byte	$00
	.byte	$00
	.byte	$00
	.byte	$03
	.byte	$00
	.byte	$00
	.byte	$07
	.byte	$07
	.byte	$00
	.byte	$09
	.byte	$00
	.byte	$00
	.byte	$00
	.byte	$00
	.byte	$09
	.byte	$07
	.byte	$09
	.byte	$07
	.byte	$00
	.byte	$0D
	.byte	$0D
	.byte	$00
	.byte	$00
_levelTextsLower:
	.addr	_levelText11
	.addr	_levelText12
	.addr	_levelText13
	.addr	_levelText14
	.addr	_levelText15
	.addr	_levelText16
	.addr	_levelText17
	.addr	_levelText18
	.addr	_levelText19
	.addr	_levelText1A
	.addr	_levelText1B
	.addr	_levelText1C
	.addr	_levelText1D
	.addr	_levelText1E
	.addr	_levelText1F
	.addr	_levelText20
	.addr	_levelText21
	.addr	_levelText22
	.addr	_levelText23
	.addr	_levelText24
	.addr	_levelText25
	.addr	_levelText26
	.addr	_levelText27
	.addr	_levelText28
	.addr	_levelText29
	.addr	_levelText2A
	.addr	_levelText2B
	.addr	_levelText2C
	.addr	_levelText2D
	.addr	_levelText2E
	.addr	_levelText2F
	.addr	_levelText30
	.addr	_levelText31
	.addr	_levelText32
	.addr	_levelText33
	.addr	_levelText34
	.addr	_levelText35
	.addr	_levelText36
	.addr	_levelText37
	.addr	_levelText38
	.addr	_levelText39
	.addr	_levelText3A
	.addr	_levelText3B
	.addr	_levelText3C
_levelTextsLowerSize:
	.byte	$07
	.byte	$05
	.byte	$0A
	.byte	$07
	.byte	$04
	.byte	$0B
	.byte	$06
	.byte	$0C
	.byte	$06
	.byte	$05
	.byte	$0B
	.byte	$0A
	.byte	$0A
	.byte	$08
	.byte	$0F
	.byte	$05
	.byte	$0A
	.byte	$0C
	.byte	$09
	.byte	$0A
	.byte	$0A
	.byte	$04
	.byte	$09
	.byte	$0A
	.byte	$09
	.byte	$06
	.byte	$0A
	.byte	$06
	.byte	$06
	.byte	$07
	.byte	$05
	.byte	$07
	.byte	$0A
	.byte	$08
	.byte	$0A
	.byte	$07
	.byte	$09
	.byte	$06
	.byte	$07
	.byte	$05
	.byte	$0A
	.byte	$04
	.byte	$0D
	.byte	$0B
_difficulty_pal_A:
	.byte	$21
	.byte	$2A
	.byte	$28
	.byte	$16
	.byte	$24
	.byte	$16
	.byte	$28
_difficulty_pal_B:
	.byte	$06
	.byte	$30
	.byte	$30
	.byte	$30
	.byte	$06
	.byte	$30
	.byte	$0F
_coin_counter:
	.byte	$0F,$0F,$0F
	.byte	$8F,$0F,$0F
	.byte	$0F,$8F,$0F
	.byte	$8F,$8F,$0F
	.byte	$0F,$0F,$8F
	.byte	$8F,$0F,$8F
	.byte	$0F,$8F,$8F
	.byte	$8F,$8F,$8F
.segment	"XCD_BANK_02"
_paletteSettings:
	.byte	$17
	.byte	$0F
	.byte	$10
	.byte	$30
	.byte	$11
	.byte	$0F
	.byte	$2A
	.byte	$3A
	.byte	$17
	.byte	$0F
	.byte	$16
	.byte	$26
	.byte	$17
	.byte	$0F
	.byte	$11
	.byte	$21
_palette_Credits:
	.byte	$0C
	.byte	$0F
	.byte	$10
	.byte	$30
	.byte	$0C
	.byte	$0F
	.byte	$2A
	.byte	$3A
	.byte	$0C
	.byte	$28
	.byte	$17
	.byte	$0F
	.byte	$0C
	.byte	$0F
	.byte	$0C
	.byte	$21
_settingscreen:
	.byte	$01
	.byte	$02
	.byte	$02
	.byte	$06
	.byte	$07
	.byte	$04
	.byte	$01
	.byte	$17
	.byte	$06
	.byte	$07
	.byte	$02
	.byte	$01
	.byte	$03
	.byte	$08
	.byte	$09
	.byte	$05
	.byte	$01
	.byte	$17
	.byte	$08
	.byte	$09
	.byte	$02
	.byte	$01
	.byte	$03
	.byte	$0C
	.byte	$FF
	.byte	$01
	.byte	$08
	.byte	$F3
	.byte	$E5
	.byte	$F4
	.byte	$F4
	.byte	$E9
	.byte	$EE
	.byte	$E7
	.byte	$F3
	.byte	$FF
	.byte	$01
	.byte	$08
	.byte	$0D
	.byte	$02
	.byte	$01
	.byte	$03
	.byte	$0C
	.byte	$FF
	.byte	$01
	.byte	$02
	.byte	$7C
	.byte	$B2
	.byte	$02
	.byte	$CA
	.byte	$C6
	.byte	$BB
	.byte	$DE
	.byte	$BF
	.byte	$CC
	.byte	$02
	.byte	$01
	.byte	$0A
	.byte	$0F
	.byte	$7D
	.byte	$FF
	.byte	$0D
	.byte	$02
	.byte	$01
	.byte	$03
	.byte	$0C
	.byte	$FF
	.byte	$01
	.byte	$19
	.byte	$0D
	.byte	$02
	.byte	$01
	.byte	$03
	.byte	$0C
	.byte	$FF
	.byte	$01
	.byte	$02
	.byte	$7C
	.byte	$CA
	.byte	$B1
	.byte	$02
	.byte	$BD
	.byte	$C9
	.byte	$C8
	.byte	$CE
	.byte	$CC
	.byte	$C9
	.byte	$C6
	.byte	$CD
	.byte	$02
	.byte	$CA
	.byte	$B2
	.byte	$02
	.byte	$01
	.byte	$04
	.byte	$0F
	.byte	$7D
	.byte	$FF
	.byte	$0D
	.byte	$02
	.byte	$01
	.byte	$03
	.byte	$0C
	.byte	$FF
	.byte	$01
	.byte	$19
	.byte	$0D
	.byte	$02
	.byte	$01
	.byte	$03
	.byte	$0C
	.byte	$FF
	.byte	$01
	.byte	$02
	.byte	$7C
	.byte	$CD
	.byte	$C9
	.byte	$CF
	.byte	$C8
	.byte	$BE
	.byte	$02
	.byte	$BF
	.byte	$C0
	.byte	$C0
	.byte	$BF
	.byte	$BD
	.byte	$CE
	.byte	$CD
	.byte	$02
	.byte	$01
	.byte	$05
	.byte	$0F
	.byte	$7D
	.byte	$FF
	.byte	$0D
	.byte	$02
	.byte	$01
	.byte	$03
	.byte	$0C
	.byte	$FF
	.byte	$01
	.byte	$19
	.byte	$0D
	.byte	$02
	.byte	$01
	.byte	$03
	.byte	$0C
	.byte	$FF
	.byte	$01
	.byte	$02
	.byte	$7C
	.byte	$C7
	.byte	$CF
	.byte	$CD
	.byte	$C3
	.byte	$BD
	.byte	$02
	.byte	$01
	.byte	$0D
	.byte	$0F
	.byte	$7D
	.byte	$FF
	.byte	$0D
	.byte	$02
	.byte	$01
	.byte	$03
	.byte	$0C
	.byte	$FF
	.byte	$01
	.byte	$19
	.byte	$0D
	.byte	$02
	.byte	$01
	.byte	$03
	.byte	$0C
	.byte	$FF
	.byte	$01
	.byte	$02
	.byte	$7C
	.byte	$BD
	.byte	$C6
	.byte	$C3
	.byte	$BD
	.byte	$C5
	.byte	$02
	.byte	$CD
	.byte	$C9
	.byte	$CF
	.byte	$C8
	.byte	$BE
	.byte	$02
	.byte	$01
	.byte	$07
	.byte	$0F
	.byte	$7D
	.byte	$FF
	.byte	$0D
	.byte	$02
	.byte	$01
	.byte	$03
	.byte	$0C
	.byte	$FF
	.byte	$01
	.byte	$19
	.byte	$0D
	.byte	$02
	.byte	$01
	.byte	$03
	.byte	$0C
	.byte	$FF
	.byte	$01
	.byte	$02
	.byte	$7C
	.byte	$DB
	.byte	$C3
	.byte	$CD
	.byte	$CF
	.byte	$BB
	.byte	$C6
	.byte	$02
	.byte	$BF
	.byte	$C0
	.byte	$C0
	.byte	$BF
	.byte	$BD
	.byte	$CE
	.byte	$CD
	.byte	$02
	.byte	$01
	.byte	$04
	.byte	$0F
	.byte	$7D
	.byte	$FF
	.byte	$0D
	.byte	$02
	.byte	$01
	.byte	$03
	.byte	$0C
	.byte	$FF
	.byte	$01
	.byte	$19
	.byte	$0D
	.byte	$02
	.byte	$01
	.byte	$03
	.byte	$0C
	.byte	$FF
	.byte	$01
	.byte	$02
	.byte	$7C
	.byte	$BF
	.byte	$DD
	.byte	$CE
	.byte	$CC
	.byte	$BB
	.byte	$02
	.byte	$CE
	.byte	$CC
	.byte	$BB
	.byte	$C3
	.byte	$C6
	.byte	$CD
	.byte	$02
	.byte	$01
	.byte	$06
	.byte	$0F
	.byte	$7D
	.byte	$FF
	.byte	$0D
	.byte	$02
	.byte	$01
	.byte	$03
	.byte	$0C
	.byte	$FF
	.byte	$01
	.byte	$19
	.byte	$0D
	.byte	$02
	.byte	$01
	.byte	$03
	.byte	$0C
	.byte	$FF
	.byte	$01
	.byte	$02
	.byte	$7C
	.byte	$BB
	.byte	$CF
	.byte	$CE
	.byte	$C9
	.byte	$02
	.byte	$BD
	.byte	$C2
	.byte	$BF
	.byte	$BD
	.byte	$C5
	.byte	$CA
	.byte	$C9
	.byte	$C3
	.byte	$C8
	.byte	$CE
	.byte	$CD
	.byte	$02
	.byte	$01
	.byte	$02
	.byte	$0F
	.byte	$7D
	.byte	$FF
	.byte	$0D
	.byte	$02
	.byte	$01
	.byte	$03
	.byte	$0C
	.byte	$FF
	.byte	$01
	.byte	$19
	.byte	$0D
	.byte	$02
	.byte	$01
	.byte	$03
	.byte	$0C
	.byte	$FF
	.byte	$01
	.byte	$02
	.byte	$7C
	.byte	$CF
	.byte	$C8
	.byte	$CD
	.byte	$CE
	.byte	$BB
	.byte	$BC
	.byte	$C6
	.byte	$BF
	.byte	$02
	.byte	$C0
	.byte	$CF
	.byte	$C6
	.byte	$C6
	.byte	$02
	.byte	$CD
	.byte	$CA
	.byte	$BF
	.byte	$BF
	.byte	$BE
	.byte	$0F
	.byte	$7D
	.byte	$FF
	.byte	$0D
	.byte	$02
	.byte	$01
	.byte	$03
	.byte	$0C
	.byte	$FF
	.byte	$01
	.byte	$19
	.byte	$0D
	.byte	$02
	.byte	$01
	.byte	$03
	.byte	$0C
	.byte	$FF
	.byte	$01
	.byte	$02
	.byte	$7C
	.byte	$DC
	.byte	$C3
	.byte	$CA
	.byte	$BF
	.byte	$02
	.byte	$CD
	.byte	$BB
	.byte	$DB
	.byte	$BF
	.byte	$02
	.byte	$01
	.byte	$0A
	.byte	$7D
	.byte	$FF
	.byte	$0D
	.byte	$02
	.byte	$01
	.byte	$03
	.byte	$0C
	.byte	$FF
	.byte	$01
	.byte	$0D
	.byte	$E1
	.byte	$FF
	.byte	$18
	.byte	$FF
	.byte	$F3
	.byte	$F4
	.byte	$E1
	.byte	$F2
	.byte	$F4
	.byte	$FF
	.byte	$01
	.byte	$02
	.byte	$0D
	.byte	$02
	.byte	$01
	.byte	$03
	.byte	$0C
	.byte	$FF
	.byte	$01
	.byte	$19
	.byte	$0D
	.byte	$02
	.byte	$01
	.byte	$03
	.byte	$0C
	.byte	$FF
	.byte	$F0
	.byte	$F2
	.byte	$E5
	.byte	$F3
	.byte	$F3
	.byte	$FF
	.byte	$E2
	.byte	$FF
	.byte	$F4
	.byte	$EF
	.byte	$FF
	.byte	$F3
	.byte	$E1
	.byte	$F6
	.byte	$E5
	.byte	$FF
	.byte	$E0
	.byte	$FF
	.byte	$F2
	.byte	$E5
	.byte	$F4
	.byte	$F5
	.byte	$F2
	.byte	$EE
	.byte	$FF
	.byte	$0D
	.byte	$02
	.byte	$01
	.byte	$03
	.byte	$0C
	.byte	$FF
	.byte	$01
	.byte	$19
	.byte	$0D
	.byte	$02
	.byte	$01
	.byte	$03
	.byte	$0A
	.byte	$0B
	.byte	$04
	.byte	$01
	.byte	$09
	.byte	$06
	.byte	$0E
	.byte	$0E
	.byte	$07
	.byte	$04
	.byte	$01
	.byte	$09
	.byte	$0A
	.byte	$0B
	.byte	$02
	.byte	$01
	.byte	$05
	.byte	$05
	.byte	$01
	.byte	$09
	.byte	$08
	.byte	$05
	.byte	$05
	.byte	$09
	.byte	$05
	.byte	$01
	.byte	$09
	.byte	$02
	.byte	$01
	.byte	$43
	.byte	$7F
	.byte	$05
	.byte	$01
	.byte	$04
	.byte	$45
	.byte	$DF
	.byte	$77
	.byte	$00
	.byte	$01
	.byte	$04
	.byte	$44
	.byte	$DD
	.byte	$77
	.byte	$00
	.byte	$01
	.byte	$04
	.byte	$44
	.byte	$DD
	.byte	$77
	.byte	$00
	.byte	$01
	.byte	$04
	.byte	$44
	.byte	$DD
	.byte	$77
	.byte	$00
	.byte	$01
	.byte	$04
	.byte	$40
	.byte	$DD
	.byte	$77
	.byte	$08
	.byte	$0A
	.byte	$0A
	.byte	$00
	.byte	$00
	.byte	$40
	.byte	$DD
	.byte	$F7
	.byte	$50
	.byte	$50
	.byte	$D0
	.byte	$70
	.byte	$50
	.byte	$50
	.byte	$FD
	.byte	$0F
	.byte	$01
	.byte	$07
	.byte	$01
	.byte	$00
_Credits:
	.byte	$01
	.byte	$FE
	.byte	$01
	.byte	$3F
	.byte	$FF
	.byte	$01
	.byte	$27
	.byte	$20
	.byte	$21
	.byte	$22
	.byte	$23
	.byte	$24
	.byte	$25
	.byte	$26
	.byte	$27
	.byte	$28
	.byte	$29
	.byte	$22
	.byte	$23
	.byte	$22
	.byte	$2B
	.byte	$2C
	.byte	$2C
	.byte	$FF
	.byte	$01
	.byte	$0F
	.byte	$30
	.byte	$31
	.byte	$32
	.byte	$33
	.byte	$34
	.byte	$35
	.byte	$36
	.byte	$37
	.byte	$38
	.byte	$39
	.byte	$32
	.byte	$33
	.byte	$3A
	.byte	$3B
	.byte	$3C
	.byte	$3D
	.byte	$FF
	.byte	$01
	.byte	$0F
	.byte	$40
	.byte	$FF
	.byte	$42
	.byte	$43
	.byte	$44
	.byte	$45
	.byte	$46
	.byte	$47
	.byte	$48
	.byte	$49
	.byte	$42
	.byte	$43
	.byte	$4A
	.byte	$4B
	.byte	$4C
	.byte	$4C
	.byte	$FF
	.byte	$01
	.byte	$2D
	.byte	$E1
	.byte	$EE
	.byte	$FF
	.byte	$F5
	.byte	$EE
	.byte	$EF
	.byte	$E6
	.byte	$E6
	.byte	$E9
	.byte	$E3
	.byte	$E9
	.byte	$E1
	.byte	$EC
	.byte	$FF
	.byte	$E4
	.byte	$E5
	.byte	$ED
	.byte	$E1
	.byte	$EB
	.byte	$E5
	.byte	$FF
	.byte	$01
	.byte	$0B
	.byte	$EF
	.byte	$E6
	.byte	$FF
	.byte	$E7
	.byte	$E5
	.byte	$EF
	.byte	$ED
	.byte	$E5
	.byte	$F4
	.byte	$F2
	.byte	$F9
	.byte	$FF
	.byte	$E4
	.byte	$E1
	.byte	$F3
	.byte	$E8
	.byte	$FF
	.byte	$E6
	.byte	$EF
	.byte	$F2
	.byte	$FF
	.byte	$01
	.byte	$0B
	.byte	$F4
	.byte	$E8
	.byte	$E5
	.byte	$FF
	.byte	$EE
	.byte	$E5
	.byte	$F3
	.byte	$FF
	.byte	$E2
	.byte	$F9
	.byte	$FF
	.byte	$F4
	.byte	$E6
	.byte	$E4
	.byte	$F3
	.byte	$EF
	.byte	$E6
	.byte	$F4
	.byte	$FF
	.byte	$01
	.byte	$2E
	.byte	$F4
	.byte	$EF
	.byte	$F0
	.byte	$FF
	.byte	$E3
	.byte	$EF
	.byte	$EE
	.byte	$F4
	.byte	$F2
	.byte	$E9
	.byte	$E2
	.byte	$F5
	.byte	$F4
	.byte	$EF
	.byte	$F2
	.byte	$F3
	.byte	$FF
	.byte	$01
	.byte	$2F
	.byte	$18
	.byte	$EB
	.byte	$E1
	.byte	$EE
	.byte	$E4
	.byte	$EF
	.byte	$F7
	.byte	$EF
	.byte	$EE
	.byte	$F4
	.byte	$F5
	.byte	$FF
	.byte	$01
	.byte	$14
	.byte	$18
	.byte	$F5
	.byte	$F3
	.byte	$E5
	.byte	$F2
	.byte	$F3
	.byte	$EE
	.byte	$E9
	.byte	$F0
	.byte	$E5
	.byte	$F2
	.byte	$FF
	.byte	$01
	.byte	$14
	.byte	$18
	.byte	$E1
	.byte	$EC
	.byte	$E5
	.byte	$F8
	.byte	$ED
	.byte	$F5
	.byte	$F3
	.byte	$E8
	.byte	$FF
	.byte	$01
	.byte	$16
	.byte	$18
	.byte	$E6
	.byte	$E9
	.byte	$E3
	.byte	$F5
	.byte	$F3
	.byte	$FF
	.byte	$E8
	.byte	$EF
	.byte	$F5
	.byte	$F3
	.byte	$E5
	.byte	$F0
	.byte	$EC
	.byte	$E1
	.byte	$EE
	.byte	$F4
	.byte	$FF
	.byte	$01
	.byte	$04
	.byte	$6F
	.byte	$6F
	.byte	$FF
	.byte	$01
	.byte	$07
	.byte	$18
	.byte	$E1
	.byte	$EC
	.byte	$E5
	.byte	$E6
	.byte	$F5
	.byte	$EE
	.byte	$EB
	.byte	$F9
	.byte	$FF
	.byte	$01
	.byte	$0C
	.byte	$7F
	.byte	$7F
	.byte	$FF
	.byte	$01
	.byte	$07
	.byte	$18
	.byte	$F3
	.byte	$E5
	.byte	$E1
	.byte	$E7
	.byte	$EC
	.byte	$EF
	.byte	$F7
	.byte	$E9
	.byte	$EE
	.byte	$E7
	.byte	$F0
	.byte	$F2
	.byte	$EF
	.byte	$FF
	.byte	$01
	.byte	$11
	.byte	$18
	.byte	$E5
	.byte	$EC
	.byte	$E1
	.byte	$EE
	.byte	$E7
	.byte	$E5
	.byte	$EC
	.byte	$D3
	.byte	$D7
	.byte	$D8
	.byte	$FF
	.byte	$01
	.byte	$14
	.byte	$18
	.byte	$EB
	.byte	$E1
	.byte	$F7
	.byte	$E1
	.byte	$E9
	.byte	$E9
	.byte	$E4
	.byte	$E1
	.byte	$F7
	.byte	$EE
	.byte	$FF
	.byte	$01
	.byte	$14
	.byte	$18
	.byte	$F6
	.byte	$E9
	.byte	$EB
	.byte	$F2
	.byte	$E9
	.byte	$EE
	.byte	$EF
	.byte	$F8
	.byte	$FF
	.byte	$01
	.byte	$16
	.byte	$18
	.byte	$E3
	.byte	$EC
	.byte	$EF
	.byte	$F5
	.byte	$E4
	.byte	$D5
	.byte	$D4
	.byte	$FF
	.byte	$01
	.byte	$58
	.byte	$E7
	.byte	$E5
	.byte	$EF
	.byte	$ED
	.byte	$E5
	.byte	$F4
	.byte	$F2
	.byte	$F9
	.byte	$FF
	.byte	$E4
	.byte	$E1
	.byte	$F3
	.byte	$E8
	.byte	$FF
	.byte	$E9
	.byte	$F3
	.byte	$FF
	.byte	$01
	.byte	$0E
	.byte	$1F
	.byte	$D2
	.byte	$D0
	.byte	$D1
	.byte	$D3
	.byte	$FF
	.byte	$F2
	.byte	$EF
	.byte	$E2
	.byte	$F4
	.byte	$EF
	.byte	$F0
	.byte	$FF
	.byte	$E7
	.byte	$E1
	.byte	$ED
	.byte	$E5
	.byte	$F3
	.byte	$FF
	.byte	$01
	.byte	$26
	.byte	$FE
	.byte	$01
	.byte	$3F
	.byte	$00
	.byte	$00
	.byte	$50
	.byte	$01
	.byte	$03
	.byte	$00
	.byte	$01
	.byte	$03
	.byte	$A5
	.byte	$01
	.byte	$02
	.byte	$05
	.byte	$00
	.byte	$01
	.byte	$24
	.byte	$A0
	.byte	$01
	.byte	$02
	.byte	$20
	.byte	$00
	.byte	$01
	.byte	$07
	.byte	$00
	.byte	$01
	.byte	$00
_Credits2:
	.byte	$01
	.byte	$FE
	.byte	$01
	.byte	$3F
	.byte	$FF
	.byte	$01
	.byte	$20
	.byte	$EF
	.byte	$F2
	.byte	$E9
	.byte	$E7
	.byte	$E9
	.byte	$EE
	.byte	$E1
	.byte	$EC
	.byte	$FF
	.byte	$01
	.byte	$08
	.byte	$E3
	.byte	$EF
	.byte	$EE
	.byte	$F4
	.byte	$F2
	.byte	$E9
	.byte	$E2
	.byte	$F5
	.byte	$F4
	.byte	$E9
	.byte	$EE
	.byte	$E7
	.byte	$FF
	.byte	$01
	.byte	$02
	.byte	$ED
	.byte	$F5
	.byte	$F3
	.byte	$E9
	.byte	$E3
	.byte	$FF
	.byte	$E3
	.byte	$F2
	.byte	$E5
	.byte	$E4
	.byte	$E9
	.byte	$F4
	.byte	$F3
	.byte	$FF
	.byte	$01
	.byte	$03
	.byte	$F0
	.byte	$F2
	.byte	$EF
	.byte	$E7
	.byte	$F2
	.byte	$E1
	.byte	$ED
	.byte	$ED
	.byte	$E5
	.byte	$F2
	.byte	$F3
	.byte	$FF
	.byte	$01
	.byte	$23
	.byte	$E6
	.byte	$EF
	.byte	$F2
	.byte	$E5
	.byte	$F6
	.byte	$E5
	.byte	$F2
	.byte	$E2
	.byte	$EF
	.byte	$F5
	.byte	$EE
	.byte	$E4
	.byte	$FF
	.byte	$01
	.byte	$04
	.byte	$EB
	.byte	$E1
	.byte	$EE
	.byte	$E4
	.byte	$EF
	.byte	$F7
	.byte	$EF
	.byte	$EE
	.byte	$F4
	.byte	$F5
	.byte	$FF
	.byte	$01
	.byte	$04
	.byte	$E4
	.byte	$EA
	.byte	$F6
	.byte	$E9
	.byte	$FF
	.byte	$01
	.byte	$0C
	.byte	$F5
	.byte	$F3
	.byte	$E5
	.byte	$F2
	.byte	$F3
	.byte	$EE
	.byte	$E9
	.byte	$F0
	.byte	$E5
	.byte	$F2
	.byte	$FF
	.byte	$01
	.byte	$04
	.byte	$F7
	.byte	$E1
	.byte	$F4
	.byte	$E5
	.byte	$F2
	.byte	$E6
	.byte	$EC
	.byte	$E1
	.byte	$ED
	.byte	$E5
	.byte	$FF
	.byte	$01
	.byte	$06
	.byte	$E1
	.byte	$EC
	.byte	$E5
	.byte	$F8
	.byte	$ED
	.byte	$F5
	.byte	$F3
	.byte	$E8
	.byte	$FF
	.byte	$01
	.byte	$06
	.byte	$E4
	.byte	$EA
	.byte	$18
	.byte	$EE
	.byte	$E1
	.byte	$F4
	.byte	$E5
	.byte	$FF
	.byte	$01
	.byte	$09
	.byte	$E1
	.byte	$EC
	.byte	$E5
	.byte	$E6
	.byte	$F5
	.byte	$EE
	.byte	$EB
	.byte	$F9
	.byte	$FF
	.byte	$01
	.byte	$06
	.byte	$E6
	.byte	$D7
	.byte	$01
	.byte	$02
	.byte	$FF
	.byte	$01
	.byte	$0C
	.byte	$EA
	.byte	$F2
	.byte	$EF
	.byte	$F7
	.byte	$E5
	.byte	$E2
	.byte	$EF
	.byte	$F9
	.byte	$FF
	.byte	$01
	.byte	$06
	.byte	$EF
	.byte	$E3
	.byte	$F5
	.byte	$EC
	.byte	$E1
	.byte	$F2
	.byte	$EE
	.byte	$E5
	.byte	$E2
	.byte	$F5
	.byte	$EC
	.byte	$E1
	.byte	$FF
	.byte	$01
	.byte	$04
	.byte	$E1
	.byte	$E1
	.byte	$F2
	.byte	$F4
	.byte	$D1
	.byte	$D2
	.byte	$D5
	.byte	$D6
	.byte	$FF
	.byte	$01
	.byte	$06
	.byte	$F3
	.byte	$E8
	.byte	$EB
	.byte	$18
	.byte	$ED
	.byte	$E4
	.byte	$EB
	.byte	$18
	.byte	$EE
	.byte	$EB
	.byte	$FF
	.byte	$01
	.byte	$15
	.byte	$E1
	.byte	$EE
	.byte	$E4
	.byte	$FF
	.byte	$ED
	.byte	$EF
	.byte	$F2
	.byte	$E5
	.byte	$FF
	.byte	$18
	.byte	$FF
	.byte	$F3
	.byte	$E5
	.byte	$E5
	.byte	$FF
	.byte	$ED
	.byte	$F5
	.byte	$F3
	.byte	$E9
	.byte	$E3
	.byte	$FF
	.byte	$01
	.byte	$16
	.byte	$F4
	.byte	$E5
	.byte	$F3
	.byte	$F4
	.byte	$FF
	.byte	$F3
	.byte	$E3
	.byte	$F2
	.byte	$E5
	.byte	$E5
	.byte	$EE
	.byte	$FF
	.byte	$01
	.byte	$09
	.byte	$EC
	.byte	$E5
	.byte	$F6
	.byte	$E5
	.byte	$EC
	.byte	$F3
	.byte	$FF
	.byte	$01
	.byte	$39
	.byte	$F3
	.byte	$E5
	.byte	$E1
	.byte	$E7
	.byte	$EC
	.byte	$EF
	.byte	$F7
	.byte	$E9
	.byte	$EE
	.byte	$E7
	.byte	$F0
	.byte	$F2
	.byte	$EF
	.byte	$FF
	.byte	$01
	.byte	$03
	.byte	$F5
	.byte	$F3
	.byte	$E5
	.byte	$F2
	.byte	$F3
	.byte	$EE
	.byte	$E9
	.byte	$F0
	.byte	$E5
	.byte	$F2
	.byte	$FF
	.byte	$01
	.byte	$04
	.byte	$EB
	.byte	$E1
	.byte	$F7
	.byte	$E1
	.byte	$E9
	.byte	$E9
	.byte	$E4
	.byte	$E1
	.byte	$F7
	.byte	$EE
	.byte	$FF
	.byte	$01
	.byte	$06
	.byte	$EB
	.byte	$E1
	.byte	$EE
	.byte	$E4
	.byte	$EF
	.byte	$F7
	.byte	$EF
	.byte	$EE
	.byte	$F4
	.byte	$F5
	.byte	$FF
	.byte	$01
	.byte	$04
	.byte	$E5
	.byte	$EC
	.byte	$E1
	.byte	$EE
	.byte	$E7
	.byte	$E5
	.byte	$EC
	.byte	$D3
	.byte	$D7
	.byte	$D8
	.byte	$FF
	.byte	$01
	.byte	$06
	.byte	$E3
	.byte	$EC
	.byte	$EF
	.byte	$F5
	.byte	$E4
	.byte	$D5
	.byte	$D4
	.byte	$FF
	.byte	$01
	.byte	$07
	.byte	$E6
	.byte	$E9
	.byte	$E3
	.byte	$F5
	.byte	$F3
	.byte	$FF
	.byte	$01
	.byte	$0B
	.byte	$E1
	.byte	$FA
	.byte	$F5
	.byte	$EC
	.byte	$E1
	.byte	$ED
	.byte	$E1
	.byte	$FA
	.byte	$E9
	.byte	$E7
	.byte	$E8
	.byte	$FF
	.byte	$01
	.byte	$03
	.byte	$E3
	.byte	$EC
	.byte	$E9
	.byte	$E3
	.byte	$EB
	.byte	$E5
	.byte	$F2
	.byte	$F4
	.byte	$F9
	.byte	$FF
	.byte	$01
	.byte	$07
	.byte	$F0
	.byte	$E1
	.byte	$F2
	.byte	$F1
	.byte	$F5
	.byte	$E5
	.byte	$EB
	.byte	$E1
	.byte	$E9
	.byte	$FA
	.byte	$E1
	.byte	$FF
	.byte	$01
	.byte	$03
	.byte	$E1
	.byte	$EC
	.byte	$E5
	.byte	$E6
	.byte	$F5
	.byte	$EE
	.byte	$EB
	.byte	$F9
	.byte	$FF
	.byte	$01
	.byte	$08
	.byte	$E3
	.byte	$F2
	.byte	$E1
	.byte	$E6
	.byte	$F4
	.byte	$F9
	.byte	$FF
	.byte	$EA
	.byte	$F5
	.byte	$ED
	.byte	$F0
	.byte	$E5
	.byte	$F2
	.byte	$FF
	.byte	$FF
	.byte	$F3
	.byte	$E3
	.byte	$F2
	.byte	$E1
	.byte	$F4
	.byte	$E3
	.byte	$E8
	.byte	$FF
	.byte	$01
	.byte	$09
	.byte	$EC
	.byte	$E5
	.byte	$ED
	.byte	$EF
	.byte	$EE
	.byte	$E1
	.byte	$E9
	.byte	$E4
	.byte	$FF
	.byte	$01
	.byte	$06
	.byte	$E2
	.byte	$E1
	.byte	$EE
	.byte	$E1
	.byte	$EE
	.byte	$E1
	.byte	$D6
	.byte	$D0
	.byte	$01
	.byte	$02
	.byte	$FF
	.byte	$01
	.byte	$06
	.byte	$EE
	.byte	$E5
	.byte	$F2
	.byte	$E4
	.byte	$E2
	.byte	$EF
	.byte	$F9
	.byte	$D6
	.byte	$D2
	.byte	$D8
	.byte	$FF
	.byte	$01
	.byte	$04
	.byte	$E2
	.byte	$E9
	.byte	$E7
	.byte	$E6
	.byte	$EC
	.byte	$EF
	.byte	$F0
	.byte	$F0
	.byte	$E1
	.byte	$D3
	.byte	$D8
	.byte	$D5
	.byte	$FF
	.byte	$01
	.byte	$04
	.byte	$E1
	.byte	$F2
	.byte	$E1
	.byte	$EE
	.byte	$E4
	.byte	$EF
	.byte	$ED
	.byte	$E4
	.byte	$F5
	.byte	$E4
	.byte	$E5
	.byte	$FF
	.byte	$01
	.byte	$03
	.byte	$F0
	.byte	$E1
	.byte	$F2
	.byte	$F1
	.byte	$F5
	.byte	$E5
	.byte	$EB
	.byte	$E1
	.byte	$E9
	.byte	$FA
	.byte	$E1
	.byte	$FF
	.byte	$01
	.byte	$02
	.byte	$5E
	.byte	$5F
	.byte	$FF
	.byte	$ED
	.byte	$F5
	.byte	$F4
	.byte	$E9
	.byte	$F8
	.byte	$EF
	.byte	$EC
	.byte	$E1
	.byte	$F8
	.byte	$FF
	.byte	$01
	.byte	$05
	.byte	$E1
	.byte	$E1
	.byte	$F2
	.byte	$EF
	.byte	$EE
	.byte	$FF
	.byte	$E3
	.byte	$E8
	.byte	$E5
	.byte	$EE
	.byte	$FF
	.byte	$01
	.byte	$03
	.byte	$5E
	.byte	$5F
	.byte	$FF
	.byte	$01
	.byte	$0E
	.byte	$FE
	.byte	$01
	.byte	$3F
	.byte	$A0
	.byte	$01
	.byte	$07
	.byte	$0A
	.byte	$01
	.byte	$02
	.byte	$02
	.byte	$08
	.byte	$0A
	.byte	$0A
	.byte	$02
	.byte	$00
	.byte	$01
	.byte	$03
	.byte	$02
	.byte	$00
	.byte	$01
	.byte	$02
	.byte	$A0
	.byte	$A0
	.byte	$00
	.byte	$AA
	.byte	$01
	.byte	$02
	.byte	$00
	.byte	$01
	.byte	$21
	.byte	$01
	.byte	$00
_Credits3:
	.byte	$01
	.byte	$FE
	.byte	$01
	.byte	$3F
	.byte	$FF
	.byte	$E3
	.byte	$EF
	.byte	$EE
	.byte	$F4
	.byte	$F2
	.byte	$E9
	.byte	$E2
	.byte	$F5
	.byte	$F4
	.byte	$E9
	.byte	$EE
	.byte	$E7
	.byte	$FF
	.byte	$01
	.byte	$04
	.byte	$E9
	.byte	$E3
	.byte	$EF
	.byte	$EE
	.byte	$F3
	.byte	$FF
	.byte	$E1
	.byte	$EE
	.byte	$E4
	.byte	$FF
	.byte	$01
	.byte	$05
	.byte	$ED
	.byte	$F5
	.byte	$F3
	.byte	$E9
	.byte	$E3
	.byte	$E9
	.byte	$E1
	.byte	$EE
	.byte	$F3
	.byte	$FF
	.byte	$01
	.byte	$07
	.byte	$E7
	.byte	$F2
	.byte	$E1
	.byte	$F0
	.byte	$E8
	.byte	$E9
	.byte	$E3
	.byte	$F3
	.byte	$FF
	.byte	$01
	.byte	$26
	.byte	$E5
	.byte	$EC
	.byte	$E1
	.byte	$EE
	.byte	$E7
	.byte	$E5
	.byte	$EC
	.byte	$D3
	.byte	$D7
	.byte	$D8
	.byte	$FF
	.byte	$01
	.byte	$06
	.byte	$FA
	.byte	$E5
	.byte	$E5
	.byte	$03
	.byte	$F3
	.byte	$E3
	.byte	$EF
	.byte	$F4
	.byte	$F4
	.byte	$FF
	.byte	$01
	.byte	$05
	.byte	$F6
	.byte	$E9
	.byte	$EB
	.byte	$F2
	.byte	$E9
	.byte	$EE
	.byte	$EF
	.byte	$F8
	.byte	$FF
	.byte	$01
	.byte	$08
	.byte	$E1
	.byte	$E4
	.byte	$F2
	.byte	$EC
	.byte	$F5
	.byte	$E3
	.byte	$D0
	.byte	$D9
	.byte	$D6
	.byte	$FF
	.byte	$01
	.byte	$05
	.byte	$E3
	.byte	$EC
	.byte	$EF
	.byte	$F5
	.byte	$E4
	.byte	$D5
	.byte	$D4
	.byte	$FF
	.byte	$01
	.byte	$09
	.byte	$E6
	.byte	$E9
	.byte	$E3
	.byte	$F5
	.byte	$F3
	.byte	$FF
	.byte	$01
	.byte	$09
	.byte	$F3
	.byte	$E5
	.byte	$E1
	.byte	$E7
	.byte	$EC
	.byte	$EF
	.byte	$F7
	.byte	$E9
	.byte	$EE
	.byte	$E7
	.byte	$F0
	.byte	$F2
	.byte	$EF
	.byte	$FF
	.byte	$01
	.byte	$03
	.byte	$E4
	.byte	$E4
	.byte	$B6
	.byte	$C2
	.byte	$E4
	.byte	$E4
	.byte	$FF
	.byte	$01
	.byte	$08
	.byte	$E3
	.byte	$F2
	.byte	$E1
	.byte	$E6
	.byte	$F4
	.byte	$F9
	.byte	$FF
	.byte	$EA
	.byte	$F5
	.byte	$ED
	.byte	$F0
	.byte	$E5
	.byte	$F2
	.byte	$FF
	.byte	$01
	.byte	$03
	.byte	$E2
	.byte	$E1
	.byte	$EE
	.byte	$E1
	.byte	$EE
	.byte	$E1
	.byte	$D6
	.byte	$D0
	.byte	$01
	.byte	$02
	.byte	$FF
	.byte	$01
	.byte	$04
	.byte	$F5
	.byte	$F3
	.byte	$E5
	.byte	$F2
	.byte	$F3
	.byte	$EE
	.byte	$E9
	.byte	$F0
	.byte	$E5
	.byte	$F2
	.byte	$FF
	.byte	$01
	.byte	$06
	.byte	$E1
	.byte	$EC
	.byte	$E5
	.byte	$E6
	.byte	$F5
	.byte	$EE
	.byte	$EB
	.byte	$F9
	.byte	$FF
	.byte	$01
	.byte	$06
	.byte	$E1
	.byte	$EC
	.byte	$E5
	.byte	$F8
	.byte	$ED
	.byte	$F5
	.byte	$F3
	.byte	$E8
	.byte	$FF
	.byte	$01
	.byte	$08
	.byte	$EC
	.byte	$E5
	.byte	$ED
	.byte	$EF
	.byte	$EE
	.byte	$E1
	.byte	$E9
	.byte	$E4
	.byte	$FF
	.byte	$01
	.byte	$06
	.byte	$FA
	.byte	$E5
	.byte	$EE
	.byte	$E9
	.byte	$F4
	.byte	$E8
	.byte	$D3
	.byte	$D0
	.byte	$D2
	.byte	$FF
	.byte	$01
	.byte	$07
	.byte	$E2
	.byte	$EC
	.byte	$E1
	.byte	$E3
	.byte	$E5
	.byte	$E3
	.byte	$E1
	.byte	$F0
	.byte	$F4
	.byte	$E1
	.byte	$E9
	.byte	$EE
	.byte	$EE
	.byte	$FF
	.byte	$FF
	.byte	$E1
	.byte	$F1
	.byte	$F5
	.byte	$E1
	.byte	$ED
	.byte	$E1
	.byte	$F2
	.byte	$E9
	.byte	$EE
	.byte	$E5
	.byte	$FF
	.byte	$01
	.byte	$06
	.byte	$F2
	.byte	$E5
	.byte	$E4
	.byte	$E7
	.byte	$E4
	.byte	$FF
	.byte	$01
	.byte	$09
	.byte	$EE
	.byte	$E5
	.byte	$F2
	.byte	$E4
	.byte	$E2
	.byte	$EF
	.byte	$F9
	.byte	$D6
	.byte	$D2
	.byte	$D8
	.byte	$FF
	.byte	$01
	.byte	$06
	.byte	$F0
	.byte	$F3
	.byte	$03
	.byte	$EC
	.byte	$EF
	.byte	$EC
	.byte	$FF
	.byte	$01
	.byte	$08
	.byte	$F3
	.byte	$F5
	.byte	$F3
	.byte	$F3
	.byte	$F9
	.byte	$F3
	.byte	$F9
	.byte	$FF
	.byte	$01
	.byte	$09
	.byte	$EE
	.byte	$EF
	.byte	$F4
	.byte	$E1
	.byte	$F0
	.byte	$EF
	.byte	$F4
	.byte	$E1
	.byte	$F4
	.byte	$EF
	.byte	$D6
	.byte	$D4
	.byte	$FF
	.byte	$01
	.byte	$02
	.byte	$E3
	.byte	$EC
	.byte	$E9
	.byte	$E3
	.byte	$EB
	.byte	$E5
	.byte	$F2
	.byte	$F4
	.byte	$F9
	.byte	$FF
	.byte	$01
	.byte	$07
	.byte	$E2
	.byte	$E9
	.byte	$E7
	.byte	$E6
	.byte	$EC
	.byte	$EF
	.byte	$F0
	.byte	$F0
	.byte	$E1
	.byte	$D3
	.byte	$D8
	.byte	$D5
	.byte	$FF
	.byte	$01
	.byte	$02
	.byte	$FA
	.byte	$F5
	.byte	$EB
	.byte	$E9
	.byte	$EE
	.byte	$EE
	.byte	$F9
	.byte	$EB
	.byte	$FF
	.byte	$01
	.byte	$08
	.byte	$EC
	.byte	$E5
	.byte	$F8
	.byte	$E9
	.byte	$FF
	.byte	$E2
	.byte	$E1
	.byte	$F4
	.byte	$E3
	.byte	$E8
	.byte	$FF
	.byte	$01
	.byte	$04
	.byte	$F2
	.byte	$E1
	.byte	$EE
	.byte	$E5
	.byte	$E4
	.byte	$EF
	.byte	$ED
	.byte	$FF
	.byte	$01
	.byte	$18
	.byte	$E4
	.byte	$F7
	.byte	$E5
	.byte	$E4
	.byte	$E9
	.byte	$F4
	.byte	$FF
	.byte	$01
	.byte	$19
	.byte	$EA
	.byte	$E1
	.byte	$E5
	.byte	$FA
	.byte	$F5
	.byte	$FF
	.byte	$01
	.byte	$1A
	.byte	$EB
	.byte	$E1
	.byte	$E2
	.byte	$E5
	.byte	$FA
	.byte	$FF
	.byte	$01
	.byte	$1A
	.byte	$E1
	.byte	$E2
	.byte	$F3
	.byte	$F4
	.byte	$F2
	.byte	$E1
	.byte	$E3
	.byte	$F4
	.byte	$FF
	.byte	$D6
	.byte	$D4
	.byte	$FF
	.byte	$01
	.byte	$B3
	.byte	$FE
	.byte	$01
	.byte	$3F
	.byte	$A0
	.byte	$01
	.byte	$02
	.byte	$20
	.byte	$80
	.byte	$A0
	.byte	$A0
	.byte	$00
	.byte	$01
	.byte	$0C
	.byte	$02
	.byte	$00
	.byte	$01
	.byte	$2A
	.byte	$01
	.byte	$00
_instructions:
	.byte	$04
	.byte	$FE
	.byte	$04
	.byte	$3F
	.byte	$FF
	.byte	$04
	.byte	$07
	.byte	$20
	.byte	$21
	.byte	$22
	.byte	$23
	.byte	$24
	.byte	$25
	.byte	$26
	.byte	$27
	.byte	$28
	.byte	$29
	.byte	$22
	.byte	$23
	.byte	$22
	.byte	$2B
	.byte	$2C
	.byte	$2C
	.byte	$FF
	.byte	$04
	.byte	$0F
	.byte	$30
	.byte	$31
	.byte	$32
	.byte	$33
	.byte	$34
	.byte	$35
	.byte	$36
	.byte	$37
	.byte	$38
	.byte	$39
	.byte	$32
	.byte	$33
	.byte	$3A
	.byte	$3B
	.byte	$3C
	.byte	$3D
	.byte	$FF
	.byte	$04
	.byte	$0F
	.byte	$40
	.byte	$FF
	.byte	$42
	.byte	$43
	.byte	$44
	.byte	$45
	.byte	$46
	.byte	$47
	.byte	$48
	.byte	$49
	.byte	$42
	.byte	$43
	.byte	$4A
	.byte	$4B
	.byte	$4C
	.byte	$4C
	.byte	$FF
	.byte	$04
	.byte	$28
	.byte	$E1
	.byte	$FF
	.byte	$EF
	.byte	$F2
	.byte	$FF
	.byte	$ED
	.byte	$EF
	.byte	$F5
	.byte	$F3
	.byte	$E5
	.byte	$FF
	.byte	$EC
	.byte	$E5
	.byte	$E6
	.byte	$F4
	.byte	$FF
	.byte	$F4
	.byte	$EF
	.byte	$FF
	.byte	$EA
	.byte	$F5
	.byte	$ED
	.byte	$F0
	.byte	$E0
	.byte	$E6
	.byte	$EC
	.byte	$F9
	.byte	$FF
	.byte	$04
	.byte	$24
	.byte	$F3
	.byte	$F4
	.byte	$E1
	.byte	$F2
	.byte	$F4
	.byte	$FF
	.byte	$EF
	.byte	$F2
	.byte	$FF
	.byte	$ED
	.byte	$EF
	.byte	$F5
	.byte	$F3
	.byte	$E5
	.byte	$FF
	.byte	$F2
	.byte	$E9
	.byte	$E7
	.byte	$E8
	.byte	$F4
	.byte	$FF
	.byte	$F4
	.byte	$EF
	.byte	$FF
	.byte	$F0
	.byte	$E1
	.byte	$F5
	.byte	$F3
	.byte	$E5
	.byte	$FF
	.byte	$04
	.byte	$2A
	.byte	$F0
	.byte	$F2
	.byte	$E1
	.byte	$E3
	.byte	$F4
	.byte	$E9
	.byte	$E3
	.byte	$E5
	.byte	$FF
	.byte	$ED
	.byte	$EF
	.byte	$E4
	.byte	$E5
	.byte	$FF
	.byte	$04
	.byte	$2A
	.byte	$F0
	.byte	$E1
	.byte	$F5
	.byte	$F3
	.byte	$E5
	.byte	$FF
	.byte	$E0
	.byte	$FF
	.byte	$F0
	.byte	$F2
	.byte	$E5
	.byte	$F3
	.byte	$F3
	.byte	$FF
	.byte	$E2
	.byte	$FF
	.byte	$EF
	.byte	$F2
	.byte	$FF
	.byte	$ED
	.byte	$EF
	.byte	$F5
	.byte	$F3
	.byte	$E5
	.byte	$FF
	.byte	$EC
	.byte	$E5
	.byte	$E6
	.byte	$F4
	.byte	$FF
	.byte	$04
	.byte	$22
	.byte	$EE
	.byte	$E5
	.byte	$F7
	.byte	$FF
	.byte	$E3
	.byte	$E8
	.byte	$E5
	.byte	$E3
	.byte	$EB
	.byte	$F0
	.byte	$EF
	.byte	$E9
	.byte	$EE
	.byte	$F4
	.byte	$F3
	.byte	$FF
	.byte	$E3
	.byte	$E1
	.byte	$EE
	.byte	$FF
	.byte	$E2
	.byte	$E5
	.byte	$FF
	.byte	$F0
	.byte	$EC
	.byte	$E1
	.byte	$E3
	.byte	$E5
	.byte	$E4
	.byte	$FF
	.byte	$04
	.byte	$02
	.byte	$F7
	.byte	$E9
	.byte	$F4
	.byte	$E8
	.byte	$EF
	.byte	$F5
	.byte	$F4
	.byte	$FF
	.byte	$F0
	.byte	$E1
	.byte	$F5
	.byte	$F3
	.byte	$E9
	.byte	$EE
	.byte	$E7
	.byte	$FF
	.byte	$F7
	.byte	$E9
	.byte	$F4
	.byte	$E8
	.byte	$FF
	.byte	$E2
	.byte	$FF
	.byte	$04
	.byte	$2E
	.byte	$E4
	.byte	$E5
	.byte	$EC
	.byte	$E5
	.byte	$F4
	.byte	$E5
	.byte	$FF
	.byte	$E3
	.byte	$E8
	.byte	$E5
	.byte	$E3
	.byte	$EB
	.byte	$F0
	.byte	$EF
	.byte	$E9
	.byte	$EE
	.byte	$F4
	.byte	$F3
	.byte	$FF
	.byte	$04
	.byte	$28
	.byte	$F0
	.byte	$F2
	.byte	$E5
	.byte	$F3
	.byte	$F3
	.byte	$FF
	.byte	$F3
	.byte	$E5
	.byte	$EC
	.byte	$E5
	.byte	$E3
	.byte	$F4
	.byte	$FF
	.byte	$EF
	.byte	$F2
	.byte	$FF
	.byte	$E8
	.byte	$EF
	.byte	$EC
	.byte	$E4
	.byte	$FF
	.byte	$ED
	.byte	$EF
	.byte	$F5
	.byte	$F3
	.byte	$E5
	.byte	$FF
	.byte	$EC
	.byte	$E5
	.byte	$E6
	.byte	$F4
	.byte	$FF
	.byte	$E1
	.byte	$EE
	.byte	$E4
	.byte	$FF
	.byte	$F0
	.byte	$F2
	.byte	$E5
	.byte	$F3
	.byte	$F3
	.byte	$FF
	.byte	$ED
	.byte	$EF
	.byte	$F5
	.byte	$F3
	.byte	$E5
	.byte	$FF
	.byte	$F2
	.byte	$E9
	.byte	$E7
	.byte	$E8
	.byte	$F4
	.byte	$FF
	.byte	$04
	.byte	$2A
	.byte	$E3
	.byte	$E8
	.byte	$E5
	.byte	$E3
	.byte	$EB
	.byte	$F0
	.byte	$EF
	.byte	$E9
	.byte	$EE
	.byte	$F4
	.byte	$F3
	.byte	$FF
	.byte	$F3
	.byte	$F4
	.byte	$EF
	.byte	$F2
	.byte	$E5
	.byte	$FF
	.byte	$EC
	.byte	$E1
	.byte	$F3
	.byte	$F4
	.byte	$FF
	.byte	$D8
	.byte	$FF
	.byte	$F0
	.byte	$EF
	.byte	$E9
	.byte	$EE
	.byte	$F4
	.byte	$F3
	.byte	$FF
	.byte	$04
	.byte	$29
	.byte	$E5
	.byte	$F8
	.byte	$E9
	.byte	$F4
	.byte	$FF
	.byte	$EC
	.byte	$E5
	.byte	$F6
	.byte	$E5
	.byte	$EC
	.byte	$FF
	.byte	$04
	.byte	$2C
	.byte	$F0
	.byte	$E1
	.byte	$F5
	.byte	$F3
	.byte	$E5
	.byte	$E0
	.byte	$F3
	.byte	$E5
	.byte	$EC
	.byte	$E5
	.byte	$E3
	.byte	$F4
	.byte	$FF
	.byte	$E0
	.byte	$E8
	.byte	$EF
	.byte	$EC
	.byte	$E4
	.byte	$FF
	.byte	$ED
	.byte	$EF
	.byte	$F5
	.byte	$F3
	.byte	$E5
	.byte	$FF
	.byte	$F2
	.byte	$E9
	.byte	$E7
	.byte	$E8
	.byte	$F4
	.byte	$FF
	.byte	$04
	.byte	$20
	.byte	$FE
	.byte	$04
	.byte	$3F
	.byte	$00
	.byte	$00
	.byte	$50
	.byte	$04
	.byte	$03
	.byte	$00
	.byte	$00
	.byte	$10
	.byte	$40
	.byte	$55
	.byte	$55
	.byte	$05
	.byte	$F5
	.byte	$F1
	.byte	$00
	.byte	$85
	.byte	$A1
	.byte	$A4
	.byte	$A5
	.byte	$A5
	.byte	$61
	.byte	$5F
	.byte	$03
	.byte	$0F
	.byte	$03
	.byte	$0F
	.byte	$07
	.byte	$50
	.byte	$55
	.byte	$05
	.byte	$01
	.byte	$F4
	.byte	$7A
	.byte	$5A
	.byte	$1A
	.byte	$FA
	.byte	$7A
	.byte	$50
	.byte	$50
	.byte	$00
	.byte	$0F
	.byte	$07
	.byte	$05
	.byte	$05
	.byte	$09
	.byte	$02
	.byte	$00
	.byte	$F0
	.byte	$78
	.byte	$5A
	.byte	$DA
	.byte	$FA
	.byte	$50
	.byte	$04
	.byte	$02
	.byte	$00
	.byte	$04
	.byte	$06
	.byte	$00
	.byte	$04
	.byte	$00
_ver:
	.byte	$E4,$E5,$ED,$EF,$00
_verNum:
	.byte	$D1
	.byte	$18
	.byte	$D2
	.byte	$18
	.byte	$D8
.segment	"RODATA"
_BG_Table:
	.byte	$11
	.byte	$12
	.byte	$13
	.byte	$14
	.byte	$15
	.byte	$16
	.byte	$17
	.byte	$18
	.byte	$19
	.byte	$1A
	.byte	$1B
	.byte	$1C
_G_Table:
	.byte	$21
	.byte	$22
	.byte	$23
	.byte	$24
	.byte	$25
	.byte	$26
	.byte	$27
	.byte	$28
	.byte	$29
	.byte	$2A
	.byte	$2B
	.byte	$2C
.segment	"XCD_BANK_06"
_cheater:
	.byte	$BD,$C2,$BF,$BB,$CE,$BF,$CC,$00
_cheatersize:
	.byte	$07
.segment	"RODATA"
.segment	"XCD_BANK_02"
.segment	"RODATA"

.segment	"BSS"

.segment	"ZEROPAGE"
_tmp1:
	.res	1,$00
_tmp2:
	.res	1,$00
_tmp3:
	.res	1,$00
_tmp4:
	.res	1,$00
_tmp5:
	.res	2,$00
_tmp6:
	.res	2,$00
_tmp7:
	.res	1,$00
_tmp8:
	.res	1,$00
_tmp9:
	.res	1,$00
_tmpA:
	.res	2,$00
_tmpB:
	.res	2,$00
_tmpfallspeed:
	.res	2,$00
_tmpgravity:
	.res	2,$00
_iconbank1:
	.res	1,$00
_iconbank2:
	.res	1,$00
_iconbank3:
	.res	1,$00
_tmpptr1:
	.res	2,$00
_tmpptr2:
	.res	2,$00
_tmplong:
	.res	4,$00
_selectedbgm:
	.res	1,$00
_selectedsfx:
	.res	1,$00
_tmpi8:
	.res	1,$00
_currplayer_mini:
	.res	1,$00
_currplayer_x:
	.res	2,$00
_currplayer_y:
	.res	2,$00
_currplayer_vel_x:
	.res	2,$00
_currplayer_vel_y:
	.res	2,$00
_currplayer_gravity:
	.res	1,$00
_currplayer_x_small:
	.res	1,$00
_currplayer_y_small:
	.res	1,$00
_currplayer_vel_y_small:
	.res	1,$00
_currplayer_slope_frames:
	.res	1,$00
_currplayer_was_on_slope_counter:
	.res	1,$00
_currplayer_slope_type:
	.res	1,$00
_currplayer_last_slope_type:
	.res	1,$00
_currplayer_direction:
	.res	1,$00
_currplayer_table_idx:
	.res	1,$00
_gamemode:
	.res	1,$00
_cube_data:
	.res	2,$00
_cube_rotate:
	.res	4,$00
_collision:
	.res	1,$00
_collision_L:
	.res	1,$00
_collision_R:
	.res	1,$00
_collision_U:
	.res	1,$00
_collision_D:
	.res	1,$00
_old_x:
	.res	2,$00
_old_y:
	.res	2,$00
_eject_L:
	.res	1,$00
_eject_R:
	.res	1,$00
_eject_D:
	.res	1,$00
_eject_U:
	.res	1,$00
_address:
	.res	2,$00
_x:
	.res	1,$00
_y:
	.res	1,$00
_index:
	.res	1,$00
_temp_x:
	.res	1,$00
_temp_y:
	.res	1,$00
_temp_room:
	.res	1,$00
_dual:
	.res	1,$00
_slope_frames:
	.res	2,$00
_slope_type:
	.res	2,$00
_was_on_slope_counter:
	.res	2,$00
_sprite_data:
	.res	2,$00
_level_data:
	.res	2,$00
.segment	"SRAM"
_SRAM_VALIDATE:
	.res	4,$00
_coin1_obtained:
	.res	128,$00
_coin2_obtained:
	.res	128,$00
_coin3_obtained:
	.res	128,$00
_LEVELCOMPLETE:
	.res	128,$00
_level_completeness_normal:
	.res	256,$00
_achievements:
	.res	32,$00
_invisible:
	.res	1,$00
_twoplayer:
	.res	1,$00
_options:
	.res	1,$00
_practice_music_sync:
	.res	1,$00
_icon:
	.res	1,$00
_icon_colors:
	.res	3,$00
_cursedmusic:
	.res	1,$00
_discomode:
	.res	1,$00
_trails:
	.res	1,$00
_viseffects:
	.res	1,$00
_retro_mode:
	.res	1,$00
_palette_cycle_mode:
	.res	1,$00
_gameboy_mode:
	.res	1,$00
_invisblocks:
	.res	1,$00
_cam_seesaw:
	.res	1,$00
_forced_credits:
	.res	1,$00
_drawBarFlag:
	.res	1,$00
_exitPortalTimer:
	.res	1,$00
_menu_music:
	.res	1,$00
_auto_practicepoints:
	.res	1,$00
_practice_point_count:
	.res	1,$00
_curr_practice_point:
	.res	1,$00
_latest_practice_point:
	.res	1,$00
_practice_player_1_x_lo:
	.res	8,$00
_practice_player_1_x_hi:
	.res	8,$00
_practice_player_1_vel_x_lo:
	.res	8,$00
_practice_player_1_vel_x_hi:
	.res	8,$00
_practice_player_1_y_lo:
	.res	8,$00
_practice_player_1_y_hi:
	.res	8,$00
_practice_player_1_vel_y_lo:
	.res	8,$00
_practice_player_1_vel_y_hi:
	.res	8,$00
_practice_cube_1_rotate_lo:
	.res	8,$00
_practice_cube_1_rotate_hi:
	.res	8,$00
_practice_player_2_x_lo:
	.res	8,$00
_practice_player_2_x_hi:
	.res	8,$00
_practice_player_2_vel_x_lo:
	.res	8,$00
_practice_player_2_vel_x_hi:
	.res	8,$00
_practice_player_2_y_lo:
	.res	8,$00
_practice_player_2_y_hi:
	.res	8,$00
_practice_player_2_vel_y_lo:
	.res	8,$00
_practice_player_2_vel_y_hi:
	.res	8,$00
_practice_cube_2_rotate_lo:
	.res	8,$00
_practice_cube_2_rotate_hi:
	.res	8,$00
_practice_player_1_gravity:
	.res	8,$00
_practice_player_2_gravity:
	.res	8,$00
_practice_player_1_mini:
	.res	8,$00
_practice_player_2_mini:
	.res	8,$00
_practice_player_1_was_on_slope_counter:
	.res	8,$00
_practice_player_2_was_on_slope_counter:
	.res	8,$00
_practice_player_1_slope_frames:
	.res	8,$00
_practice_player_2_slope_frames:
	.res	8,$00
_practice_player_1_slope_type:
	.res	8,$00
_practice_player_2_slope_type:
	.res	8,$00
_practice_player_1_last_slope_type:
	.res	8,$00
_practice_player_2_last_slope_type:
	.res	8,$00
_practice_scroll_x_lo:
	.res	8,$00
_practice_scroll_x_md:
	.res	8,$00
_practice_scroll_x_hi:
	.res	8,$00
_practice_scroll_x_ex:
	.res	8,$00
_practice_scroll_y_lo:
	.res	8,$00
_practice_scroll_y_hi:
	.res	8,$00
_practice_scroll_y_subpx:
	.res	8,$00
_practice_min_scroll_y_lo:
	.res	8,$00
_practice_min_scroll_y_hi:
	.res	8,$00
_practice_seam_scroll_y_lo:
	.res	8,$00
_practice_seam_scroll_y_hi:
	.res	8,$00
_practice_old_draw_scroll_y_lo:
	.res	8,$00
_practice_old_draw_scroll_y_hi:
	.res	8,$00
_practice_target_scroll_y_lo:
	.res	8,$00
_practice_target_scroll_y_hi:
	.res	8,$00
_practice_nocamlockforced:
	.res	8,$00
_practice_disco_sprites:
	.res	8,$00
_practice_slowmode:
	.res	8,$00
_practice_forced_trails:
	.res	8,$00
_practice_gravity_mod:
	.res	8,$00
_practice_player_gamemode:
	.res	8,$00
_practice_dual:
	.res	8,$00
_practice_speed:
	.res	8,$00
_practice_parallax_scroll_x:
	.res	8,$00
_practice_outline_color:
	.res	8,$00
_practice_g_color_type:
	.res	8,$00
_practice_bg_color_type:
	.res	8,$00
_practice_orbactive:
	.res	8,$00
_practice_nullscapes_active:
	.res	8,$00
_practice_nullscapes_orb_type:
	.res	8,$00
_practice_kandoframecnt:
	.res	8,$00
_practice_song:
	.res	8,$00
_practice_player_invis:
	.res	8,$00
_practice_famistudio_state:
	.res	1376,$00
_practice_famistudio_registers:
	.res	88,$00
.segment	"BSS"
_last_gameState:
	.res	1,$00
_player_x:
	.res	4,$00
_player_y:
	.res	4,$00
_player_vel_x:
	.res	4,$00
_player_vel_y:
	.res	4,$00
_player_gravity:
	.res	2,$00
_player_mini:
	.res	2,$00
_orbhitonthisframe:
	.res	2,$00
_chargepower:
	.res	2,$00
_practice_sprite_x_pos:
	.res	1,$00
_kandokidshack:
	.res	1,$00
_kandokidshack2:
	.res	1,$00
_kandokidshack3:
	.res	1,$00
_kandokidshack4:
	.res	1,$00
_menuthemechosen:
	.res	1,$00
_menutheme:
	.res	1,$00
_exittimer:
	.res	2,$00
_jumps:
	.res	2,$00
_orbed:
	.res	2,$00
_speed:
	.res	1,$00
_shuffle_offset:
	.res	1,$00
_count:
	.res	1,$00
_coins:
	.res	1,$00
_currplayer:
	.res	1,$00
_menuMusicCurrentlyPlaying:
	.res	1,$00
_ball_switched:
	.res	2,$00
_processXMovement:
	.res	1,$00
_kandoframecnt:
	.res	1,$00
_spiderframe:
	.res	2,$00
_robotframe:
	.res	2,$00
_ballframe:
	.res	1,$00
_robotjumpframe:
	.res	2,$00
_robotjumptime:
	.res	2,$00
_hblocked:
	.res	2,$00
_jblocked:
	.res	2,$00
_fblocked:
	.res	2,$00
_ninjajumps:
	.res	2,$00
_slowmode:
	.res	1,$00
_use_auto_chrswitch:
	.res	1,$00
_level:
	.res	1,$00
_level_data_bank:
	.res	1,$00
_sprite_data_bank:
	.res	1,$00
_menuselection:
	.res	1,$00
_settingvalue:
	.res	1,$00
_mouseframe:
	.res	1,$00
_hold_timer:
	.res	1,$00
_titlemode:
	.res	1,$00
_titlecolor1:
	.res	1,$00
_titlecolor2:
	.res	1,$00
_titlecolor3:
	.res	1,$00
_titleicon:
	.res	1,$00
_kandodebugmode:
	.res	1,$00
_all_levels_complete:
	.res	1,$00
_triggers:
	.res	2,$00
_top_triggers:
	.res	2,$00
_current_deco_type:
	.res	1,$00
_current_spike_set:
	.res	1,$00
_current_block_set:
	.res	1,$00
_current_saw_set:
	.res	1,$00
_nocamlock:
	.res	1,$00
_nocamlockforced:
	.res	1,$00
_nestopia:
	.res	1,$00
_nullscapes_orb_type:
	.res	1,$00
_nullscapes_active:
	.res	1,$00
_last_slope_type:
	.res	2,$00
_gameState:
	.res	1,$00
_teleport_output:
	.res	1,$00
_normalorcommlevels:
	.res	1,$00
_mouse_timer:
	.res	1,$00
_prev_mouse_x:
	.res	1,$00
_prev_mouse_y:
	.res	1,$00
_level_resetting_flag:
	.res	1,$00
_timewarp_done:
	.res	1,$00
_parallax_scroll_x:
	.res	1,$00
_invincible_counter:
	.res	1,$00
_scroll_x:
	.res	4,$00
_scroll_y:
	.res	2,$00
_scroll_y_subpx:
	.res	1,$00
_old_trail_scroll_y:
	.res	2,$00
_target_scroll_y:
	.res	2,$00
_song:
	.res	1,$00
_songplaying:
	.res	1,$00
_tempsong:
	.res	1,$00
_temptemp6:
	.res	1,$00
_make_cube_jump_higher:
	.res	1,$00
_animating:
	.res	1,$00
_coin1_timer:
	.res	1,$00
_coin2_timer:
	.res	1,$00
_coin3_timer:
	.res	1,$00
_coin1_speed:
	.res	2,$00
_coin2_speed:
	.res	2,$00
_coin3_speed:
	.res	2,$00
_spawn_y_pos:
	.res	2,$00
_spawn_scroll_y_pos:
	.res	2,$00
_max_fallspeed:
	.res	1,$00
_orbactive:
	.res	1,$00
_trail_sprites_visible:
	.res	9,$00
_ufo_orbed:
	.res	2,$00
_black_orbed:
	.res	2,$00
_dashing:
	.res	2,$00
_wrap_mode:
	.res	1,$00
_minicoins:
	.res	1,$00
_auto_practicepoint_timer:
	.res	2,$00
_cheated:
	.res	1,$00
_activesprites_x_lo:
	.res	16,$00
_activesprites_x_hi:
	.res	16,$00
_activesprites_y_lo:
	.res	16,$00
_activesprites_y_hi:
	.res	16,$00
_activesprites_type:
	.res	16,$00
_activesprites_anim_frame:
	.res	16,$00
_activesprites_anim_frame_count:
	.res	16,$00
_activesprites_realx:
	.res	16,$00
_activesprites_realy:
	.res	16,$00
_activesprites_active:
	.res	16,$00
_activesprites_activated:
	.res	16,$00
_activesprites_animated:
	.res	16,$00
_DEBUG_MODE:
	.res	1,$00
_lastgcolortype:
	.res	1,$00
_lastbgcolortype:
	.res	1,$00
_iconbank:
	.res	1,$00
_dblocked:
	.res	2,$00
_player_old_posy:
	.res	9,$00
_discorefreshrate:
	.res	1,$00
_discoframe:
	.res	1,$00
_no_parallax:
	.res	1,$00
_force_platformer:
	.res	1,$00
_outline_color:
	.res	1,$00
_forced_trails:
	.res	1,$00
_skipProcessingCubeRotationLogic:
	.res	1,$00
_attemptCounter:
	.res	7,$00
_triggers_hit:
	.res	3,$00
_pauseStatus:
	.res	1,$00
_forceNoFadeOut:
	.res	1,$00
_target_x_scroll_stop:
	.res	2,$00
_curr_x_scroll_stop:
	.res	2,$00
_disco_sprites:
	.res	1,$00
_gravity_mod:
	.res	1,$00
_practicebuffer:
	.res	1,$00
_tempplat:
	.res	1,$00
_END_LEVEL_TIMER:
	.res	1,$00
_donotresetrng:
	.res	1,$00
_player_invis:
	.res	1,$00
_Generic:
	.res	4,$00
_Generic2:
	.res	4,$00

; ---------------------------------------------------------------
; void __near__ _mmc3_set_8kb_chr (void)
; ---------------------------------------------------------------

.segment	"CODE"

.proc	__mmc3_set_8kb_chr: near

	.dbg	func, "_mmc3_set_8kb_chr", "00", static, "__mmc3_set_8kb_chr"

.segment	"CODE"

;
; mmc3_set_1kb_chr_bank_0(xargs[0]);
;
	.dbg	line, "LIB/headers/mapper.h", 30
	lda     _xargs
	jsr     _mmc3_set_1kb_chr_bank_0
;
; mmc3_set_1kb_chr_bank_1(++xargs[0]);
;
	.dbg	line, "LIB/headers/mapper.h", 31
	inc     _xargs
	lda     _xargs
	jsr     _mmc3_set_1kb_chr_bank_1
;
; mmc3_set_1kb_chr_bank_2(++xargs[0]);
;
	.dbg	line, "LIB/headers/mapper.h", 32
	inc     _xargs
	lda     _xargs
	jsr     _mmc3_set_1kb_chr_bank_2
;
; mmc3_set_1kb_chr_bank_3(++xargs[0]);
;
	.dbg	line, "LIB/headers/mapper.h", 33
	inc     _xargs
	lda     _xargs
	jsr     _mmc3_set_1kb_chr_bank_3
;
; mmc3_set_2kb_chr_bank_0(xargs[0]+2);
;
	.dbg	line, "LIB/headers/mapper.h", 35
	lda     _xargs
	clc
	adc     #$02
	jsr     _mmc3_set_2kb_chr_bank_0
;
; mmc3_set_2kb_chr_bank_1(xargs[0]+4);
;
	.dbg	line, "LIB/headers/mapper.h", 36
	lda     _xargs
	clc
	adc     #$04
	jmp     _mmc3_set_2kb_chr_bank_1

	.dbg	line
.endproc

; ---------------------------------------------------------------
; void __near__ dual_cap_check (void)
; ---------------------------------------------------------------

.segment	"XCD_BANK_00"

.proc	_dual_cap_check: near

	.dbg	func, "dual_cap_check", "00", static, "_dual_cap_check"

.segment	"XCD_BANK_00"

;
; if (dual && !twoplayer) {
;
	.dbg	line, "SAUCE/functions/sprite_loading.h", 1262
	lda     _dual
	beq     L0003
	lda     _twoplayer
	beq     L0004
L0003:	rts
;
; __AX__ = player_vel_y[(currplayer^1)&0x7F] / 2;
;
	.dbg	line, "SAUCE/functions/sprite_loading.h", 1264
L0004:	lda     _currplayer
	eor     #$01
	asl     a
	tay
	lda     _player_vel_y,y
	ldx     _player_vel_y+1,y
	cpx     #$00
	bpl     L0006
	sta     regsave
	stx     regsave+1
	cpx     #$FF
	bne     L0008
	cmp     #$FF
L0008:	jsr     boolult
	lsr     a
	lda     regsave
	ldx     regsave+1
	bcs     L0006
	ldx     #$00
	txa
	jmp     L0007
L0006:	jsr     asrax1
;
; __asm__("sta %v, y \n txa \n sta %v+1, y", player_vel_y, player_vel_y);
;
	.dbg	line, "SAUCE/functions/sprite_loading.h", 1266
L0007:	sta     _player_vel_y,y
	txa
	sta     _player_vel_y+1,y
;
; }    
;
	.dbg	line, "SAUCE/functions/sprite_loading.h", 1268
	rts

	.dbg	line
.endproc

; ---------------------------------------------------------------
; void __near__ spider_up_wait (void)
; ---------------------------------------------------------------

.segment	"XCD_BANK_01"

.proc	_spider_up_wait: near

	.dbg	func, "spider_up_wait", "00", static, "_spider_up_wait"

.segment	"XCD_BANK_01"

;
; LEFT_POS = Generic.x + low_word(scroll_x) + 3;
;
	.dbg	line, "SAUCE/gamemodes/gamemode_spider.h", 92
	lda     _Generic
	clc
	adc     _scroll_x
	clc
	adc     #$03
	sta     _tmp7
;
; RIGHT_POS = Generic.x + low_word(scroll_x) + Generic.width - 3;
;
	.dbg	line, "SAUCE/gamemodes/gamemode_spider.h", 93
	lda     _Generic
	clc
	adc     _scroll_x
	clc
	adc     _Generic+2
	sec
	sbc     #$03
	sta     _tmp9
;
; high_byte(currplayer_y) -= 0x08;
;
	.dbg	line, "SAUCE/gamemodes/gamemode_spider.h", 95
L000A:	lda     _currplayer_y+1
	sec
	sbc     #$08
	sta     _currplayer_y+1
;
; crossPRGBankJump0(process_y_scroll);
;
	.dbg	line, "SAUCE/gamemodes/gamemode_spider.h", 96
	lda     #<_process_y_scroll
	ldx     #>_process_y_scroll
	ldy     #<.bank(_process_y_scroll)
	jsr     crossPRGBankJump
;
; if (high_byte(currplayer_y) <= 0x07){ // && scroll_y <= min_scroll_y
;
	.dbg	line, "SAUCE/gamemodes/gamemode_spider.h", 97
	lda     _currplayer_y+1
	cmp     #$08
	bcs     L000B
;
; idx8_store(cube_data, currplayer, cube_data[currplayer] | 0x01); //DIE if player goes too high
;
	.dbg	line, "SAUCE/gamemodes/gamemode_spider.h", 98
	ldy     _currplayer
	lda     _cube_data,y
	ora     #$01
	sta     _cube_data,y
;
; break;
;
	.dbg	line, "SAUCE/gamemodes/gamemode_spider.h", 99
	rts
;
; Generic.y = high_byte(currplayer_y); // the rest should be the same
;
	.dbg	line, "SAUCE/gamemodes/gamemode_spider.h", 101
L000B:	lda     _currplayer_y+1
	sta     _Generic+1
;
; } while (!bg_coll_U_spider());
;
	.dbg	line, "SAUCE/gamemodes/gamemode_spider.h", 102
	jsr     _bg_coll_U_spider
	tax
	beq     L000A
;
; }   
;
	.dbg	line, "SAUCE/gamemodes/gamemode_spider.h", 103
	rts

	.dbg	line
.endproc

; ---------------------------------------------------------------
; void __near__ spider_down_wait (void)
; ---------------------------------------------------------------

.segment	"XCD_BANK_01"

.proc	_spider_down_wait: near

	.dbg	func, "spider_down_wait", "00", static, "_spider_down_wait"

.segment	"XCD_BANK_01"

;
; LEFT_POS = Generic.x + low_word(scroll_x) + 3;
;
	.dbg	line, "SAUCE/gamemodes/gamemode_spider.h", 106
	lda     _Generic
	clc
	adc     _scroll_x
	clc
	adc     #$03
	sta     _tmp7
;
; RIGHT_POS = Generic.x + low_word(scroll_x) + Generic.width - 3;
;
	.dbg	line, "SAUCE/gamemodes/gamemode_spider.h", 107
	lda     _Generic
	clc
	adc     _scroll_x
	clc
	adc     _Generic+2
	sec
	sbc     #$03
	sta     _tmp9
;
; high_byte(currplayer_y) += 0x08;
;
	.dbg	line, "SAUCE/gamemodes/gamemode_spider.h", 109
L000A:	lda     #$08
	clc
	adc     _currplayer_y+1
	sta     _currplayer_y+1
;
; crossPRGBankJump0(process_y_scroll);
;
	.dbg	line, "SAUCE/gamemodes/gamemode_spider.h", 110
	lda     #<_process_y_scroll
	ldx     #>_process_y_scroll
	ldy     #<.bank(_process_y_scroll)
	jsr     crossPRGBankJump
;
; if (high_byte(currplayer_y) >= 0xF8) { //&& scroll_y <= min_scroll_y)
;
	.dbg	line, "SAUCE/gamemodes/gamemode_spider.h", 111
	lda     _currplayer_y+1
	cmp     #$F8
	bcc     L000B
;
; idx8_store(cube_data, currplayer, cube_data[currplayer] | 0x01); //DIE if player goes too high
;
	.dbg	line, "SAUCE/gamemodes/gamemode_spider.h", 112
	ldy     _currplayer
	lda     _cube_data,y
	ora     #$01
	sta     _cube_data,y
;
; break;
;
	.dbg	line, "SAUCE/gamemodes/gamemode_spider.h", 113
	rts
;
; Generic.y = high_byte(currplayer_y); // the rest should be the same
;
	.dbg	line, "SAUCE/gamemodes/gamemode_spider.h", 115
L000B:	lda     _currplayer_y+1
	sta     _Generic+1
;
; } while (!bg_coll_D_spider());
;
	.dbg	line, "SAUCE/gamemodes/gamemode_spider.h", 116
	jsr     _bg_coll_D_spider
	tax
	beq     L000A
;
; }    
;
	.dbg	line, "SAUCE/gamemodes/gamemode_spider.h", 117
	rts

	.dbg	line
.endproc

; ---------------------------------------------------------------
; char __near__ bg_coll_U (void)
; ---------------------------------------------------------------

.segment	"XCD_BANK_01"

.proc	_bg_coll_U: near

	.dbg	func, "bg_coll_U", "00", extern, "_bg_coll_U"

.segment	"XCD_BANK_01"

;
; if (high_byte(currplayer_x) >= 0x10) {
;
	.dbg	line, "SAUCE/functions/collision.h", 867
	lda     _currplayer_x+1
	cmp     #$10
	jcc     L0024
;
; ), temp_y, temp_room);
;
	.dbg	line, "SAUCE/functions/collision.h", 872
	lda     #$10
	sec
	sbc     _Generic+3
	lsr     a
	clc
	adc     _Generic+1
	sta     ptr1
	lda     _currplayer_mini
	beq     L0003
	lda     #$01
	jmp     L0004
L0003:	lda     #$02
L0004:	clc
	adc     ptr1
	sta     ptr1
	lda     _gamemode
	cmp     #$01
	beq     L0006
	lda     #$00
L0006:	clc
	adc     ptr1
	sta     sreg+0
	lda     _scroll_y
	ldx     _scroll_y+1
	jsr     __add_scroll_y
	sta     _temp_y
	stx     _temp_room
;
; temp_x = Generic.x + low_word(scroll_x); // middle of the cube
;
	.dbg	line, "SAUCE/functions/collision.h", 873
	lda     _Generic
	clc
	adc     _scroll_x
	sta     _temp_x
;
; tmp2 = 0;
;
	.dbg	line, "SAUCE/functions/collision.h", 875
	lda     #$00
	sta     _tmp2
;
; low_byte(tmp3) = 0;
;
	.dbg	line, "SAUCE/functions/collision.h", 876
	tax
	sta     _tmp3
;
; bg_collision_sub(); // do again but this time in the center of the cube
;
	.dbg	line, "SAUCE/functions/collision.h", 878
L0007:	jsr     _bg_collision_sub
;
; if (collision) {
;
	.dbg	line, "SAUCE/functions/collision.h", 880
	lda     _collision
	beq     L000A
;
; low_byte(tmp3) |= bg_coll_return_slope_U();
;
	.dbg	line, "SAUCE/functions/collision.h", 882
	lda     _tmp3
	jsr     pusha0
	jsr     _bg_coll_return_slope_U
	jsr     tosorax
	sta     _tmp3
;
; temp_x += Generic.width; // automatically only the low byte
;
	.dbg	line, "SAUCE/functions/collision.h", 885
L000A:	lda     _Generic+2
	clc
	adc     _temp_x
	sta     _temp_x
;
; } while (++tmp2 < 2);
;
	.dbg	line, "SAUCE/functions/collision.h", 886
	ldx     #$00
	inc     _tmp2
	lda     _tmp2
	cmp     #$02
	bcc     L0007
;
; if (low_byte(tmp3)) return 1;
;
	.dbg	line, "SAUCE/functions/collision.h", 887
	lda     _tmp3
	beq     L0024
	lda     #$01
	rts
;
; if (high_byte(currplayer_vel_y) & 0x80) {
;
	.dbg	line, "SAUCE/functions/collision.h", 890
L0024:	lda     _currplayer_vel_y+1
	ldx     #$00
	and     #$80
	bne     L002D
;
; }
;
	.dbg	line, "SAUCE/functions/collision.h", 913
	rts
;
; temp_x = Generic.x + low_word(scroll_x) + (gamemode == GAMEMODE_WAVE || gamemode == GAMEMODE_SNAKE ? 10 : 0); // automatically only the low byte
;
	.dbg	line, "SAUCE/functions/collision.h", 891
L002D:	lda     _Generic
	clc
	adc     _scroll_x
	sta     ptr1
	lda     _gamemode
	cmp     #$06
	beq     L0025
	cmp     #$0A
	beq     L0010
	txa
	jmp     L0010
L0025:	lda     #$0A
L0010:	clc
	adc     ptr1
	sta     _temp_x
;
; ), temp_y, temp_room);
;
	.dbg	line, "SAUCE/functions/collision.h", 897
	lda     _currplayer_mini
	beq     L0012
	lda     #$10
	sec
	sbc     _Generic+3
	lsr     a
L0012:	clc
	adc     _Generic+1
	clc
	adc     #$01
	sta     sreg+0
	lda     _scroll_y
	ldx     _scroll_y+1
	jsr     __add_scroll_y
	sta     _temp_y
	stx     _temp_room
;
; tmp8 = (temp_y) & 0x0f;
;
	.dbg	line, "SAUCE/functions/collision.h", 899
	lda     _temp_y
	and     #$0F
	ldx     #$00
	sta     _tmp8
;
; COLL_CHECK_TOP
;
	.dbg	line, "SAUCE/functions/collision.h", 901
	jsr     _bg_collision_sub
	lda     _collision
	beq     L0028
	jsr     _bg_coll_return_U
	tax
	beq     L0028
	ldy     _currplayer
	lda     _cube_data,y
	and     #$7E
	sta     _cube_data,y
	ldx     #$00
	lda     #$01
	rts
;
; temp_x += Generic.width >> 1; // automatically only the low byte
;
	.dbg	line, "SAUCE/functions/collision.h", 903
L0028:	lda     _Generic+2
	lsr     a
	ldx     #$00
	clc
	adc     _temp_x
	sta     _temp_x
;
; COLL_CHECK_TOP
;
	.dbg	line, "SAUCE/functions/collision.h", 905
	jsr     _bg_collision_sub
	lda     _collision
	beq     L0029
	jsr     _bg_coll_return_U
	tax
	beq     L0029
	ldy     _currplayer
	lda     _cube_data,y
	and     #$7E
	sta     _cube_data,y
	ldx     #$00
	lda     #$01
	rts
;
; temp_x = Generic.x + low_word(scroll_x) + (Generic.width); // automatically only the low byte
;
	.dbg	line, "SAUCE/functions/collision.h", 907
L0029:	lda     _Generic
	clc
	adc     _scroll_x
	clc
	adc     _Generic+2
	ldx     #$00
	sta     _temp_x
;
; COLL_CHECK_TOP
;
	.dbg	line, "SAUCE/functions/collision.h", 909
	jsr     _bg_collision_sub
	lda     _collision
	beq     L001B
	jsr     _bg_coll_return_U
	tax
	beq     L002B
	ldy     _currplayer
	lda     _cube_data,y
	and     #$7E
	sta     _cube_data,y
	ldx     #$00
	lda     #$01
	rts
;
; return 0;
;
	.dbg	line, "SAUCE/functions/collision.h", 911
L001B:	ldx     #$00
	txa
;
; }
;
	.dbg	line, "SAUCE/functions/collision.h", 913
L002B:	rts

	.dbg	line
.endproc

; ---------------------------------------------------------------
; char __near__ bg_coll_D (void)
; ---------------------------------------------------------------

.segment	"XCD_BANK_01"

.proc	_bg_coll_D: near

	.dbg	func, "bg_coll_D", "00", extern, "_bg_coll_D"

.segment	"XCD_BANK_01"

;
; if (high_byte(currplayer_x) >= 0x10) {
;
	.dbg	line, "SAUCE/functions/collision.h", 924
	lda     _currplayer_x+1
	cmp     #$10
	bcc     L0021
;
; ), temp_y, temp_room);
;
	.dbg	line, "SAUCE/functions/collision.h", 928
	lda     _Generic+1
	clc
	adc     _Generic+3
	sec
	sbc     #$02
	sta     ptr1
	lda     _currplayer_mini
	beq     L0005
	lda     #$10
	sec
	sbc     _Generic+3
	lsr     a
L0005:	clc
	adc     ptr1
	sta     sreg+0
	lda     _scroll_y
	ldx     _scroll_y+1
	jsr     __add_scroll_y
	sta     _temp_y
	stx     _temp_room
;
; temp_x = Generic.x + low_word(scroll_x); // middle of the cube
;
	.dbg	line, "SAUCE/functions/collision.h", 929
	lda     _Generic
	clc
	adc     _scroll_x
	sta     _temp_x
;
; tmp2 = 0;
;
	.dbg	line, "SAUCE/functions/collision.h", 931
	lda     #$00
	sta     _tmp2
;
; low_byte(tmp3) = 0;
;
	.dbg	line, "SAUCE/functions/collision.h", 932
	tax
	sta     _tmp3
;
; bg_collision_sub(); // do again but this time in the center of the cube
;
	.dbg	line, "SAUCE/functions/collision.h", 934
L0006:	jsr     _bg_collision_sub
;
; if (collision) {
;
	.dbg	line, "SAUCE/functions/collision.h", 936
	lda     _collision
	beq     L0009
;
; low_byte(tmp3) |= bg_coll_return_slope_D();
;
	.dbg	line, "SAUCE/functions/collision.h", 938
	lda     _tmp3
	jsr     pusha0
	jsr     _bg_coll_return_slope_D
	jsr     tosorax
	sta     _tmp3
;
; temp_x += Generic.width; // automatically only the low byte
;
	.dbg	line, "SAUCE/functions/collision.h", 940
L0009:	lda     _Generic+2
	clc
	adc     _temp_x
	sta     _temp_x
;
; } while (++tmp2 < 2); 
;
	.dbg	line, "SAUCE/functions/collision.h", 941
	ldx     #$00
	inc     _tmp2
	lda     _tmp2
	cmp     #$02
	bcc     L0006
;
; if (low_byte(tmp3)) return 1;
;
	.dbg	line, "SAUCE/functions/collision.h", 942
	lda     _tmp3
	beq     L0021
	lda     #$01
	rts
;
; if (!(high_byte(currplayer_vel_y) & 0x80)) {
;
	.dbg	line, "SAUCE/functions/collision.h", 945
L0021:	lda     _currplayer_vel_y+1
	ldx     #$00
	and     #$80
	jne     L0026
;
; temp_x = Generic.x + low_word(scroll_x) + (gamemode == GAMEMODE_WAVE || gamemode == GAMEMODE_SNAKE ? 4 : 0); // automatically only the low byte
;
	.dbg	line, "SAUCE/functions/collision.h", 947
	lda     _Generic
	clc
	adc     _scroll_x
	sta     ptr1
	lda     _gamemode
	cmp     #$06
	beq     L0022
	cmp     #$0A
	beq     L0022
	txa
	jmp     L000F
L0022:	lda     #$04
L000F:	clc
	adc     ptr1
	sta     _temp_x
;
; ), temp_y, temp_room);
;
	.dbg	line, "SAUCE/functions/collision.h", 953
	lda     _Generic+1
	clc
	adc     _Generic+3
	sta     ptr1
	lda     _currplayer_mini
	beq     L0011
	lda     #$10
	sec
	sbc     _Generic+3
	lsr     a
L0011:	clc
	adc     ptr1
	sta     sreg+0
	lda     _scroll_y
	ldx     _scroll_y+1
	jsr     __add_scroll_y
	sta     _temp_y
	stx     _temp_room
;
; tmp8 = (temp_y) & 0x0f;
;
	.dbg	line, "SAUCE/functions/collision.h", 955
	lda     _temp_y
	and     #$0F
	ldx     #$00
	sta     _tmp8
;
; COLL_CHECK_BOTTOM
;
	.dbg	line, "SAUCE/functions/collision.h", 957
	jsr     _bg_collision_sub
	lda     _collision
	beq     L0024
	jsr     _bg_coll_return_D
	tax
	beq     L0024
	ldy     _currplayer
	lda     _cube_data,y
	and     #$7E
	sta     _cube_data,y
	ldx     #$00
	lda     #$01
	rts
;
; temp_x += Generic.width >> 1; // automatically only the low byte
;
	.dbg	line, "SAUCE/functions/collision.h", 959
L0024:	lda     _Generic+2
	lsr     a
	ldx     #$00
	clc
	adc     _temp_x
	sta     _temp_x
;
; COLL_CHECK_BOTTOM
;
	.dbg	line, "SAUCE/functions/collision.h", 961
	jsr     _bg_collision_sub
	lda     _collision
	beq     L0025
	jsr     _bg_coll_return_D
	tax
	beq     L0025
	ldy     _currplayer
	lda     _cube_data,y
	and     #$7E
	sta     _cube_data,y
	ldx     #$00
	lda     #$01
	rts
;
; temp_x = Generic.x + low_word(scroll_x) + (Generic.width); // automatically only the low byte
;
	.dbg	line, "SAUCE/functions/collision.h", 963
L0025:	lda     _Generic
	clc
	adc     _scroll_x
	clc
	adc     _Generic+2
	ldx     #$00
	sta     _temp_x
;
; COLL_CHECK_BOTTOM
;
	.dbg	line, "SAUCE/functions/collision.h", 965
	jsr     _bg_collision_sub
	lda     _collision
	beq     L0019
	jsr     _bg_coll_return_D
	tax
	beq     L0027
	ldy     _currplayer
	lda     _cube_data,y
	and     #$7E
	sta     _cube_data,y
	ldx     #$00
	lda     #$01
	rts
;
; return 0;
;
	.dbg	line, "SAUCE/functions/collision.h", 968
L0019:	ldx     #$00
L0026:	txa
;
; }
;
	.dbg	line, "SAUCE/functions/collision.h", 969
L0027:	rts

	.dbg	line
.endproc

; ---------------------------------------------------------------
; void __near__ clearrobotjumpframes (void)
; ---------------------------------------------------------------

.segment	"XCD_BANK_00"

.proc	_clearrobotjumpframes: near

	.dbg	func, "clearrobotjumpframes", "00", static, "_clearrobotjumpframes"

.segment	"XCD_BANK_00"

;
; robotjumpframe[0] = 0;
;
	.dbg	line, "SAUCE/functions/sprite_loading.h", 1257
	lda     #$00
	sta     _robotjumpframe
;
; robotjumpframe[1] = 0;
;
	.dbg	line, "SAUCE/functions/sprite_loading.h", 1258
	sta     _robotjumpframe+1
;
; }   
;
	.dbg	line, "SAUCE/functions/sprite_loading.h", 1259
	rts

	.dbg	line
.endproc

; ---------------------------------------------------------------
; void __near__ settrailstuff (void)
; ---------------------------------------------------------------

.segment	"XCD_BANK_00"

.proc	_settrailstuff: near

	.dbg	func, "settrailstuff", "00", static, "_settrailstuff"

.segment	"XCD_BANK_00"

;
; if (forced_trails != 2 && !orbactive) {
;
	.dbg	line, "SAUCE/functions/sprite_loading.h", 1251
	lda     _forced_trails
	cmp     #$02
	beq     L0006
	lda     _orbactive
	beq     L0007
L0006:	rts
;
; orbactive = 1;
;
	.dbg	line, "SAUCE/functions/sprite_loading.h", 1252
L0007:	lda     #$01
	sta     _orbactive
;
; }
;
	.dbg	line, "SAUCE/functions/sprite_loading.h", 1254
	rts

	.dbg	line
.endproc

; ---------------------------------------------------------------
; void __near__ animate_coin_1 (void)
; ---------------------------------------------------------------

.segment	"XCD_BANK_00"

.proc	_animate_coin_1: near

	.dbg	func, "animate_coin_1", "00", static, "_animate_coin_1"

.segment	"XCD_BANK_00"

;
; idx8_store(activesprites_y_lo, index, activesprites_y_lo[index] - high_byte(coin1_speed));
;
	.dbg	line, "SAUCE/functions/sprite_loading.h", 358
	ldy     _index
	lda     _activesprites_y_lo,y
	sec
	sbc     _coin1_speed+1
	sta     _activesprites_y_lo,y
;
; coin1_speed -= 0x0040;
;
	.dbg	line, "SAUCE/functions/sprite_loading.h", 359
	lda     _coin1_speed
	sec
	sbc     #$40
	sta     _coin1_speed
	bcs     L0003
	dec     _coin1_speed+1
;
; coin1_timer++;
;
	.dbg	line, "SAUCE/functions/sprite_loading.h", 360
L0003:	inc     _coin1_timer
;
; if (coin1_timer == 40) {
;
	.dbg	line, "SAUCE/functions/sprite_loading.h", 362
	lda     _coin1_timer
	cmp     #$28
	bne     L0004
;
; activesprites_type[index] = 0xFF;
;
	.dbg	line, "SAUCE/functions/sprite_loading.h", 363
	ldy     _index
	lda     #$FF
	sta     _activesprites_type,y
;
; animating = 0;
;
	.dbg	line, "SAUCE/functions/sprite_loading.h", 364
	lda     #$00
	sta     _animating
;
; }
;
	.dbg	line, "SAUCE/functions/sprite_loading.h", 366
L0004:	rts

	.dbg	line
.endproc

; ---------------------------------------------------------------
; void __near__ animate_coin_2 (void)
; ---------------------------------------------------------------

.segment	"XCD_BANK_00"

.proc	_animate_coin_2: near

	.dbg	func, "animate_coin_2", "00", static, "_animate_coin_2"

.segment	"XCD_BANK_00"

;
; idx8_store(activesprites_y_lo, index, activesprites_y_lo[index] - high_byte(coin2_speed));
;
	.dbg	line, "SAUCE/functions/sprite_loading.h", 370
	ldy     _index
	lda     _activesprites_y_lo,y
	sec
	sbc     _coin2_speed+1
	sta     _activesprites_y_lo,y
;
; coin2_speed -= 0x0040;
;
	.dbg	line, "SAUCE/functions/sprite_loading.h", 371
	lda     _coin2_speed
	sec
	sbc     #$40
	sta     _coin2_speed
	bcs     L0003
	dec     _coin2_speed+1
;
; coin2_timer++;
;
	.dbg	line, "SAUCE/functions/sprite_loading.h", 372
L0003:	inc     _coin2_timer
;
; if (coin2_timer == 40) {
;
	.dbg	line, "SAUCE/functions/sprite_loading.h", 374
	lda     _coin2_timer
	cmp     #$28
	bne     L0004
;
; activesprites_type[index] = 0xFF;
;
	.dbg	line, "SAUCE/functions/sprite_loading.h", 375
	ldy     _index
	lda     #$FF
	sta     _activesprites_type,y
;
; animating = 0;
;
	.dbg	line, "SAUCE/functions/sprite_loading.h", 376
	lda     #$00
	sta     _animating
;
; }
;
	.dbg	line, "SAUCE/functions/sprite_loading.h", 378
L0004:	rts

	.dbg	line
.endproc

; ---------------------------------------------------------------
; void __near__ animate_coin_3 (void)
; ---------------------------------------------------------------

.segment	"XCD_BANK_00"

.proc	_animate_coin_3: near

	.dbg	func, "animate_coin_3", "00", static, "_animate_coin_3"

.segment	"XCD_BANK_00"

;
; idx8_store(activesprites_y_lo, index, activesprites_y_lo[index] - high_byte(coin3_speed));
;
	.dbg	line, "SAUCE/functions/sprite_loading.h", 382
	ldy     _index
	lda     _activesprites_y_lo,y
	sec
	sbc     _coin3_speed+1
	sta     _activesprites_y_lo,y
;
; coin3_speed -= 0x0040;
;
	.dbg	line, "SAUCE/functions/sprite_loading.h", 383
	lda     _coin3_speed
	sec
	sbc     #$40
	sta     _coin3_speed
	bcs     L0003
	dec     _coin3_speed+1
;
; coin3_timer++;
;
	.dbg	line, "SAUCE/functions/sprite_loading.h", 384
L0003:	inc     _coin3_timer
;
; if (coin3_timer == 40) {
;
	.dbg	line, "SAUCE/functions/sprite_loading.h", 386
	lda     _coin3_timer
	cmp     #$28
	bne     L0004
;
; activesprites_type[index] = 0xFF;
;
	.dbg	line, "SAUCE/functions/sprite_loading.h", 387
	ldy     _index
	lda     #$FF
	sta     _activesprites_type,y
;
; animating = 0;
;
	.dbg	line, "SAUCE/functions/sprite_loading.h", 388
	lda     #$00
	sta     _animating
;
; }
;
	.dbg	line, "SAUCE/functions/sprite_loading.h", 390
L0004:	rts

	.dbg	line
.endproc

; ---------------------------------------------------------------
; void __near__ clear_slope_stuff (void)
; ---------------------------------------------------------------

.segment	"XCD_BANK_00"

.proc	_clear_slope_stuff: near

	.dbg	func, "clear_slope_stuff", "00", static, "_clear_slope_stuff"

.segment	"XCD_BANK_00"

;
; currplayer_was_on_slope_counter = 0;
;
	.dbg	line, "SAUCE/functions/sprite_loading.h", 197
	lda     #$00
	sta     _currplayer_was_on_slope_counter
;
; currplayer_slope_frames = 0;
;
	.dbg	line, "SAUCE/functions/sprite_loading.h", 198
	sta     _currplayer_slope_frames
;
; currplayer_slope_type = 0;
;
	.dbg	line, "SAUCE/functions/sprite_loading.h", 199
	sta     _currplayer_slope_type
;
; currplayer_last_slope_type = 0;
;
	.dbg	line, "SAUCE/functions/sprite_loading.h", 200
	sta     _currplayer_last_slope_type
;
; }
;
	.dbg	line, "SAUCE/functions/sprite_loading.h", 201
	rts

	.dbg	line
.endproc

; ---------------------------------------------------------------
; char __near__ sprite_load_special_behavior (void)
; ---------------------------------------------------------------

.segment	"XCD_BANK_00"

.proc	_sprite_load_special_behavior: near

	.dbg	func, "sprite_load_special_behavior", "00", static, "_sprite_load_special_behavior"

.segment	"XCD_BANK_00"

;
; switch(type) {
;
	.dbg	line, "SAUCE/functions/sprite_loading.h", 211
	ldx     #$00
	lda     _tmp4
;
; }
;
	.dbg	line, "SAUCE/functions/sprite_loading.h", 349
	cmp     #$07
	jeq     L004E
	cmp     #$0F
	jeq     L0086
	cmp     #$1A
	jeq     L0054
	cmp     #$1B
	jeq     L005A
	cmp     #$1C
	jeq     L004F
	cmp     #$1D
	jeq     L0055
	cmp     #$1E
	jeq     L0082
	cmp     #$4F
	jeq     L004B
	cmp     #$5A
	jeq     L0043
	cmp     #$67
	jeq     L0048
	cmp     #$69
	jeq     L0048
	cmp     #$6F
	jeq     L006A
	cmp     #$70
	jeq     L006E
	cmp     #$71
	jeq     L006F
	cmp     #$72
	jeq     L0070
	cmp     #$73
	jeq     L0071
	cmp     #$74
	jeq     L0072
	cmp     #$76
	jeq     L0048
	cmp     #$78
	jeq     L0048
	cmp     #$7D
	jeq     L0073
	cmp     #$7F
	jeq     L006B
	cmp     #$8E
	jeq     L006C
	cmp     #$9E
	jeq     L006D
	cmp     #$DD
	jeq     L0074
	cmp     #$DE
	jeq     L0028
	cmp     #$DF
	beq     L0004
	cmp     #$ED
	jeq     L0075
	cmp     #$EE
	jeq     L0068
	cmp     #$EF
	jeq     L0069
	cmp     #$F0
	jeq     L007D
	cmp     #$F1
	jeq     L007E
	cmp     #$F2
	jeq     L007F
	cmp     #$F3
	jeq     L007E
	cmp     #$F4
	jeq     L002C
	cmp     #$F5
	jeq     L0034
	jmp     L0066
;
; if ((newrand() & 63) == (newrand() & 63)) {
;
	.dbg	line, "SAUCE/functions/sprite_loading.h", 214
L0004:	jsr     _newrand
	and     #$3F
	jsr     pusha0
	jsr     _newrand
	and     #$3F
	jsr     tosicmp0
	bne     L0005
;
; idx8_store(cube_data, currplayer, cube_data[currplayer] | 1);
;
	.dbg	line, "SAUCE/functions/sprite_loading.h", 215
	ldy     _currplayer
	lda     _cube_data,y
	ora     #$01
	sta     _cube_data,y
;
; triggers_hit[0]++;
;
	.dbg	line, "SAUCE/functions/sprite_loading.h", 217
L0005:	inc     _triggers_hit
;
; if (triggers_hit[0] == 10) { triggers_hit[0] = 0; triggers_hit[1]++; }
;
	.dbg	line, "SAUCE/functions/sprite_loading.h", 218
	lda     _triggers_hit
	cmp     #$0A
	bne     L0067
	lda     #$00
	sta     _triggers_hit
	inc     _triggers_hit+1
;
; if (triggers_hit[1] == 10) { triggers_hit[1] = 0; triggers_hit[2]++; }
;
	.dbg	line, "SAUCE/functions/sprite_loading.h", 219
L0067:	lda     _triggers_hit+1
	cmp     #$0A
	bne     L0008
	lda     #$00
	sta     _triggers_hit+1
	inc     _triggers_hit+2
;
; triggers++;
;
	.dbg	line, "SAUCE/functions/sprite_loading.h", 220
L0008:	inc     _triggers
	bne     L0009
	inc     _triggers+1
;
; killSprite_return0;
;
	.dbg	line, "SAUCE/functions/sprite_loading.h", 221
L0009:	ldy     _index
	lda     #$FF
	sta     _activesprites_type,y
	ldx     #$00
	jmp     L0066
;
; disco_sprites = 1;
;
	.dbg	line, "SAUCE/functions/sprite_loading.h", 223
L0068:	lda     #$01
	sta     _disco_sprites
;
; killSprite_return0;
;
	.dbg	line, "SAUCE/functions/sprite_loading.h", 224
	ldy     _index
	lda     #$FF
	sta     _activesprites_type,y
	jmp     L0066
;
; disco_sprites = 0;
;
	.dbg	line, "SAUCE/functions/sprite_loading.h", 226
L0069:	stx     _disco_sprites
;
; killSprite_return0;
;
	.dbg	line, "SAUCE/functions/sprite_loading.h", 227
	ldy     _index
	lda     #$FF
	sta     _activesprites_type,y
	jmp     L0066
;
; player_invis = 1;
;
	.dbg	line, "SAUCE/functions/sprite_loading.h", 229
L006A:	lda     #$01
	sta     _player_invis
;
; killSprite_return0;
;
	.dbg	line, "SAUCE/functions/sprite_loading.h", 230
	ldy     _index
	lda     #$FF
	sta     _activesprites_type,y
	jmp     L0066
;
; player_invis = 0;
;
	.dbg	line, "SAUCE/functions/sprite_loading.h", 232
L006B:	stx     _player_invis
;
; killSprite_return0;
;
	.dbg	line, "SAUCE/functions/sprite_loading.h", 233
	ldy     _index
	lda     #$FF
	sta     _activesprites_type,y
	jmp     L0066
;
; wrap_mode = 1;
;
	.dbg	line, "SAUCE/functions/sprite_loading.h", 235
L006C:	lda     #$01
	sta     _wrap_mode
;
; killSprite_return0;
;
	.dbg	line, "SAUCE/functions/sprite_loading.h", 236
	ldy     _index
	lda     #$FF
	sta     _activesprites_type,y
	jmp     L0066
;
; wrap_mode = 0;
;
	.dbg	line, "SAUCE/functions/sprite_loading.h", 238
L006D:	stx     _wrap_mode
;
; killSprite_return0;
;
	.dbg	line, "SAUCE/functions/sprite_loading.h", 239
	ldy     _index
	lda     #$FF
	sta     _activesprites_type,y
	jmp     L0066
;
; gravity_mod = 1;
;
	.dbg	line, "SAUCE/functions/sprite_loading.h", 241
L006E:	lda     #$01
	sta     _gravity_mod
;
; killSprite_return0;
;
	.dbg	line, "SAUCE/functions/sprite_loading.h", 242
	ldy     _index
	lda     #$FF
	sta     _activesprites_type,y
	jmp     L0066
;
; gravity_mod = 2;
;
	.dbg	line, "SAUCE/functions/sprite_loading.h", 244
L006F:	lda     #$02
	sta     _gravity_mod
;
; killSprite_return0;
;
	.dbg	line, "SAUCE/functions/sprite_loading.h", 245
	ldy     _index
	lda     #$FF
	sta     _activesprites_type,y
	jmp     L0066
;
; gravity_mod = 3;
;
	.dbg	line, "SAUCE/functions/sprite_loading.h", 247
L0070:	lda     #$03
	sta     _gravity_mod
;
; killSprite_return0;
;
	.dbg	line, "SAUCE/functions/sprite_loading.h", 248
	ldy     _index
	lda     #$FF
	sta     _activesprites_type,y
	jmp     L0066
;
; gravity_mod = 4;
;
	.dbg	line, "SAUCE/functions/sprite_loading.h", 250
L0071:	lda     #$04
	sta     _gravity_mod
;
; killSprite_return0;
;
	.dbg	line, "SAUCE/functions/sprite_loading.h", 251
	ldy     _index
	lda     #$FF
	sta     _activesprites_type,y
	jmp     L0066
;
; gravity_mod = 0;
;
	.dbg	line, "SAUCE/functions/sprite_loading.h", 253
L0072:	stx     _gravity_mod
;
; killSprite_return0;
;
	.dbg	line, "SAUCE/functions/sprite_loading.h", 254
	ldy     _index
	lda     #$FF
	sta     _activesprites_type,y
	jmp     L0066
;
; nullscapes_active++;
;
	.dbg	line, "SAUCE/functions/sprite_loading.h", 256
L0073:	inc     _nullscapes_active
;
; if (nullscapes_active == 3) nullscapes_active = 0;
;
	.dbg	line, "SAUCE/functions/sprite_loading.h", 257
	lda     _nullscapes_active
	cmp     #$03
	bne     L0022
	stx     _nullscapes_active
;
; killSprite_return0;
;
	.dbg	line, "SAUCE/functions/sprite_loading.h", 258
L0022:	ldy     _index
	lda     #$FF
	sta     _activesprites_type,y
	jmp     L0066
;
; nocamlockforced = 1;
;
	.dbg	line, "SAUCE/functions/sprite_loading.h", 261
L0074:	lda     #$01
	sta     _nocamlockforced
;
; killSprite_return0;
;
	.dbg	line, "SAUCE/functions/sprite_loading.h", 262
	ldy     _index
	lda     #$FF
	sta     _activesprites_type,y
	jmp     L0066
;
; nocamlockforced = 0;
;
	.dbg	line, "SAUCE/functions/sprite_loading.h", 264
L0075:	stx     _nocamlockforced
;
; killSprite_return0;
;
	.dbg	line, "SAUCE/functions/sprite_loading.h", 265
	ldy     _index
	lda     #$FF
	sta     _activesprites_type,y
	jmp     L0066
;
; if (!cam_seesaw) {
;
	.dbg	line, "SAUCE/functions/sprite_loading.h", 267
L0028:	lda     _cam_seesaw
	jne     L0066
;
; target_x_scroll_stop = (activesprites_realy[index] & 0xF0) << 8;
;
	.dbg	line, "SAUCE/functions/sprite_loading.h", 268
	ldy     _index
	lda     _activesprites_realy,y
	and     #$F0
	sta     _target_x_scroll_stop+1
	stx     _target_x_scroll_stop
;
; killSprite_return0;
;
	.dbg	line, "SAUCE/functions/sprite_loading.h", 269
	ldy     _index
	lda     #$FF
	sta     _activesprites_type,y
	jmp     L0066
;
; if (!level_resetting_flag) slowmode = 1;
;
	.dbg	line, "SAUCE/functions/sprite_loading.h", 274
L002C:	lda     _level_resetting_flag
	bne     L002D
	lda     #$01
	sta     _slowmode
;
; else if (level_resetting_flag && !timewarp_done) { slowmode = 1; timewarp_done = 1; }
;
	.dbg	line, "SAUCE/functions/sprite_loading.h", 275
	jmp     L002E
L002D:	lda     _level_resetting_flag
	beq     L002E
	lda     _timewarp_done
	bne     L002E
	lda     #$01
	sta     _slowmode
	sta     _timewarp_done
;
; killSprite_return0;
;
	.dbg	line, "SAUCE/functions/sprite_loading.h", 276
L002E:	ldy     _index
	lda     #$FF
	sta     _activesprites_type,y
	jmp     L0066
;
; if (!level_resetting_flag) slowmode = 0;
;
	.dbg	line, "SAUCE/functions/sprite_loading.h", 278
L0034:	lda     _level_resetting_flag
	bne     L0035
	sta     _slowmode
;
; else if (level_resetting_flag && !timewarp_done) { slowmode = 0; timewarp_done = 1; }
;
	.dbg	line, "SAUCE/functions/sprite_loading.h", 279
	jmp     L0036
L0035:	lda     _level_resetting_flag
	beq     L0036
	lda     _timewarp_done
	bne     L0036
	sta     _slowmode
	lda     #$01
	sta     _timewarp_done
;
; killSprite_return0;
;
	.dbg	line, "SAUCE/functions/sprite_loading.h", 280
L0036:	ldy     _index
	lda     #$FF
	sta     _activesprites_type,y
	jmp     L0066
;
; forced_trails = 1;
;
	.dbg	line, "SAUCE/functions/sprite_loading.h", 283
L007D:	lda     #$01
	sta     _forced_trails
;
; killSprite_return0;
;
	.dbg	line, "SAUCE/functions/sprite_loading.h", 284
	ldy     _index
	lda     #$FF
	sta     _activesprites_type,y
	jmp     L0066
;
; forced_trails = 0;
;
	.dbg	line, "SAUCE/functions/sprite_loading.h", 287
L007E:	stx     _forced_trails
;
; killSprite_return0;
;
	.dbg	line, "SAUCE/functions/sprite_loading.h", 288
	ldy     _index
	lda     #$FF
	sta     _activesprites_type,y
	jmp     L0066
;
; forced_trails = 2;
;
	.dbg	line, "SAUCE/functions/sprite_loading.h", 290
L007F:	lda     #$02
	sta     _forced_trails
;
; killSprite_return0;
;
	.dbg	line, "SAUCE/functions/sprite_loading.h", 291
	ldy     _index
	lda     #$FF
	sta     _activesprites_type,y
	jmp     L0066
;
; teleport_output = activesprites_realy[index];
;
	.dbg	line, "SAUCE/functions/sprite_loading.h", 294
L0043:	ldy     _index
	lda     _activesprites_realy,y
	sta     _teleport_output
;
; return 0x0f;
;
	.dbg	line, "SAUCE/functions/sprite_loading.h", 295
	lda     #$0F
	rts
;
; teleport_output = activesprites_realy[index] + 0x10;
;
	.dbg	line, "SAUCE/functions/sprite_loading.h", 301
L0048:	ldy     _index
	lda     _activesprites_realy,y
	clc
	adc     #$10
	sta     _teleport_output
;
; return 0x10;
;
	.dbg	line, "SAUCE/functions/sprite_loading.h", 302
	lda     #$10
	rts
;
; teleport_output = activesprites_realy[index] + 0x10;
;
	.dbg	line, "SAUCE/functions/sprite_loading.h", 305
L004B:	ldy     _index
	lda     _activesprites_realy,y
	clc
	adc     #$10
	sta     _teleport_output
;
; return 0x30;
;
	.dbg	line, "SAUCE/functions/sprite_loading.h", 306
	lda     #$30
	rts
;
; if (coin1_obtained[level]) {
;
	.dbg	line, "SAUCE/functions/sprite_loading.h", 309
L004E:	ldy     _level
	lda     _coin1_obtained,y
	beq     L004F
;
; activesprites_type[index] = COINGOTTEN1;
;
	.dbg	line, "SAUCE/functions/sprite_loading.h", 310
	ldy     _index
	lda     #$1C
	sta     _activesprites_type,y
;
; if (coin1_timer) {
;
	.dbg	line, "SAUCE/functions/sprite_loading.h", 313
L004F:	lda     _coin1_timer
	beq     L0080
;
; animate_coin_1();
;
	.dbg	line, "SAUCE/functions/sprite_loading.h", 314
	jsr     _animate_coin_1
;
; return 0x10;
;
	.dbg	line, "SAUCE/functions/sprite_loading.h", 316
	ldx     #$00
L0080:	lda     #$10
	rts
;
; if (coin2_obtained[level]) {
;
	.dbg	line, "SAUCE/functions/sprite_loading.h", 319
L0054:	ldy     _level
	lda     _coin2_obtained,y
	beq     L0055
;
; activesprites_type[index] = COINGOTTEN2;
;
	.dbg	line, "SAUCE/functions/sprite_loading.h", 320
	ldy     _index
	lda     #$1D
	sta     _activesprites_type,y
;
; if (coin2_timer) {
;
	.dbg	line, "SAUCE/functions/sprite_loading.h", 324
L0055:	lda     _coin2_timer
	beq     L0081
;
; animate_coin_2();
;
	.dbg	line, "SAUCE/functions/sprite_loading.h", 325
	jsr     _animate_coin_2
;
; return 0x10;
;
	.dbg	line, "SAUCE/functions/sprite_loading.h", 327
	ldx     #$00
L0081:	lda     #$10
	rts
;
; if (coin3_obtained[level]) {
;
	.dbg	line, "SAUCE/functions/sprite_loading.h", 330
L005A:	ldy     _level
	lda     _coin3_obtained,y
	beq     L0082
;
; activesprites_type[index] = COINGOTTEN3;
;
	.dbg	line, "SAUCE/functions/sprite_loading.h", 331
	ldy     _index
	lda     #$1E
	sta     _activesprites_type,y
;
; if (level == level_fingerdash && minicoins != 10) {
;
	.dbg	line, "SAUCE/functions/sprite_loading.h", 336
L0082:	lda     _level
	cmp     #$14
	bne     L005F
	lda     _minicoins
	cmp     #$0A
	beq     L005F
;
; activesprites_type[index] = 0xFF;
;
	.dbg	line, "SAUCE/functions/sprite_loading.h", 337
	ldy     _index
	lda     #$FF
	sta     _activesprites_type,y
;
; return 0x10;
;
	.dbg	line, "SAUCE/functions/sprite_loading.h", 338
	lda     #$10
	rts
;
; if (coin3_timer) {
;
	.dbg	line, "SAUCE/functions/sprite_loading.h", 341
L005F:	lda     _coin3_timer
	beq     L0085
;
; animate_coin_3();
;
	.dbg	line, "SAUCE/functions/sprite_loading.h", 342
	jsr     _animate_coin_3
;
; return 0x10; 
;
	.dbg	line, "SAUCE/functions/sprite_loading.h", 344
	ldx     #$00
L0085:	lda     #$10
	rts
;
; gameState = STATE_LVLDONE; kandokidshack4 = 0;
;
	.dbg	line, "SAUCE/functions/sprite_loading.h", 347
L0086:	lda     #$03
	sta     _gameState
	stx     _kandokidshack4
;
; return 0;
;
	.dbg	line, "SAUCE/functions/sprite_loading.h", 350
L0066:	txa
;
; }
;
	.dbg	line, "SAUCE/functions/sprite_loading.h", 355
	rts

	.dbg	line
.endproc

; ---------------------------------------------------------------
; void __near__ common_dash_orb_routine (void)
; ---------------------------------------------------------------

.segment	"XCD_BANK_00"

.proc	_common_dash_orb_routine: near

	.dbg	func, "common_dash_orb_routine", "00", static, "_common_dash_orb_routine"

.segment	"XCD_BANK_00"

;
; invert_gravity(currplayer_gravity);
;
	.dbg	line, "SAUCE/functions/sprite_loading.h", 397
	ldx     #$00
	lda     _currplayer_gravity
	eor     #$FF
	sta     _currplayer_gravity
;
; update_currplayer_table_idx();
;
	.dbg	line, "SAUCE/functions/sprite_loading.h", 398
	jmp     _update_currplayer_table_idx

	.dbg	line
.endproc

; ---------------------------------------------------------------
; unsigned int __near__ _sprite_gamemode_y_adjust (void)
; ---------------------------------------------------------------

.segment	"XCD_BANK_06"

.proc	__sprite_gamemode_y_adjust: near

	.dbg	func, "_sprite_gamemode_y_adjust", "00", static, "__sprite_gamemode_y_adjust"

.segment	"XCD_BANK_06"

;
; return ind16BE_load_NOC(sprite_gamemode_adjust_heights(currplayer_table_idx), ((retro_mode && gamemode == GAMEMODE_ROBOT) || gamemode == GAMEMODE_NINJA) ? table_offset : gamemode | table_offset);
;
	.dbg	line, "SAUCE/functions/sprite_loading.h", 420
	lda     _currplayer_table_idx
	asl     a
	tay
	lda     _sprite_gamemode_adjust_heights+1,y
	sta     ptr1+1
	lda     _sprite_gamemode_adjust_heights,y
	sta     ptr1
	lda     _retro_mode
	beq     L000D
	lda     _gamemode
	cmp     #$04
	beq     L0010
L000D:	lda     _gamemode
	cmp     #$08
	bne     L0011
L0010:	lda     _tmp3
	jmp     L0008
L0011:	lda     _gamemode
	ora     _tmp3
L0008:	asl     a
	tay
	lda     (ptr1),y
	tax
	iny
	lda     (ptr1),y
;
; }
;
	.dbg	line, "SAUCE/functions/sprite_loading.h", 421
	rts

	.dbg	line
.endproc

; ---------------------------------------------------------------
; unsigned int __near__ sprite_gamemode_y_adjust (void)
; ---------------------------------------------------------------

.segment	"XCD_BANK_00"

.proc	_sprite_gamemode_y_adjust: near

	.dbg	func, "sprite_gamemode_y_adjust", "00", static, "_sprite_gamemode_y_adjust"

.segment	"XCD_BANK_00"

;
; if (gamemode == GAMEMODE_POGO) {
;
	.dbg	line, "SAUCE/functions/sprite_loading.h", 428
	lda     _gamemode
	cmp     #$09
	bne     L0005
;
; gamemode = GAMEMODE_SWING;
;
	.dbg	line, "SAUCE/functions/sprite_loading.h", 429
	lda     #$07
	sta     _gamemode
;
; tmpA = crossPRGBankJump0(_sprite_gamemode_y_adjust);
;
	.dbg	line, "SAUCE/functions/sprite_loading.h", 430
	lda     #<__sprite_gamemode_y_adjust
	ldx     #>__sprite_gamemode_y_adjust
	ldy     #<.bank(__sprite_gamemode_y_adjust)
	jsr     crossPRGBankJump
	lda     ptr3+1
	sta     _tmpA+1
	lda     ptr3
	sta     _tmpA
;
; gamemode = GAMEMODE_POGO;
;
	.dbg	line, "SAUCE/functions/sprite_loading.h", 431
	lda     #$09
	sta     _gamemode
;
; return tmpA;
;
	.dbg	line, "SAUCE/functions/sprite_loading.h", 432
	lda     _tmpA
	ldx     _tmpA+1
	rts
;
; if (gamemode == GAMEMODE_SNAKE) {
;
	.dbg	line, "SAUCE/functions/sprite_loading.h", 434
L0005:	lda     _gamemode
	cmp     #$0A
	bne     L0006
;
; gamemode = GAMEMODE_WAVE;
;
	.dbg	line, "SAUCE/functions/sprite_loading.h", 435
	lda     #$06
	sta     _gamemode
;
; tmpA = crossPRGBankJump0(_sprite_gamemode_y_adjust);
;
	.dbg	line, "SAUCE/functions/sprite_loading.h", 436
	lda     #<__sprite_gamemode_y_adjust
	ldx     #>__sprite_gamemode_y_adjust
	ldy     #<.bank(__sprite_gamemode_y_adjust)
	jsr     crossPRGBankJump
	lda     ptr3+1
	sta     _tmpA+1
	lda     ptr3
	sta     _tmpA
;
; gamemode = GAMEMODE_SNAKE;
;
	.dbg	line, "SAUCE/functions/sprite_loading.h", 437
	lda     #$0A
	sta     _gamemode
;
; return tmpA;
;
	.dbg	line, "SAUCE/functions/sprite_loading.h", 438
	lda     _tmpA
	ldx     _tmpA+1
	rts
;
; if (gamemode == GAMEMODE_FOOTBALL) {
;
	.dbg	line, "SAUCE/functions/sprite_loading.h", 440
L0006:	lda     _gamemode
	cmp     #$0B
	bne     L0004
;
; gamemode = GAMEMODE_CUBE;
;
	.dbg	line, "SAUCE/functions/sprite_loading.h", 441
	lda     #$00
	sta     _gamemode
;
; tmpA = crossPRGBankJump0(_sprite_gamemode_y_adjust);
;
	.dbg	line, "SAUCE/functions/sprite_loading.h", 442
	lda     #<__sprite_gamemode_y_adjust
	ldx     #>__sprite_gamemode_y_adjust
	ldy     #<.bank(__sprite_gamemode_y_adjust)
	jsr     crossPRGBankJump
	lda     ptr3+1
	sta     _tmpA+1
	lda     ptr3
	sta     _tmpA
;
; gamemode = GAMEMODE_FOOTBALL;
;
	.dbg	line, "SAUCE/functions/sprite_loading.h", 443
	lda     #$0B
	sta     _gamemode
;
; return tmpA;
;
	.dbg	line, "SAUCE/functions/sprite_loading.h", 444
	lda     _tmpA
	ldx     _tmpA+1
	rts
;
; return crossPRGBankJump0(_sprite_gamemode_y_adjust);
;
	.dbg	line, "SAUCE/functions/sprite_loading.h", 446
L0004:	lda     #<__sprite_gamemode_y_adjust
	ldx     #>__sprite_gamemode_y_adjust
	ldy     #<.bank(__sprite_gamemode_y_adjust)
	jsr     crossPRGBankJump
	lda     ptr3
	ldx     ptr3+1
;
; }
;
	.dbg	line, "SAUCE/functions/sprite_loading.h", 447
	rts

	.dbg	line
.endproc

; ---------------------------------------------------------------
; void __near__ gamemode_stuff (void)
; ---------------------------------------------------------------

.segment	"XCD_BANK_00"

.proc	_gamemode_stuff: near

	.dbg	func, "gamemode_stuff", "00", static, "_gamemode_stuff"

.segment	"XCD_BANK_00"

;
; clearrobotjumpframes();  
;
	.dbg	line, "SAUCE/functions/sprite_loading.h", 450
	jsr     _clearrobotjumpframes
;
; if (!dual || twoplayer) target_scroll_y = (lohi_arr16_load(activesprites_y, index) - PORTAL_TO_TOP_DIFF);  
;
	.dbg	line, "SAUCE/functions/sprite_loading.h", 451
	lda     _dual
	beq     L0003
	lda     _twoplayer
	bne     L0003
	rts
L0003:	ldy     _index
	lda     _activesprites_y_lo,y
	ldx     _activesprites_y_hi,y
	sec
	sbc     #$3A
	bcs     L0005
	dex
L0005:	sta     _target_scroll_y
	stx     _target_scroll_y+1
;
; }  
;
	.dbg	line, "SAUCE/functions/sprite_loading.h", 452
	rts

	.dbg	line
.endproc

; ---------------------------------------------------------------
; void __near__ pad_stuff (void)
; ---------------------------------------------------------------

.segment	"XCD_BANK_00"

.proc	_pad_stuff: near

	.dbg	func, "pad_stuff", "00", static, "_pad_stuff"

.segment	"XCD_BANK_00"

;
; clear_slope_stuff();
;
	.dbg	line, "SAUCE/functions/sprite_loading.h", 455
	jsr     _clear_slope_stuff
;
; settrailstuff();
;
	.dbg	line, "SAUCE/functions/sprite_loading.h", 456
	jsr     _settrailstuff
;
; currplayer_vel_y = sprite_gamemode_y_adjust();
;
	.dbg	line, "SAUCE/functions/sprite_loading.h", 457
	jsr     _sprite_gamemode_y_adjust
	sta     _currplayer_vel_y
	stx     _currplayer_vel_y+1
;
; orbhitonthisframe[currplayer] = 1;
;
	.dbg	line, "SAUCE/functions/sprite_loading.h", 458
	ldy     _currplayer
	lda     #$01
	sta     _orbhitonthisframe,y
;
; } 
;
	.dbg	line, "SAUCE/functions/sprite_loading.h", 459
	rts

	.dbg	line
.endproc

; ---------------------------------------------------------------
; void __near__ sprite_gamemode_main (void)
; ---------------------------------------------------------------

.segment	"XCD_BANK_00"

.proc	_sprite_gamemode_main: near

	.dbg	func, "sprite_gamemode_main", "00", static, "_sprite_gamemode_main"

.segment	"XCD_BANK_00"

;
; if (controllingplayer->hold & (PAD_A | PAD_UP)) {
;
	.dbg	line, "SAUCE/functions/sprite_loading.h", 462
	ldy     #$00
	lda     (_controllingplayer),y
	and     #$88
	bne     L0049
;
; }
;
	.dbg	line, "SAUCE/functions/sprite_loading.h", 553
	rts
;
; if (gamemode == BALL_MODE) ball_switched[currplayer] = 1;
;
	.dbg	line, "SAUCE/functions/sprite_loading.h", 463
L0049:	lda     _gamemode
	cmp     #$02
	bne     L0003
	ldy     _currplayer
	lda     #$01
	sta     _ball_switched,y
;
; if ((cube_data[currplayer] & 2) || controllingplayer->press & (PAD_A | PAD_UP)) {
;
	.dbg	line, "SAUCE/functions/sprite_loading.h", 464
L0003:	ldy     _currplayer
	lda     _cube_data,y
	and     #$02
	bne     L003F
	ldy     #$01
	lda     (_controllingplayer),y
	and     #$88
	bne     L003F
	rts
;
; if (gamemode == GAMEMODE_SPIDER && collided == BLACK_ORB) black_orbed[currplayer] = 1;
;
	.dbg	line, "SAUCE/functions/sprite_loading.h", 465
L003F:	lda     _gamemode
	cmp     #$05
	bne     L0042
	lda     _tmp4
	cmp     #$44
	bne     L0042
	ldy     _currplayer
	lda     #$01
	sta     _black_orbed,y
;
; if (gamemode == ROBOT_MODE) orbed[currplayer] = 1;
;
	.dbg	line, "SAUCE/functions/sprite_loading.h", 466
L0042:	lda     _gamemode
	cmp     #$04
	bne     L0043
	ldy     _currplayer
	lda     #$01
	sta     _orbed,y
;
; idx8_store(cube_data, currplayer, cube_data[currplayer] & 1);
;
	.dbg	line, "SAUCE/functions/sprite_loading.h", 467
L0043:	ldy     _currplayer
	lda     _cube_data,y
	and     #$01
	ldx     #$00
	sta     _cube_data,y
;
; settrailstuff();
;
	.dbg	line, "SAUCE/functions/sprite_loading.h", 468
	jsr     _settrailstuff
;
; clear_slope_stuff();
;
	.dbg	line, "SAUCE/functions/sprite_loading.h", 469
	jsr     _clear_slope_stuff
;
; switch (collided) {
;
	.dbg	line, "SAUCE/functions/sprite_loading.h", 471
	ldx     #$00
	lda     _tmp4
;
; };
;
	.dbg	line, "SAUCE/functions/sprite_loading.h", 544
	cmp     #$05
	beq     L0014
	cmp     #$27
	jeq     L001A
	cmp     #$45
	jeq     L0045
	cmp     #$46
	jeq     L001D
	cmp     #$4C
	jeq     L0023
	cmp     #$4D
	jeq     L0022
	cmp     #$50
	jeq     L0028
	cmp     #$51
	jeq     L0027
	cmp     #$5B
	jeq     L002D
	cmp     #$5C
	jeq     L002C
	cmp     #$5D
	jeq     L0032
	cmp     #$5E
	jeq     L0031
	cmp     #$7B
	beq     L0014
	cmp     #$7C
	beq     L001A
	jmp     L0036
;
; if (!activesprites_activated[index]) {
;
	.dbg	line, "SAUCE/functions/sprite_loading.h", 474
L0014:	ldy     _index
	lda     _activesprites_activated,y
	jne     L0012
;
; invert_gravity(currplayer_gravity); invert_gravity(player_gravity[0]); invert_gravity(player_gravity[1]);
;
	.dbg	line, "SAUCE/functions/sprite_loading.h", 475
	lda     _currplayer_gravity
	eor     #$FF
	sta     _currplayer_gravity
	lda     _player_gravity
	eor     #$FF
	sta     _player_gravity
	lda     _player_gravity+1
	eor     #$FF
	sta     _player_gravity+1
;
; update_currplayer_table_idx();
;
	.dbg	line, "SAUCE/functions/sprite_loading.h", 476
	jsr     _update_currplayer_table_idx
;
; dual_cap_check();
;
	.dbg	line, "SAUCE/functions/sprite_loading.h", 477
	jsr     _dual_cap_check
;
; if (gamemode != BALL_MODE) {
;
	.dbg	line, "SAUCE/functions/sprite_loading.h", 478
	lda     _gamemode
	cmp     #$02
	beq     L0044
;
; currplayer_vel_y = PAD_HEIGHT_BLUE(currplayer_table_idx);
;
	.dbg	line, "SAUCE/functions/sprite_loading.h", 479
	ldy     _currplayer_table_idx
	lda     _PAD_HEIGHT_BLUE_hi,y
	sta     _currplayer_vel_y+1
	lda     _PAD_HEIGHT_BLUE_lo,y
	sta     _currplayer_vel_y
;
; } else {
;
	.dbg	line, "SAUCE/functions/sprite_loading.h", 480
	jmp     L0012
;
; currplayer_vel_y = ORB_BALL_HEIGHT_BLUE(currplayer_table_idx);
;
	.dbg	line, "SAUCE/functions/sprite_loading.h", 481
L0044:	ldy     _currplayer_table_idx
	lda     _ORB_BALL_HEIGHT_BLUE_hi,y
	sta     _currplayer_vel_y+1
	lda     _ORB_BALL_HEIGHT_BLUE_lo,y
	sta     _currplayer_vel_y
;
; break;
;
	.dbg	line, "SAUCE/functions/sprite_loading.h", 484
	jmp     L0012
;
; if (!activesprites_activated[index]) {
;
	.dbg	line, "SAUCE/functions/sprite_loading.h", 487
L001A:	ldy     _index
	lda     _activesprites_activated,y
	jne     L0012
;
; invert_gravity(currplayer_gravity); invert_gravity(player_gravity[0]); invert_gravity(player_gravity[1]);
;
	.dbg	line, "SAUCE/functions/sprite_loading.h", 488
	lda     _currplayer_gravity
	eor     #$FF
	sta     _currplayer_gravity
	lda     _player_gravity
	eor     #$FF
	sta     _player_gravity
	lda     _player_gravity+1
	eor     #$FF
	sta     _player_gravity+1
;
; update_currplayer_table_idx();
;
	.dbg	line, "SAUCE/functions/sprite_loading.h", 489
	jsr     _update_currplayer_table_idx
;
; dual_cap_check();
;
	.dbg	line, "SAUCE/functions/sprite_loading.h", 490
	jsr     _dual_cap_check
;
; break;
;
	.dbg	line, "SAUCE/functions/sprite_loading.h", 493
	jmp     L0036
;
; if (!dashing[currplayer]) { 
;
	.dbg	line, "SAUCE/functions/sprite_loading.h", 495
L001D:	ldy     _currplayer
	lda     _dashing,y
	bne     L0045
;
; common_dash_orb_routine();
;
	.dbg	line, "SAUCE/functions/sprite_loading.h", 496
	jsr     _common_dash_orb_routine
;
; currplayer_vel_y = 0;
;
	.dbg	line, "SAUCE/functions/sprite_loading.h", 500
L0045:	lda     #$00
	sta     _currplayer_vel_y
	sta     _currplayer_vel_y+1
;
; dashing[currplayer] = 1;
;
	.dbg	line, "SAUCE/functions/sprite_loading.h", 501
	ldy     _currplayer
	lda     #$01
	sta     _dashing,y
;
; break;
;
	.dbg	line, "SAUCE/functions/sprite_loading.h", 502
	jmp     L0012
;
; if (!dashing[currplayer]) {
;
	.dbg	line, "SAUCE/functions/sprite_loading.h", 504
L0022:	ldy     _currplayer
	lda     _dashing,y
	bne     L0023
;
; common_dash_orb_routine();
;
	.dbg	line, "SAUCE/functions/sprite_loading.h", 505
	jsr     _common_dash_orb_routine
;
; currplayer_vel_y = -currplayer_vel_x;
;
	.dbg	line, "SAUCE/functions/sprite_loading.h", 509
L0023:	lda     _currplayer_vel_x
	ldx     _currplayer_vel_x+1
	jsr     negax
	sta     _currplayer_vel_y
	stx     _currplayer_vel_y+1
;
; dashing[currplayer] = 2;
;
	.dbg	line, "SAUCE/functions/sprite_loading.h", 510
	ldy     _currplayer
	lda     #$02
	sta     _dashing,y
;
; break;
;
	.dbg	line, "SAUCE/functions/sprite_loading.h", 511
	jmp     L0012
;
; if (!dashing[currplayer]) {
;
	.dbg	line, "SAUCE/functions/sprite_loading.h", 513
L0027:	ldy     _currplayer
	lda     _dashing,y
	bne     L0028
;
; common_dash_orb_routine();
;
	.dbg	line, "SAUCE/functions/sprite_loading.h", 514
	jsr     _common_dash_orb_routine
;
; currplayer_vel_y = currplayer_vel_x;
;
	.dbg	line, "SAUCE/functions/sprite_loading.h", 518
L0028:	lda     _currplayer_vel_x+1
	sta     _currplayer_vel_y+1
	lda     _currplayer_vel_x
	sta     _currplayer_vel_y
;
; dashing[currplayer] = 3;
;
	.dbg	line, "SAUCE/functions/sprite_loading.h", 519
	ldy     _currplayer
	lda     #$03
	sta     _dashing,y
;
; break;
;
	.dbg	line, "SAUCE/functions/sprite_loading.h", 520
	jmp     L0012
;
; if (!dashing[currplayer]) {
;
	.dbg	line, "SAUCE/functions/sprite_loading.h", 522
L002C:	ldy     _currplayer
	lda     _dashing,y
	bne     L002D
;
; common_dash_orb_routine();
;
	.dbg	line, "SAUCE/functions/sprite_loading.h", 523
	jsr     _common_dash_orb_routine
;
; currplayer_vel_y = currplayer_vel_x * 4;
;
	.dbg	line, "SAUCE/functions/sprite_loading.h", 527
L002D:	lda     _currplayer_vel_x
	ldx     _currplayer_vel_x+1
	jsr     aslax2
	sta     _currplayer_vel_y
	stx     _currplayer_vel_y+1
;
; dashing[currplayer] = 4;
;
	.dbg	line, "SAUCE/functions/sprite_loading.h", 529
	ldy     _currplayer
	lda     #$04
	sta     _dashing,y
;
; break;
;
	.dbg	line, "SAUCE/functions/sprite_loading.h", 530
	jmp     L0012
;
; if (!dashing[currplayer]) {
;
	.dbg	line, "SAUCE/functions/sprite_loading.h", 532
L0031:	ldy     _currplayer
	lda     _dashing,y
	bne     L0032
;
; common_dash_orb_routine();
;
	.dbg	line, "SAUCE/functions/sprite_loading.h", 533
	jsr     _common_dash_orb_routine
;
; currplayer_vel_y = -currplayer_vel_x * 4;
;
	.dbg	line, "SAUCE/functions/sprite_loading.h", 537
L0032:	lda     _currplayer_vel_x
	ldx     _currplayer_vel_x+1
	jsr     negax
	jsr     aslax2
	sta     _currplayer_vel_y
	stx     _currplayer_vel_y+1
;
; dashing[currplayer] = 5;
;
	.dbg	line, "SAUCE/functions/sprite_loading.h", 539
	ldy     _currplayer
	lda     #$05
	sta     _dashing,y
;
; break;
;
	.dbg	line, "SAUCE/functions/sprite_loading.h", 540
	jmp     L0012
;
; currplayer_vel_y = sprite_gamemode_y_adjust();
;
	.dbg	line, "SAUCE/functions/sprite_loading.h", 542
L0036:	jsr     _sprite_gamemode_y_adjust
	sta     _currplayer_vel_y
	stx     _currplayer_vel_y+1
;
; activesprites_type[index] != BLUE_ORB_MULTI &&
;
	.dbg	line, "SAUCE/functions/sprite_loading.h", 546
L0012:	ldy     _index
	lda     _activesprites_type,y
	cmp     #$7B
	beq     L0037
;
; activesprites_type[index] != GREEN_ORB_MULTI
;
	.dbg	line, "SAUCE/functions/sprite_loading.h", 547
	ldy     _index
	lda     _activesprites_type,y
;
; ) 
;
	.dbg	line, "SAUCE/functions/sprite_loading.h", 548
	cmp     #$7C
	beq     L0037
;
; idx8_inc(activesprites_activated, index);  
;
	.dbg	line, "SAUCE/functions/sprite_loading.h", 549
	ldx     _index
	inc     _activesprites_activated,x
;
; orbhitonthisframe[currplayer] = 1;
;
	.dbg	line, "SAUCE/functions/sprite_loading.h", 550
L0037:	ldy     _currplayer
	lda     #$01
	sta     _orbhitonthisframe,y
;
; }
;
	.dbg	line, "SAUCE/functions/sprite_loading.h", 553
	rts

	.dbg	line
.endproc

; ---------------------------------------------------------------
; void __near__ sprite_gamemode_controller_check (void)
; ---------------------------------------------------------------

.segment	"XCD_BANK_00"

.proc	_sprite_gamemode_controller_check: near

	.dbg	func, "sprite_gamemode_controller_check", "00", static, "_sprite_gamemode_controller_check"

.segment	"XCD_BANK_00"

;
; if (controllingplayer->press & (PAD_A | PAD_UP)) { 
;
	.dbg	line, "SAUCE/functions/sprite_loading.h", 556
	ldy     #$01
	lda     (_controllingplayer),y
	and     #$88
	bne     L0036
;
; }
;
	.dbg	line, "SAUCE/functions/sprite_loading.h", 642
	rts
;
; idx8_store(cube_data, currplayer, cube_data[currplayer] & 0x01);
;
	.dbg	line, "SAUCE/functions/sprite_loading.h", 557
L0036:	ldy     _currplayer
	lda     _cube_data,y
	and     #$01
	ldx     #$00
	sta     _cube_data,y
;
; settrailstuff();
;
	.dbg	line, "SAUCE/functions/sprite_loading.h", 558
	jsr     _settrailstuff
;
; switch (collided) {
;
	.dbg	line, "SAUCE/functions/sprite_loading.h", 559
	ldx     #$00
	lda     _tmp4
;
; };
;
	.dbg	line, "SAUCE/functions/sprite_loading.h", 635
	cmp     #$05
	beq     L0007
	cmp     #$27
	jeq     L000D
	cmp     #$45
	jeq     L0032
	cmp     #$46
	jeq     L0010
	cmp     #$4C
	jeq     L0016
	cmp     #$4D
	jeq     L0015
	cmp     #$50
	jeq     L001B
	cmp     #$51
	jeq     L001A
	cmp     #$5B
	jeq     L0020
	cmp     #$5C
	jeq     L001F
	cmp     #$5D
	jeq     L0025
	cmp     #$5E
	jeq     L0024
	cmp     #$7B
	beq     L0007
	cmp     #$7C
	beq     L000D
	jmp     L0029
;
; if (!activesprites_activated[index]) {
;
	.dbg	line, "SAUCE/functions/sprite_loading.h", 562
L0007:	ldy     _index
	lda     _activesprites_activated,y
	jne     L0005
;
; invert_gravity(currplayer_gravity); invert_gravity(player_gravity[0]); invert_gravity(player_gravity[1]);
;
	.dbg	line, "SAUCE/functions/sprite_loading.h", 563
	lda     _currplayer_gravity
	eor     #$FF
	sta     _currplayer_gravity
	lda     _player_gravity
	eor     #$FF
	sta     _player_gravity
	lda     _player_gravity+1
	eor     #$FF
	sta     _player_gravity+1
;
; update_currplayer_table_idx();
;
	.dbg	line, "SAUCE/functions/sprite_loading.h", 564
	jsr     _update_currplayer_table_idx
;
; dual_cap_check();
;
	.dbg	line, "SAUCE/functions/sprite_loading.h", 565
	jsr     _dual_cap_check
;
; if (gamemode != BALL_MODE) {
;
	.dbg	line, "SAUCE/functions/sprite_loading.h", 567
	lda     _gamemode
	cmp     #$02
	beq     L0031
;
; currplayer_vel_y = PAD_HEIGHT_BLUE(currplayer_table_idx);
;
	.dbg	line, "SAUCE/functions/sprite_loading.h", 568
	ldy     _currplayer_table_idx
	lda     _PAD_HEIGHT_BLUE_hi,y
	sta     _currplayer_vel_y+1
	lda     _PAD_HEIGHT_BLUE_lo,y
	sta     _currplayer_vel_y
;
; } else {
;
	.dbg	line, "SAUCE/functions/sprite_loading.h", 569
	jmp     L0005
;
; currplayer_vel_y = ORB_BALL_HEIGHT_BLUE(currplayer_table_idx);
;
	.dbg	line, "SAUCE/functions/sprite_loading.h", 570
L0031:	ldy     _currplayer_table_idx
	lda     _ORB_BALL_HEIGHT_BLUE_hi,y
	sta     _currplayer_vel_y+1
	lda     _ORB_BALL_HEIGHT_BLUE_lo,y
	sta     _currplayer_vel_y
;
; break;
;
	.dbg	line, "SAUCE/functions/sprite_loading.h", 573
	jmp     L0005
;
; if (!activesprites_activated[index]) {
;
	.dbg	line, "SAUCE/functions/sprite_loading.h", 576
L000D:	ldy     _index
	lda     _activesprites_activated,y
	jne     L0005
;
; invert_gravity(currplayer_gravity); invert_gravity(player_gravity[0]); invert_gravity(player_gravity[1]);
;
	.dbg	line, "SAUCE/functions/sprite_loading.h", 577
	lda     _currplayer_gravity
	eor     #$FF
	sta     _currplayer_gravity
	lda     _player_gravity
	eor     #$FF
	sta     _player_gravity
	lda     _player_gravity+1
	eor     #$FF
	sta     _player_gravity+1
;
; update_currplayer_table_idx();
;
	.dbg	line, "SAUCE/functions/sprite_loading.h", 578
	jsr     _update_currplayer_table_idx
;
; dual_cap_check();
;
	.dbg	line, "SAUCE/functions/sprite_loading.h", 579
	jsr     _dual_cap_check
;
; break;
;
	.dbg	line, "SAUCE/functions/sprite_loading.h", 584
	jmp     L0029
;
; if (!dashing[currplayer]) {
;
	.dbg	line, "SAUCE/functions/sprite_loading.h", 586
L0010:	ldy     _currplayer
	lda     _dashing,y
	bne     L0032
;
; common_dash_orb_routine();
;
	.dbg	line, "SAUCE/functions/sprite_loading.h", 587
	jsr     _common_dash_orb_routine
;
; currplayer_vel_y = 0;
;
	.dbg	line, "SAUCE/functions/sprite_loading.h", 591
L0032:	lda     #$00
	sta     _currplayer_vel_y
	sta     _currplayer_vel_y+1
;
; dashing[currplayer] = 1;
;
	.dbg	line, "SAUCE/functions/sprite_loading.h", 592
	ldy     _currplayer
	lda     #$01
	sta     _dashing,y
;
; break;
;
	.dbg	line, "SAUCE/functions/sprite_loading.h", 593
	jmp     L0005
;
; if (!dashing[currplayer]) {
;
	.dbg	line, "SAUCE/functions/sprite_loading.h", 595
L0015:	ldy     _currplayer
	lda     _dashing,y
	bne     L0016
;
; common_dash_orb_routine();
;
	.dbg	line, "SAUCE/functions/sprite_loading.h", 596
	jsr     _common_dash_orb_routine
;
; currplayer_vel_y = -currplayer_vel_x;
;
	.dbg	line, "SAUCE/functions/sprite_loading.h", 600
L0016:	lda     _currplayer_vel_x
	ldx     _currplayer_vel_x+1
	jsr     negax
	sta     _currplayer_vel_y
	stx     _currplayer_vel_y+1
;
; dashing[currplayer] = 2;
;
	.dbg	line, "SAUCE/functions/sprite_loading.h", 601
	ldy     _currplayer
	lda     #$02
	sta     _dashing,y
;
; break; 
;
	.dbg	line, "SAUCE/functions/sprite_loading.h", 602
	jmp     L0005
;
; if (!dashing[currplayer]) {
;
	.dbg	line, "SAUCE/functions/sprite_loading.h", 604
L001A:	ldy     _currplayer
	lda     _dashing,y
	bne     L001B
;
; common_dash_orb_routine();
;
	.dbg	line, "SAUCE/functions/sprite_loading.h", 605
	jsr     _common_dash_orb_routine
;
; currplayer_vel_y = currplayer_vel_x;
;
	.dbg	line, "SAUCE/functions/sprite_loading.h", 609
L001B:	lda     _currplayer_vel_x+1
	sta     _currplayer_vel_y+1
	lda     _currplayer_vel_x
	sta     _currplayer_vel_y
;
; dashing[currplayer] = 3;
;
	.dbg	line, "SAUCE/functions/sprite_loading.h", 610
	ldy     _currplayer
	lda     #$03
	sta     _dashing,y
;
; break;  
;
	.dbg	line, "SAUCE/functions/sprite_loading.h", 611
	jmp     L0005
;
; if (!dashing[currplayer]) {
;
	.dbg	line, "SAUCE/functions/sprite_loading.h", 613
L001F:	ldy     _currplayer
	lda     _dashing,y
	bne     L0020
;
; common_dash_orb_routine();
;
	.dbg	line, "SAUCE/functions/sprite_loading.h", 614
	jsr     _common_dash_orb_routine
;
; currplayer_vel_y = currplayer_vel_x;
;
	.dbg	line, "SAUCE/functions/sprite_loading.h", 618
L0020:	lda     _currplayer_vel_x+1
	sta     _currplayer_vel_y+1
	lda     _currplayer_vel_x
	sta     _currplayer_vel_y
;
; currplayer_vel_x = 0;
;
	.dbg	line, "SAUCE/functions/sprite_loading.h", 619
	lda     #$00
	sta     _currplayer_vel_x
	sta     _currplayer_vel_x+1
;
; dashing[currplayer] = 4;
;
	.dbg	line, "SAUCE/functions/sprite_loading.h", 620
	ldy     _currplayer
	lda     #$04
	sta     _dashing,y
;
; break; 
;
	.dbg	line, "SAUCE/functions/sprite_loading.h", 621
	jmp     L0005
;
; if (!dashing[currplayer]) {
;
	.dbg	line, "SAUCE/functions/sprite_loading.h", 623
L0024:	ldy     _currplayer
	lda     _dashing,y
	bne     L0025
;
; common_dash_orb_routine();
;
	.dbg	line, "SAUCE/functions/sprite_loading.h", 624
	jsr     _common_dash_orb_routine
;
; currplayer_vel_y = -currplayer_vel_x;
;
	.dbg	line, "SAUCE/functions/sprite_loading.h", 628
L0025:	lda     _currplayer_vel_x
	ldx     _currplayer_vel_x+1
	jsr     negax
	sta     _currplayer_vel_y
	stx     _currplayer_vel_y+1
;
; currplayer_vel_x = 0;
;
	.dbg	line, "SAUCE/functions/sprite_loading.h", 629
	lda     #$00
	sta     _currplayer_vel_x
	sta     _currplayer_vel_x+1
;
; dashing[currplayer] = 5;
;
	.dbg	line, "SAUCE/functions/sprite_loading.h", 630
	ldy     _currplayer
	lda     #$05
	sta     _dashing,y
;
; break;
;
	.dbg	line, "SAUCE/functions/sprite_loading.h", 631
	jmp     L0005
;
; currplayer_vel_y = sprite_gamemode_y_adjust();
;
	.dbg	line, "SAUCE/functions/sprite_loading.h", 633
L0029:	jsr     _sprite_gamemode_y_adjust
	sta     _currplayer_vel_y
	stx     _currplayer_vel_y+1
;
; activesprites_type[index] != BLUE_ORB_MULTI &&
;
	.dbg	line, "SAUCE/functions/sprite_loading.h", 637
L0005:	ldy     _index
	lda     _activesprites_type,y
	cmp     #$7B
	beq     L0033
;
; activesprites_type[index] != GREEN_ORB_MULTI
;
	.dbg	line, "SAUCE/functions/sprite_loading.h", 638
	ldy     _index
	lda     _activesprites_type,y
;
; ) 
;
	.dbg	line, "SAUCE/functions/sprite_loading.h", 639
	cmp     #$7C
	bne     L0034
L0033:	rts
;
; idx8_inc(activesprites_activated, index);
;
	.dbg	line, "SAUCE/functions/sprite_loading.h", 640
L0034:	ldx     _index
	inc     _activesprites_activated,x
;
; }
;
	.dbg	line, "SAUCE/functions/sprite_loading.h", 642
	rts

	.dbg	line
.endproc

; ---------------------------------------------------------------
; void __near__ sprite_collide_lookup (void)
; ---------------------------------------------------------------

.segment	"XCD_BANK_00"

.proc	_sprite_collide_lookup: near

	.dbg	func, "sprite_collide_lookup", "00", static, "_sprite_collide_lookup"

.segment	"XCD_BANK_00"

;
; if (activesprites_activated[index] && !dual && !(options & platformer) && !force_platformer)
;
	.dbg	line, "SAUCE/functions/sprite_loading.h", 716
	ldy     _index
	lda     _activesprites_activated,y
	beq     L00CF
	lda     _dual
	bne     L00CF
	lda     _options
	and     #$04
	bne     L00CF
	lda     _force_platformer
	bne     L00CF
;
; return;
;
	.dbg	line, "SAUCE/functions/sprite_loading.h", 717
	rts
;
; if (collided < 0x7F)
;
	.dbg	line, "SAUCE/functions/sprite_loading.h", 720
L00CF:	lda     _tmp4
	cmp     #$7F
	bcs     L00D0
;
; goto *sprite_collide_jump_table_0[collided];
;
	.dbg	line, "SAUCE/functions/sprite_loading.h", 721
	asl     a
	tay
	lda     M0001,y
	ldx     M0001+1,y
	jmp     callax
;
; else if (collided == 0x7F) return;
;
	.dbg	line, "SAUCE/functions/sprite_loading.h", 722
L00D0:	lda     _tmp4
	cmp     #$7F
	bne     L00ED
;
; }
;
	.dbg	line, "SAUCE/functions/sprite_loading.h", 1138
	rts
;
; else if (collided >= 0x80)
;
	.dbg	line, "SAUCE/functions/sprite_loading.h", 723
L00ED:	cmp     #$80
	bcs     L00EE
;
; }
;
	.dbg	line, "SAUCE/functions/sprite_loading.h", 1138
	rts
;
; jumpInTableWithOffset(sprite_collide_jump_table_1, collided, 0);
;
	.dbg	line, "SAUCE/functions/sprite_loading.h", 724
L00EE:	asl     a
	tay
	lda     M0081-$0000,y
	ldx     M0081-$0000+1,y
	jmp     callax
;
; return;
;
	.dbg	line, "SAUCE/functions/sprite_loading.h", 727
L000F:	rts
;
; activesprites_animated[index] = 1;
;
	.dbg	line, "SAUCE/functions/sprite_loading.h", 732
L0038:	ldy     _index
	lda     #$01
	sta     _activesprites_animated,y
;
; if ((gamemode == GAMEMODE_CUBE || gamemode == GAMEMODE_POGO ||gamemode == GAMEMODE_BALL || gamemode == GAMEMODE_ROBOT || gamemode == GAMEMODE_NINJA || gamemode == GAMEMODE_SPIDER || gamemode >= GAMEMODE_SWING) && cube_data[currplayer] & 0x02) {
;
	.dbg	line, "SAUCE/functions/sprite_loading.h", 733
	lda     _gamemode
	beq     L00D1
	cmp     #$09
	beq     L00D1
	cmp     #$02
	beq     L00D1
	cmp     #$04
	beq     L00D1
	cmp     #$08
	beq     L00D1
	cmp     #$05
	beq     L00D1
	cmp     #$07
	bcc     L004B
L00D1:	ldy     _currplayer
	lda     _cube_data,y
	and     #$02
	beq     L004B
;
; if (controllingplayer->hold & (PAD_A | PAD_UP)) {
;
	.dbg	line, "SAUCE/functions/sprite_loading.h", 734
	ldy     #$00
	lda     (_controllingplayer),y
	and     #$88
	beq     L0056
;
; idx8_store(cube_data,currplayer,cube_data[currplayer] | 0x01);
;
	.dbg	line, "SAUCE/functions/sprite_loading.h", 735
	ldy     _currplayer
	lda     _cube_data,y
	ora     #$01
	sta     _cube_data,y
;
; activesprites_animated[index] = 0;
;
	.dbg	line, "SAUCE/functions/sprite_loading.h", 736
	ldy     _index
	lda     #$00
	sta     _activesprites_animated,y
;
; } else {
;
	.dbg	line, "SAUCE/functions/sprite_loading.h", 738
	rts
;
; if (controllingplayer->press & (PAD_A | PAD_UP)) { 
;
	.dbg	line, "SAUCE/functions/sprite_loading.h", 739
L004B:	ldy     #$01
	lda     (_controllingplayer),y
	and     #$88
	bne     L00EF
;
; }
;
	.dbg	line, "SAUCE/functions/sprite_loading.h", 1138
	rts
;
; idx8_store(cube_data,currplayer,cube_data[currplayer] | 0x01);
;
	.dbg	line, "SAUCE/functions/sprite_loading.h", 740
L00EF:	ldy     _currplayer
	lda     _cube_data,y
	ora     #$01
	sta     _cube_data,y
;
; activesprites_animated[index] = 0;
;
	.dbg	line, "SAUCE/functions/sprite_loading.h", 741
	ldy     _index
	lda     #$00
	sta     _activesprites_animated,y
;
; return;
;
	.dbg	line, "SAUCE/functions/sprite_loading.h", 744
L0056:	rts
;
; if ((gamemode == GAMEMODE_CUBE || gamemode == GAMEMODE_POGO || gamemode == GAMEMODE_BALL || gamemode == GAMEMODE_ROBOT || gamemode == GAMEMODE_NINJA || gamemode == GAMEMODE_SPIDER || gamemode >= GAMEMODE_SWING) && cube_data[currplayer] & 0x02) {
;
	.dbg	line, "SAUCE/functions/sprite_loading.h", 747
L0039:	lda     _gamemode
	beq     L00D5
	cmp     #$09
	beq     L00D5
	cmp     #$02
	beq     L00D5
	cmp     #$04
	beq     L00D5
	cmp     #$08
	beq     L00D5
	cmp     #$05
	beq     L00D5
	cmp     #$07
	bcc     L0059
L00D5:	ldy     _currplayer
	lda     _cube_data,y
	and     #$02
	beq     L0059
;
; if (controllingplayer->hold & (PAD_A | PAD_UP)) {
;
	.dbg	line, "SAUCE/functions/sprite_loading.h", 748
	ldy     #$00
	lda     (_controllingplayer),y
	and     #$88
	beq     L0063
;
; currplayer_vel_y = 0;
;
	.dbg	line, "SAUCE/functions/sprite_loading.h", 749
	tya
	sta     _currplayer_vel_y
	sta     _currplayer_vel_y+1
;
; activesprites_activated[index] = 1;
;
	.dbg	line, "SAUCE/functions/sprite_loading.h", 750
	ldy     _index
	lda     #$01
	sta     _activesprites_activated,y
;
; } else {
;
	.dbg	line, "SAUCE/functions/sprite_loading.h", 752
	rts
;
; if (controllingplayer->press & (PAD_A | PAD_UP)) { 
;
	.dbg	line, "SAUCE/functions/sprite_loading.h", 753
L0059:	ldy     #$01
	lda     (_controllingplayer),y
	and     #$88
	bne     L00F0
;
; }
;
	.dbg	line, "SAUCE/functions/sprite_loading.h", 1138
	rts
;
; currplayer_vel_y = 0;
;
	.dbg	line, "SAUCE/functions/sprite_loading.h", 754
L00F0:	lda     #$00
	sta     _currplayer_vel_y
	sta     _currplayer_vel_y+1
;
; activesprites_activated[index] = 1;
;
	.dbg	line, "SAUCE/functions/sprite_loading.h", 755
	ldy     _index
	lda     #$01
	sta     _activesprites_activated,y
;
; return;
;
	.dbg	line, "SAUCE/functions/sprite_loading.h", 759
L0063:	rts
;
; orbactive = 0;
;
	.dbg	line, "SAUCE/functions/sprite_loading.h", 762
L0002:	lda     #$00
	sta     _orbactive
;
; robotjumpframe[0] = 0;
;
	.dbg	line, "SAUCE/functions/sprite_loading.h", 763
	sta     _robotjumpframe
;
; robotjumpframe[1] = 0;
;
	.dbg	line, "SAUCE/functions/sprite_loading.h", 764
	sta     _robotjumpframe+1
;
; exitPortalTimer = 10;
;
	.dbg	line, "SAUCE/functions/sprite_loading.h", 765
	lda     #$0A
	sta     _exitPortalTimer
;
; if (gamemode == GAMEMODE_WAVE || gamemode == GAMEMODE_SNAKE) currplayer_vel_y = 0;
;
	.dbg	line, "SAUCE/functions/sprite_loading.h", 766
	lda     _gamemode
	cmp     #$06
	beq     L00D9
	cmp     #$0A
	beq     L00D9
	ldx     #$00
	jmp     L0065
L00D9:	ldx     #$00
	txa
	sta     _currplayer_vel_y
	sta     _currplayer_vel_y+1
;
; if (retro_mode) gamemode = GAMEMODE_ROBOT;
;
	.dbg	line, "SAUCE/functions/sprite_loading.h", 767
L0065:	lda     _retro_mode
	beq     L00C9
	lda     #$04
;
; else gamemode = GAMEMODE_CUBE;
;
	.dbg	line, "SAUCE/functions/sprite_loading.h", 768
L00C9:	sta     _gamemode
;
; clearrobotjumpframes();
;
	.dbg	line, "SAUCE/functions/sprite_loading.h", 769
	jmp     _clearrobotjumpframes
;
; settrailstuff();
;
	.dbg	line, "SAUCE/functions/sprite_loading.h", 773
L0003:	jsr     _settrailstuff
;
; if (gamemode != collided) currplayer_vel_y /= 2;
;
	.dbg	line, "SAUCE/functions/sprite_loading.h", 776
L0004:	lda     _gamemode
	cmp     _tmp4
	beq     L00DB
	lda     _currplayer_vel_y
	ldx     _currplayer_vel_y+1
	cpx     #$00
	bpl     L006B
	sta     regsave
	stx     regsave+1
	cpx     #$FF
	bne     L006D
	cmp     #$FF
L006D:	jsr     boolult
	lsr     a
	lda     regsave
	ldx     regsave+1
	bcs     L006B
	ldx     #$00
	txa
	jmp     L006C
L006B:	jsr     asrax1
L006C:	sta     _currplayer_vel_y
	stx     _currplayer_vel_y+1
;
; gamemode = collided;
;
	.dbg	line, "SAUCE/functions/sprite_loading.h", 777
L00DB:	lda     _tmp4
	sta     _gamemode
;
; activesprites_activated[index] = 1;
;
	.dbg	line, "SAUCE/functions/sprite_loading.h", 778
	ldy     _index
	lda     #$01
	sta     _activesprites_activated,y
;
; gamemode_stuff();
;
	.dbg	line, "SAUCE/functions/sprite_loading.h", 779
	jmp     _gamemode_stuff
;
; exitPortalTimer = 10;
;
	.dbg	line, "SAUCE/functions/sprite_loading.h", 783
L0005:	lda     #$0A
	sta     _exitPortalTimer
;
; if (gamemode == GAMEMODE_WAVE || gamemode == GAMEMODE_SNAKE) currplayer_vel_y /= 2;
;
	.dbg	line, "SAUCE/functions/sprite_loading.h", 784
	lda     _gamemode
	cmp     #$06
	beq     L00DC
	cmp     #$0A
	bne     L00EC
L00DC:	lda     _currplayer_vel_y
	ldx     _currplayer_vel_y+1
	cpx     #$00
	bpl     L0072
	sta     regsave
	stx     regsave+1
	cpx     #$FF
	bne     L0074
	cmp     #$FF
L0074:	jsr     boolult
	lsr     a
	lda     regsave
	ldx     regsave+1
	bcs     L0072
	ldx     #$00
	txa
	jmp     L0073
L0072:	jsr     asrax1
L0073:	sta     _currplayer_vel_y
	stx     _currplayer_vel_y+1
;
; gamemode = GAMEMODE_ROBOT;
;
	.dbg	line, "SAUCE/functions/sprite_loading.h", 785
L00EC:	ldx     #$00
	lda     #$04
	sta     _gamemode
;
; clearrobotjumpframes();
;
	.dbg	line, "SAUCE/functions/sprite_loading.h", 786
	jmp     _clearrobotjumpframes
;
; if (gamemode == GAMEMODE_WAVE || gamemode == GAMEMODE_SNAKE) currplayer_vel_y = 0;
;
	.dbg	line, "SAUCE/functions/sprite_loading.h", 790
L0013:	lda     _gamemode
	cmp     #$06
	beq     L00DE
	cmp     #$0A
	bne     L00DF
L00DE:	lda     #$00
	sta     _currplayer_vel_y
	sta     _currplayer_vel_y+1
;
; gamemode = GAMEMODE_SPIDER;
;
	.dbg	line, "SAUCE/functions/sprite_loading.h", 791
L00DF:	lda     #$05
	sta     _gamemode
;
; gamemode_stuff();
;
	.dbg	line, "SAUCE/functions/sprite_loading.h", 792
	jmp     _gamemode_stuff
;
; settrailstuff();  
;
	.dbg	line, "SAUCE/functions/sprite_loading.h", 796
L001D:	jsr     _settrailstuff
;
; gamemode = GAMEMODE_WAVE;
;
	.dbg	line, "SAUCE/functions/sprite_loading.h", 797
	lda     #$06
	sta     _gamemode
;
; gamemode_stuff();
;
	.dbg	line, "SAUCE/functions/sprite_loading.h", 798
	jmp     _gamemode_stuff
;
; settrailstuff();  
;
	.dbg	line, "SAUCE/functions/sprite_loading.h", 802
L0034:	jsr     _settrailstuff
;
; gamemode = GAMEMODE_SNAKE;
;
	.dbg	line, "SAUCE/functions/sprite_loading.h", 803
	lda     #$0A
	sta     _gamemode
;
; gamemode_stuff();
;
	.dbg	line, "SAUCE/functions/sprite_loading.h", 804
	jmp     _gamemode_stuff
;
; gamemode = GAMEMODE_FOOTBALL;
;
	.dbg	line, "SAUCE/functions/sprite_loading.h", 808
L0035:	lda     #$0B
	sta     _gamemode
;
; gamemode_stuff();
;
	.dbg	line, "SAUCE/functions/sprite_loading.h", 809
	jmp     _gamemode_stuff
;
; settrailstuff();
;
	.dbg	line, "SAUCE/functions/sprite_loading.h", 813
L0033:	jsr     _settrailstuff
;
; if (gamemode == GAMEMODE_WAVE || gamemode == GAMEMODE_SNAKE) currplayer_vel_y = 0;
;
	.dbg	line, "SAUCE/functions/sprite_loading.h", 814
	lda     _gamemode
	cmp     #$06
	beq     L00E0
	cmp     #$0A
	bne     L00E1
L00E0:	lda     #$00
	sta     _currplayer_vel_y
	sta     _currplayer_vel_y+1
;
; gamemode = GAMEMODE_POGO;
;
	.dbg	line, "SAUCE/functions/sprite_loading.h", 815
L00E1:	lda     #$09
	sta     _gamemode
;
; gamemode_stuff();
;
	.dbg	line, "SAUCE/functions/sprite_loading.h", 816
	jmp     _gamemode_stuff
;
; settrailstuff();
;
	.dbg	line, "SAUCE/functions/sprite_loading.h", 820
L0023:	jsr     _settrailstuff
;
; if (gamemode == GAMEMODE_WAVE || gamemode == GAMEMODE_SNAKE) currplayer_vel_y = 0;
;
	.dbg	line, "SAUCE/functions/sprite_loading.h", 821
	lda     _gamemode
	cmp     #$06
	beq     L00E2
	cmp     #$0A
	bne     L00E3
L00E2:	lda     #$00
	sta     _currplayer_vel_y
	sta     _currplayer_vel_y+1
;
; gamemode = GAMEMODE_SWING;
;
	.dbg	line, "SAUCE/functions/sprite_loading.h", 822
L00E3:	lda     #$07
	sta     _gamemode
;
; gamemode_stuff();
;
	.dbg	line, "SAUCE/functions/sprite_loading.h", 823
	jmp     _gamemode_stuff
;
; if (gamemode == GAMEMODE_WAVE || gamemode == GAMEMODE_SNAKE) currplayer_vel_y = 0;  
;
	.dbg	line, "SAUCE/functions/sprite_loading.h", 828
L002A:	lda     _gamemode
	cmp     #$06
	beq     L00E4
	cmp     #$0A
	beq     L00E4
	ldx     #$00
	jmp     L00E5
L00E4:	ldx     #$00
	txa
	sta     _currplayer_vel_y
	sta     _currplayer_vel_y+1
;
; gamemode = GAMEMODE_NINJA;
;
	.dbg	line, "SAUCE/functions/sprite_loading.h", 829
L00E5:	lda     #$08
	sta     _gamemode
;
; clearrobotjumpframes();
;
	.dbg	line, "SAUCE/functions/sprite_loading.h", 830
	jmp     _clearrobotjumpframes
;
; if (gamemode == GAMEMODE_WAVE || gamemode == GAMEMODE_SNAKE) currplayer_vel_y = 0;  
;
	.dbg	line, "SAUCE/functions/sprite_loading.h", 836
L0031:	lda     _gamemode
	cmp     #$06
	beq     L00E6
	cmp     #$0A
	beq     L00E6
	ldx     #$00
	txa
	jmp     L0081
L00E6:	ldx     #$00
	txa
	sta     _currplayer_vel_y
	sta     _currplayer_vel_y+1
;
; gamemode = newrand() & 7;
;
	.dbg	line, "SAUCE/functions/sprite_loading.h", 837
L0081:	jsr     _newrand
	and     #$07
	sta     _gamemode
;
; idx8_inc(activesprites_activated, index);
;
	.dbg	line, "SAUCE/functions/sprite_loading.h", 838
	ldx     _index
	inc     _activesprites_activated,x
;
; gamemode_stuff();
;
	.dbg	line, "SAUCE/functions/sprite_loading.h", 839
	jmp     _gamemode_stuff
;
; if (gamemode == GAMEMODE_WAVE || gamemode == GAMEMODE_SNAKE) currplayer_vel_y = 0;  
;
	.dbg	line, "SAUCE/functions/sprite_loading.h", 845
L003A:	lda     _gamemode
	cmp     #$06
	beq     L00E7
	cmp     #$0A
	beq     L00E7
	ldx     #$00
	txa
	jmp     L0084
L00E7:	ldx     #$00
	txa
	sta     _currplayer_vel_y
	sta     _currplayer_vel_y+1
;
; gamemode = newrand() & 15;
;
	.dbg	line, "SAUCE/functions/sprite_loading.h", 847
L0084:	jsr     _newrand
	and     #$0F
	sta     _gamemode
;
; } while (gamemode > 0x0B);
;
	.dbg	line, "SAUCE/functions/sprite_loading.h", 848
	cmp     #$0C
	lda     #$00
	tax
	rol     a
	bne     L0084
;
; idx8_inc(activesprites_activated, index);
;
	.dbg	line, "SAUCE/functions/sprite_loading.h", 849
	ldx     _index
	inc     _activesprites_activated,x
;
; gamemode_stuff();
;
	.dbg	line, "SAUCE/functions/sprite_loading.h", 850
	jmp     _gamemode_stuff
;
; minicoins++;
;
	.dbg	line, "SAUCE/functions/sprite_loading.h", 855
L0037:	inc     _minicoins
;
; activesprites_type[index] = 0xFF;
;
	.dbg	line, "SAUCE/functions/sprite_loading.h", 856
	ldy     _index
	lda     #$FF
	sta     _activesprites_type,y
;
; return;
;
	.dbg	line, "SAUCE/functions/sprite_loading.h", 857
	rts
;
; if (!currplayer_gravity) 
;
	.dbg	line, "SAUCE/functions/sprite_loading.h", 862
L0009:	lda     _currplayer_gravity
;
; return;
;
	.dbg	line, "SAUCE/functions/sprite_loading.h", 863
	bne     L00F1
;
; }
;
	.dbg	line, "SAUCE/functions/sprite_loading.h", 1138
	rts
;
; currplayer_gravity = GRAVITY_DOWN;
;
	.dbg	line, "SAUCE/functions/sprite_loading.h", 864
L00F1:	ldx     #$00
	txa
;
; goto spcl_gvity_portal_common;
;
	.dbg	line, "SAUCE/functions/sprite_loading.h", 865
	jmp     L00CA
;
; if (currplayer_gravity)
;
	.dbg	line, "SAUCE/functions/sprite_loading.h", 868
L000A:	lda     _currplayer_gravity
;
; return;
;
	.dbg	line, "SAUCE/functions/sprite_loading.h", 869
	beq     L00F2
;
; }
;
	.dbg	line, "SAUCE/functions/sprite_loading.h", 1138
	rts
;
; currplayer_gravity = GRAVITY_UP;
;
	.dbg	line, "SAUCE/functions/sprite_loading.h", 870
L00F2:	tax
	lda     #$FF
L00CA:	sta     _currplayer_gravity
;
; settrailstuff();
;
	.dbg	line, "SAUCE/functions/sprite_loading.h", 873
	jsr     _settrailstuff
;
; currplayer_vel_y /= 2;
;
	.dbg	line, "SAUCE/functions/sprite_loading.h", 874
	lda     _currplayer_vel_y
	ldx     _currplayer_vel_y+1
	cpx     #$00
	bpl     L008E
	sta     regsave
	stx     regsave+1
	cpx     #$FF
	bne     L0090
	cmp     #$FF
L0090:	jsr     boolult
	lsr     a
	lda     regsave
	ldx     regsave+1
	bcs     L008E
	ldx     #$00
	txa
	jmp     L008F
L008E:	jsr     asrax1
L008F:	sta     _currplayer_vel_y
	stx     _currplayer_vel_y+1
;
; robotjumptime[currplayer] = 0;
;
	.dbg	line, "SAUCE/functions/sprite_loading.h", 875
	ldy     _currplayer
	lda     #$00
	sta     _robotjumptime,y
;
; idx8_inc(activesprites_activated, index);
;
	.dbg	line, "SAUCE/functions/sprite_loading.h", 876
	ldx     _index
	inc     _activesprites_activated,x
	lda     _activesprites_activated,x
;
; return;
;
	.dbg	line, "SAUCE/functions/sprite_loading.h", 878
	jmp     _update_currplayer_table_idx
;
; spcl_spd_05: speed = 1; return;
;
	.dbg	line, "SAUCE/functions/sprite_loading.h", 881
L0010:	lda     #$01
	sta     _speed
	rts
;
; spcl_spd_10: speed = 0; return;
;
	.dbg	line, "SAUCE/functions/sprite_loading.h", 882
L0011:	lda     #$00
	sta     _speed
	rts
;
; spcl_spd_20: speed = 2; return;
;
	.dbg	line, "SAUCE/functions/sprite_loading.h", 883
L0012:	lda     #$02
	sta     _speed
	rts
;
; spcl_spd_30: speed = 3; return;
;
	.dbg	line, "SAUCE/functions/sprite_loading.h", 884
L0019:	lda     #$03
	sta     _speed
	rts
;
; spcl_spd_40: speed = 4; return;
;
	.dbg	line, "SAUCE/functions/sprite_loading.h", 885
L001A:	lda     #$04
	sta     _speed
	rts
;
; spcl_spdslow: speed = 5; return;
;
	.dbg	line, "SAUCE/functions/sprite_loading.h", 886
L0036:	lda     #$05
	sta     _speed
	rts
;
; gravity_mod = 0;
;
	.dbg	line, "SAUCE/functions/sprite_loading.h", 891
L0030:	lda     #$00
	sta     _gravity_mod
;
; return;
;
	.dbg	line, "SAUCE/functions/sprite_loading.h", 893
	rts
;
; gravity_mod = 1;
;
	.dbg	line, "SAUCE/functions/sprite_loading.h", 897
L002C:	lda     #$01
	sta     _gravity_mod
;
; return;
;
	.dbg	line, "SAUCE/functions/sprite_loading.h", 899
	rts
;
; gravity_mod = 2;
;
	.dbg	line, "SAUCE/functions/sprite_loading.h", 903
L002D:	lda     #$02
	sta     _gravity_mod
;
; return;
;
	.dbg	line, "SAUCE/functions/sprite_loading.h", 905
	rts
;
; gravity_mod = 3;
;
	.dbg	line, "SAUCE/functions/sprite_loading.h", 909
L002E:	lda     #$03
	sta     _gravity_mod
;
; return;
;
	.dbg	line, "SAUCE/functions/sprite_loading.h", 911
	rts
;
; gravity_mod = 4;
;
	.dbg	line, "SAUCE/functions/sprite_loading.h", 915
L002F:	lda     #$04
	sta     _gravity_mod
;
; return;
;
	.dbg	line, "SAUCE/functions/sprite_loading.h", 917
	rts
;
; currplayer_mini = 1;
;
	.dbg	line, "SAUCE/functions/sprite_loading.h", 921
L0014:	lda     #$01
	sta     _currplayer_mini
;
; player_mini[0] = 1;
;
	.dbg	line, "SAUCE/functions/sprite_loading.h", 922
	sta     _player_mini
;
; player_mini[1] = 1;
;
	.dbg	line, "SAUCE/functions/sprite_loading.h", 923
	ldx     #$00
	sta     _player_mini+1
;
; return;
;
	.dbg	line, "SAUCE/functions/sprite_loading.h", 925
	jmp     _update_currplayer_table_idx
;
; currplayer_mini = 0;
;
	.dbg	line, "SAUCE/functions/sprite_loading.h", 928
L0015:	lda     #$00
	sta     _currplayer_mini
;
; player_mini[0] = 0;
;
	.dbg	line, "SAUCE/functions/sprite_loading.h", 929
	sta     _player_mini
;
; player_mini[1] = 0;
;
	.dbg	line, "SAUCE/functions/sprite_loading.h", 930
	tax
	sta     _player_mini+1
;
; return;
;
	.dbg	line, "SAUCE/functions/sprite_loading.h", 932
	jmp     _update_currplayer_table_idx
;
; if (!activesprites_activated[index]) {
;
	.dbg	line, "SAUCE/functions/sprite_loading.h", 939
L001B:	ldy     _index
	lda     _activesprites_activated,y
	beq     L00F3
;
; }
;
	.dbg	line, "SAUCE/functions/sprite_loading.h", 1138
	rts
;
; dual = 1;
;
	.dbg	line, "SAUCE/functions/sprite_loading.h", 940
L00F3:	lda     #$01
	sta     _dual
;
; target_scroll_y = (lohi_arr16_load(activesprites_y, index) - PORTAL_TO_TOP_DIFF);
;
	.dbg	line, "SAUCE/functions/sprite_loading.h", 941
	ldy     _index
	lda     _activesprites_y_lo,y
	ldx     _activesprites_y_hi,y
	sec
	sbc     #$3A
	bcs     L0094
	dex
L0094:	sta     _target_scroll_y
	stx     _target_scroll_y+1
;
; if (twoplayer) { player_gravity[1] = player_gravity[0] ^ 0xFF;  }
;
	.dbg	line, "SAUCE/functions/sprite_loading.h", 942
	lda     _twoplayer
	beq     L0095
	lda     _player_gravity
	eor     #$FF
	sta     _player_gravity+1
;
; else { 
;
	.dbg	line, "SAUCE/functions/sprite_loading.h", 943
	jmp     L0096
;
; player_x[1] = player_x[0]; player_y[1] = currplayer_y;
;
	.dbg	line, "SAUCE/functions/sprite_loading.h", 944
L0095:	lda     _player_x+1
	sta     _player_x+2+1
	lda     _player_x
	sta     _player_x+2
	lda     _currplayer_y+1
	sta     _player_y+2+1
	lda     _currplayer_y
	sta     _player_y+2
;
; player_gravity[1] = currplayer_gravity ^ 0xFF;
;
	.dbg	line, "SAUCE/functions/sprite_loading.h", 945
	lda     _currplayer_gravity
	eor     #$FF
	sta     _player_gravity+1
;
; player_vel_y[1] = -currplayer_vel_y; player_mini[1] = player_mini[0];
;
	.dbg	line, "SAUCE/functions/sprite_loading.h", 946
	lda     _currplayer_vel_y
	ldx     _currplayer_vel_y+1
	jsr     negax
	sta     _player_vel_y+2
	stx     _player_vel_y+2+1
	lda     _player_mini
	sta     _player_mini+1
;
; activesprites_activated[index] = 1;
;
	.dbg	line, "SAUCE/functions/sprite_loading.h", 949
L0096:	ldy     _index
	lda     #$01
	sta     _activesprites_activated,y
;
; return;
;
	.dbg	line, "SAUCE/functions/sprite_loading.h", 951
	rts
;
; if (!activesprites_activated[index]) {
;
	.dbg	line, "SAUCE/functions/sprite_loading.h", 954
L001C:	ldy     _index
	lda     _activesprites_activated,y
	beq     L00F4
;
; }
;
	.dbg	line, "SAUCE/functions/sprite_loading.h", 1138
	rts
;
; if (!twoplayer) { dual = 0; player_y[0] = currplayer_y; player_gravity[0] = currplayer_gravity; player_vel_y[0] = currplayer_vel_y; }
;
	.dbg	line, "SAUCE/functions/sprite_loading.h", 955
L00F4:	lda     _twoplayer
	bne     L009A
	sta     _dual
	lda     _currplayer_y+1
	sta     _player_y+1
	lda     _currplayer_y
	sta     _player_y
	lda     _currplayer_gravity
	sta     _player_gravity
	lda     _currplayer_vel_y+1
	sta     _player_vel_y+1
	lda     _currplayer_vel_y
	sta     _player_vel_y
;
; else { player_gravity[1] = player_gravity[0]; }
;
	.dbg	line, "SAUCE/functions/sprite_loading.h", 956
	jmp     L009B
L009A:	lda     _player_gravity
	sta     _player_gravity+1
;
; activesprites_activated[index] = 1;
;
	.dbg	line, "SAUCE/functions/sprite_loading.h", 957
L009B:	ldy     _index
	lda     #$01
	sta     _activesprites_activated,y
;
; exitPortalTimer = 10;
;
	.dbg	line, "SAUCE/functions/sprite_loading.h", 960
	lda     #$0A
	sta     _exitPortalTimer
;
; return;
;
	.dbg	line, "SAUCE/functions/sprite_loading.h", 962
	rts
;
; if ((cube_data[currplayer] & 2) || (controllingplayer->press & (PAD_A | PAD_UP))) {
;
	.dbg	line, "SAUCE/functions/sprite_loading.h", 966
L002B:	ldy     _currplayer
	lda     _cube_data,y
	and     #$02
	bne     L00E8
	ldy     #$01
	lda     (_controllingplayer),y
	and     #$88
	beq     L009D
;
; currplayer_vel_y = 0;
;
	.dbg	line, "SAUCE/functions/sprite_loading.h", 967
L00E8:	lda     #$00
	sta     _currplayer_vel_y
	sta     _currplayer_vel_y+1
;
; orbed[currplayer] = 1;
;
	.dbg	line, "SAUCE/functions/sprite_loading.h", 968
	ldy     _currplayer
	lda     #$01
	sta     _orbed,y
;
; idx8_store(cube_data, currplayer, cube_data[currplayer] & 1);
;
	.dbg	line, "SAUCE/functions/sprite_loading.h", 969
	ldy     _currplayer
	lda     _cube_data,y
	and     #$01
	sta     _cube_data,y
;
; high_byte(currplayer_y) = teleport_output;
;
	.dbg	line, "SAUCE/functions/sprite_loading.h", 971
L0024:	lda     _teleport_output
	sta     _currplayer_y+1
;
; return;
;
	.dbg	line, "SAUCE/functions/sprite_loading.h", 973
L009D:	rts
;
; if (dashing[currplayer]){
;
	.dbg	line, "SAUCE/functions/sprite_loading.h", 977
L003E:	ldy     _currplayer
	lda     _dashing,y
	bne     L00F5
;
; }
;
	.dbg	line, "SAUCE/functions/sprite_loading.h", 1138
	rts
;
; dashing[currplayer] = 0; orbed[currplayer] = 1; currplayer_vel_y = 0;
;
	.dbg	line, "SAUCE/functions/sprite_loading.h", 978
L00F5:	ldy     _currplayer
	lda     #$00
	sta     _dashing,y
	ldy     _currplayer
	lda     #$01
	sta     _orbed,y
	lda     #$00
	sta     _currplayer_vel_y
	sta     _currplayer_vel_y+1
;
; return;
;
	.dbg	line, "SAUCE/functions/sprite_loading.h", 980
	rts
;
; spcl_h_block: hblocked[currplayer] = 1; return;
;
	.dbg	line, "SAUCE/functions/sprite_loading.h", 981
L003D:	ldy     _currplayer
	lda     #$01
	sta     _hblocked,y
	rts
;
; spcl_j_block: jblocked[currplayer] = 1; orbed[currplayer] = 1; return;
;
	.dbg	line, "SAUCE/functions/sprite_loading.h", 982
L003C:	ldy     _currplayer
	lda     #$01
	sta     _jblocked,y
	ldy     _currplayer
	sta     _orbed,y
	rts
;
; spcl_d_block: dblocked[currplayer] = 1; return;
;
	.dbg	line, "SAUCE/functions/sprite_loading.h", 983
L003F:	ldy     _currplayer
	lda     #$01
	sta     _dblocked,y
	rts
;
; spcl_f_block: fblocked[currplayer] = 1; return;
;
	.dbg	line, "SAUCE/functions/sprite_loading.h", 984
L003B:	ldy     _currplayer
	lda     #$01
	sta     _fblocked,y
	rts
;
; if (practice_point_count) return;
;
	.dbg	line, "SAUCE/functions/sprite_loading.h", 988
L0008:	lda     _practice_point_count
	beq     L00F6
;
; }
;
	.dbg	line, "SAUCE/functions/sprite_loading.h", 1138
	rts
;
; if (coin1_timer) return;
;
	.dbg	line, "SAUCE/functions/sprite_loading.h", 989
L00F6:	lda     _coin1_timer
	beq     L00F7
;
; }
;
	.dbg	line, "SAUCE/functions/sprite_loading.h", 1138
	rts
;
; coins |= COIN_1;
;
	.dbg	line, "SAUCE/functions/sprite_loading.h", 990
L00F7:	lda     _coins
	ora     #$01
	sta     _coins
;
; coin1_timer = 1;
;
	.dbg	line, "SAUCE/functions/sprite_loading.h", 991
	lda     #$01
	sta     _coin1_timer
;
; coin1_speed = 0x0200;
;
	.dbg	line, "SAUCE/functions/sprite_loading.h", 992
	ldx     #$02
	lda     #$00
	sta     _coin1_speed
	stx     _coin1_speed+1
;
; goto spcl_coin_common;
;
	.dbg	line, "SAUCE/functions/sprite_loading.h", 993
	jmp     L00AE
;
; if (practice_point_count) return;
;
	.dbg	line, "SAUCE/functions/sprite_loading.h", 996
L0016:	lda     _practice_point_count
	beq     L00F8
;
; }
;
	.dbg	line, "SAUCE/functions/sprite_loading.h", 1138
	rts
;
; if (coin2_timer) return;
;
	.dbg	line, "SAUCE/functions/sprite_loading.h", 997
L00F8:	lda     _coin2_timer
	beq     L00F9
;
; }
;
	.dbg	line, "SAUCE/functions/sprite_loading.h", 1138
	rts
;
; coins |= COIN_2;
;
	.dbg	line, "SAUCE/functions/sprite_loading.h", 998
L00F9:	lda     _coins
	ora     #$02
	sta     _coins
;
; coin2_timer = 1;
;
	.dbg	line, "SAUCE/functions/sprite_loading.h", 999
	lda     #$01
	sta     _coin2_timer
;
; coin2_speed = 0x0200;
;
	.dbg	line, "SAUCE/functions/sprite_loading.h", 1000
	ldx     #$02
	lda     #$00
	sta     _coin2_speed
	stx     _coin2_speed+1
;
; goto spcl_coin_common;
;
	.dbg	line, "SAUCE/functions/sprite_loading.h", 1001
	jmp     L00AE
;
; if (practice_point_count) return;
;
	.dbg	line, "SAUCE/functions/sprite_loading.h", 1004
L0017:	lda     _practice_point_count
	beq     L00FA
;
; }
;
	.dbg	line, "SAUCE/functions/sprite_loading.h", 1138
	rts
;
; if (coin3_timer) return;
;
	.dbg	line, "SAUCE/functions/sprite_loading.h", 1005
L00FA:	lda     _coin3_timer
	beq     L00FB
;
; }
;
	.dbg	line, "SAUCE/functions/sprite_loading.h", 1138
	rts
;
; coins |= COIN_3;
;
	.dbg	line, "SAUCE/functions/sprite_loading.h", 1006
L00FB:	lda     _coins
	ora     #$04
	sta     _coins
;
; coin3_timer = 1;
;
	.dbg	line, "SAUCE/functions/sprite_loading.h", 1007
	lda     #$01
	sta     _coin3_timer
;
; coin3_speed = 0x0200;
;
	.dbg	line, "SAUCE/functions/sprite_loading.h", 1008
	ldx     #$02
	lda     #$00
	sta     _coin3_speed
	stx     _coin3_speed+1
;
; sfx_play(sfx_coin, 0);
;
	.dbg	line, "SAUCE/functions/sprite_loading.h", 1011
L00AE:	tax
	lda     #$03
	jsr     __sfx_play
;
; animating = 1;
;
	.dbg	line, "SAUCE/functions/sprite_loading.h", 1012
	lda     #$01
	sta     _animating
;
; return;
;
	.dbg	line, "SAUCE/functions/sprite_loading.h", 1013
	rts
;
; table_offset = yellow_pad;
;
	.dbg	line, "SAUCE/functions/sprite_loading.h", 1018
L000B:	lda     #$08
	sta     _tmp3
;
; pad_stuff();
;
	.dbg	line, "SAUCE/functions/sprite_loading.h", 1019
	jmp     _pad_stuff
;
; table_offset = pink_pad;
;
	.dbg	line, "SAUCE/functions/sprite_loading.h", 1022
L001E:	lda     #$18
	sta     _tmp3
;
; pad_stuff();
;
	.dbg	line, "SAUCE/functions/sprite_loading.h", 1023
	jmp     _pad_stuff
;
; table_offset = red_pad;
;
	.dbg	line, "SAUCE/functions/sprite_loading.h", 1026
L0025:	lda     #$40
	sta     _tmp3
;
; pad_stuff();
;
	.dbg	line, "SAUCE/functions/sprite_loading.h", 1027
	jmp     _pad_stuff
;
; invert_gravity(currplayer_gravity); invert_gravity(player_gravity[0]); invert_gravity(player_gravity[1]);
;
	.dbg	line, "SAUCE/functions/sprite_loading.h", 1032
L0032:	lda     _currplayer_gravity
	eor     #$FF
	sta     _currplayer_gravity
	lda     _player_gravity
	eor     #$FF
	sta     _player_gravity
	ldx     #$00
	lda     _player_gravity+1
	eor     #$FF
	sta     _player_gravity+1
;
; update_currplayer_table_idx();
;
	.dbg	line, "SAUCE/functions/sprite_loading.h", 1033
	jsr     _update_currplayer_table_idx
;
; table_offset = yellow_orb;
;
	.dbg	line, "SAUCE/functions/sprite_loading.h", 1034
	lda     #$00
	sta     _tmp3
;
; pad_stuff();
;
	.dbg	line, "SAUCE/functions/sprite_loading.h", 1035
	jsr     _pad_stuff
;
; idx8_inc(activesprites_activated, index);
;
	.dbg	line, "SAUCE/functions/sprite_loading.h", 1036
	ldx     _index
	inc     _activesprites_activated,x
;
; return;
;
	.dbg	line, "SAUCE/functions/sprite_loading.h", 1038
	rts
;
; clear_slope_stuff();
;
	.dbg	line, "SAUCE/functions/sprite_loading.h", 1041
L000D:	jsr     _clear_slope_stuff
;
; if (!currplayer_gravity) { 
;
	.dbg	line, "SAUCE/functions/sprite_loading.h", 1042
	lda     _currplayer_gravity
	bne     L00B3
;
; settrailstuff();
;
	.dbg	line, "SAUCE/functions/sprite_loading.h", 1043
	jsr     _settrailstuff
;
; currplayer_gravity = GRAVITY_UP;    //flip gravity
;
	.dbg	line, "SAUCE/functions/sprite_loading.h", 1044
	ldx     #$00
	lda     #$FF
	sta     _currplayer_gravity
;
; update_currplayer_table_idx();
;
	.dbg	line, "SAUCE/functions/sprite_loading.h", 1045
	jsr     _update_currplayer_table_idx
;
; currplayer_vel_y = PAD_HEIGHT_BLUE(currplayer_table_idx);
;
	.dbg	line, "SAUCE/functions/sprite_loading.h", 1046
	ldy     _currplayer_table_idx
	lda     _PAD_HEIGHT_BLUE_hi,y
	sta     _currplayer_vel_y+1
	lda     _PAD_HEIGHT_BLUE_lo,y
	sta     _currplayer_vel_y
;
; orbhitonthisframe[currplayer] = 1;
;
	.dbg	line, "SAUCE/functions/sprite_loading.h", 1047
	ldy     _currplayer
	lda     #$01
	sta     _orbhitonthisframe,y
;
; idx8_inc(activesprites_activated, index);
;
	.dbg	line, "SAUCE/functions/sprite_loading.h", 1049
L00B3:	ldx     _index
	inc     _activesprites_activated,x
;
; return;
;
	.dbg	line, "SAUCE/functions/sprite_loading.h", 1050
	rts
;
; clear_slope_stuff();
;
	.dbg	line, "SAUCE/functions/sprite_loading.h", 1053
L000E:	jsr     _clear_slope_stuff
;
; if (currplayer_gravity) {  
;
	.dbg	line, "SAUCE/functions/sprite_loading.h", 1054
	lda     _currplayer_gravity
	beq     L00B5
;
; settrailstuff();
;
	.dbg	line, "SAUCE/functions/sprite_loading.h", 1055
	jsr     _settrailstuff
;
; currplayer_gravity = GRAVITY_DOWN;    //flip gravity
;
	.dbg	line, "SAUCE/functions/sprite_loading.h", 1056
	ldx     #$00
	txa
	sta     _currplayer_gravity
;
; update_currplayer_table_idx();
;
	.dbg	line, "SAUCE/functions/sprite_loading.h", 1057
	jsr     _update_currplayer_table_idx
;
; currplayer_vel_y = PAD_HEIGHT_BLUE(currplayer_table_idx);
;
	.dbg	line, "SAUCE/functions/sprite_loading.h", 1058
	ldy     _currplayer_table_idx
	lda     _PAD_HEIGHT_BLUE_hi,y
	sta     _currplayer_vel_y+1
	lda     _PAD_HEIGHT_BLUE_lo,y
	sta     _currplayer_vel_y
;
; orbhitonthisframe[currplayer] = 1;
;
	.dbg	line, "SAUCE/functions/sprite_loading.h", 1059
	ldy     _currplayer
	lda     #$01
	sta     _orbhitonthisframe,y
;
; idx8_inc(activesprites_activated, index); 
;
	.dbg	line, "SAUCE/functions/sprite_loading.h", 1062
L00B5:	ldx     _index
	inc     _activesprites_activated,x
;
; return;
;
	.dbg	line, "SAUCE/functions/sprite_loading.h", 1063
	rts
;
; if ((cube_data[currplayer] & 2) || (controllingplayer->press & (PAD_A | PAD_UP))) {
;
	.dbg	line, "SAUCE/functions/sprite_loading.h", 1067
L0026:	ldy     _currplayer
	lda     _cube_data,y
	and     #$02
	bne     L00E9
	ldy     #$01
	lda     (_controllingplayer),y
	and     #$88
	beq     L00B7
;
; idx8_store(cube_data, currplayer, cube_data[currplayer] & 1);
;
	.dbg	line, "SAUCE/functions/sprite_loading.h", 1068
L00E9:	ldy     _currplayer
	lda     _cube_data,y
	and     #$01
	sta     _cube_data,y
;
; high_byte(currplayer_y) -= eject_D;
;
	.dbg	line, "SAUCE/functions/sprite_loading.h", 1070
L0028:	lda     _eject_D
	eor     #$FF
	sec
	adc     _currplayer_y+1
	sta     _currplayer_y+1
;
; currplayer_vel_y = 0;
;
	.dbg	line, "SAUCE/functions/sprite_loading.h", 1071
	ldx     #$00
	txa
	sta     _currplayer_vel_y
	sta     _currplayer_vel_y+1
;
; currplayer_gravity = GRAVITY_UP;
;
	.dbg	line, "SAUCE/functions/sprite_loading.h", 1072
	lda     #$FF
	sta     _currplayer_gravity
;
; update_currplayer_table_idx();
;
	.dbg	line, "SAUCE/functions/sprite_loading.h", 1073
	jsr     _update_currplayer_table_idx
;
; crossPRGBankJump0(spider_up_wait);
;
	.dbg	line, "SAUCE/functions/sprite_loading.h", 1074
	lda     #<_spider_up_wait
	ldx     #>_spider_up_wait
	ldy     #<.bank(_spider_up_wait)
	jsr     crossPRGBankJump
;
; high_byte(currplayer_y) -= eject_U;
;
	.dbg	line, "SAUCE/functions/sprite_loading.h", 1075
	lda     _eject_U
	eor     #$FF
	sec
	adc     _currplayer_y+1
	sta     _currplayer_y+1
;
; currplayer_vel_y = 0; 
;
	.dbg	line, "SAUCE/functions/sprite_loading.h", 1076
	lda     #$00
	sta     _currplayer_vel_y
	sta     _currplayer_vel_y+1
;
; orbed[currplayer] = 1;
;
	.dbg	line, "SAUCE/functions/sprite_loading.h", 1077
	ldy     _currplayer
	lda     #$01
	sta     _orbed,y
;
; idx8_inc(activesprites_activated, index);
;
	.dbg	line, "SAUCE/functions/sprite_loading.h", 1078
	ldx     _index
	inc     _activesprites_activated,x
;
; return;
;
	.dbg	line, "SAUCE/functions/sprite_loading.h", 1080
L00B7:	rts
;
; if ((cube_data[currplayer] & 2) || (controllingplayer->press & (PAD_A | PAD_UP))) {
;
	.dbg	line, "SAUCE/functions/sprite_loading.h", 1082
L0027:	ldy     _currplayer
	lda     _cube_data,y
	and     #$02
	bne     L00EA
	ldy     #$01
	lda     (_controllingplayer),y
	and     #$88
	beq     L00BD
;
; idx8_store(cube_data, currplayer, cube_data[currplayer] & 1);
;
	.dbg	line, "SAUCE/functions/sprite_loading.h", 1083
L00EA:	ldy     _currplayer
	lda     _cube_data,y
	and     #$01
	sta     _cube_data,y
;
; high_byte(currplayer_y) -= eject_U + 1;
;
	.dbg	line, "SAUCE/functions/sprite_loading.h", 1085
L0029:	lda     _eject_U
	clc
	adc     #$01
	eor     #$FF
	sec
	adc     _currplayer_y+1
	sta     _currplayer_y+1
;
; currplayer_vel_y = 0;
;
	.dbg	line, "SAUCE/functions/sprite_loading.h", 1086
	ldx     #$00
	txa
	sta     _currplayer_vel_y
	sta     _currplayer_vel_y+1
;
; currplayer_gravity = GRAVITY_DOWN;
;
	.dbg	line, "SAUCE/functions/sprite_loading.h", 1087
	sta     _currplayer_gravity
;
; update_currplayer_table_idx();
;
	.dbg	line, "SAUCE/functions/sprite_loading.h", 1088
	jsr     _update_currplayer_table_idx
;
; crossPRGBankJump0(spider_down_wait);
;
	.dbg	line, "SAUCE/functions/sprite_loading.h", 1089
	lda     #<_spider_down_wait
	ldx     #>_spider_down_wait
	ldy     #<.bank(_spider_down_wait)
	jsr     crossPRGBankJump
;
; high_byte(currplayer_y) -= eject_D;
;
	.dbg	line, "SAUCE/functions/sprite_loading.h", 1090
	lda     _eject_D
	eor     #$FF
	sec
	adc     _currplayer_y+1
	sta     _currplayer_y+1
;
; currplayer_vel_y = 0;
;
	.dbg	line, "SAUCE/functions/sprite_loading.h", 1091
	lda     #$00
	sta     _currplayer_vel_y
	sta     _currplayer_vel_y+1
;
; orbed[currplayer] = 1;
;
	.dbg	line, "SAUCE/functions/sprite_loading.h", 1092
	ldy     _currplayer
	lda     #$01
	sta     _orbed,y
;
; idx8_inc(activesprites_activated, index);
;
	.dbg	line, "SAUCE/functions/sprite_loading.h", 1093
	ldx     _index
	inc     _activesprites_activated,x
;
; return;
;
	.dbg	line, "SAUCE/functions/sprite_loading.h", 1095
L00BD:	rts
;
; table_offset = yellow_orb;
;
	.dbg	line, "SAUCE/functions/sprite_loading.h", 1098
L000C:	lda     #$00
;
; goto spcl_orb_cmn;
;
	.dbg	line, "SAUCE/functions/sprite_loading.h", 1100
	jmp     L00CB
;
; table_offset = yellow_orb;
;
	.dbg	line, "SAUCE/functions/sprite_loading.h", 1103
L001F:	lda     #$00
;
; goto spcl_orb_cmn;
;
	.dbg	line, "SAUCE/functions/sprite_loading.h", 1104
	jmp     L00CB
;
; table_offset = ylw_bigger;
;
	.dbg	line, "SAUCE/functions/sprite_loading.h", 1110
L0018:	lda     #$28
;
; goto spcl_orb_cmn;
;
	.dbg	line, "SAUCE/functions/sprite_loading.h", 1111
	jmp     L00CB
;
; table_offset = ylw_smaller;
;
	.dbg	line, "SAUCE/functions/sprite_loading.h", 1114
L0021:	lda     #$38
;
; goto spcl_orb_cmn;
;
	.dbg	line, "SAUCE/functions/sprite_loading.h", 1115
	jmp     L00CB
;
; table_offset = pink_orb;
;
	.dbg	line, "SAUCE/functions/sprite_loading.h", 1118
L0007:	lda     #$10
;
; goto spcl_orb_cmn;
;
	.dbg	line, "SAUCE/functions/sprite_loading.h", 1119
	jmp     L00CB
;
; table_offset = black_orb;
;
	.dbg	line, "SAUCE/functions/sprite_loading.h", 1122
L0022:	lda     #$30
;
; goto spcl_orb_cmn;
;
	.dbg	line, "SAUCE/functions/sprite_loading.h", 1123
	jmp     L00CB
;
; table_offset = red_orb;
;
	.dbg	line, "SAUCE/functions/sprite_loading.h", 1126
L0020:	lda     #$20
L00CB:	sta     _tmp3
;
; ufo_orbed[currplayer] = 1;  
;
	.dbg	line, "SAUCE/functions/sprite_loading.h", 1130
L0006:	ldy     _currplayer
	lda     #$01
	sta     _ufo_orbed,y
;
; if (gamemode == GAMEMODE_CUBE || gamemode == GAMEMODE_POGO || gamemode == GAMEMODE_BALL || gamemode == GAMEMODE_ROBOT || gamemode == GAMEMODE_NINJA || gamemode == GAMEMODE_SPIDER || gamemode >= GAMEMODE_SWING) {
;
	.dbg	line, "SAUCE/functions/sprite_loading.h", 1131
	lda     _gamemode
	beq     L00EB
	cmp     #$09
	beq     L00EB
	cmp     #$02
	beq     L00EB
	cmp     #$04
	beq     L00EB
	cmp     #$08
	beq     L00EB
	cmp     #$05
	beq     L00EB
	cmp     #$07
	bcc     L00C5
;
; sprite_gamemode_main();
;
	.dbg	line, "SAUCE/functions/sprite_loading.h", 1132
L00EB:	jsr     _sprite_gamemode_main
;
; } else {
;
	.dbg	line, "SAUCE/functions/sprite_loading.h", 1133
	jmp     _update_currplayer_table_idx
;
; sprite_gamemode_controller_check();
;
	.dbg	line, "SAUCE/functions/sprite_loading.h", 1134
L00C5:	jsr     _sprite_gamemode_controller_check
;
; update_currplayer_table_idx();
;
	.dbg	line, "SAUCE/functions/sprite_loading.h", 1136
	jmp     _update_currplayer_table_idx

	.dbg	line
.segment	"XCD_BANK_00"

M0001:
	.addr	L0002
	.addr	L0003
	.addr	L0004
	.addr	L0003
	.addr	L0005
	.addr	L0006
	.addr	L0007
	.addr	L0008
	.addr	L0009
	.addr	L000A
	.addr	L000B
	.addr	L000C
	.addr	L000B
	.addr	L000D
	.addr	L000E
	.addr	L000F
	.addr	L0009
	.addr	L0009
	.addr	L000A
	.addr	L000A
	.addr	L0010
	.addr	L0011
	.addr	L0012
	.addr	L0013
	.addr	L0014
	.addr	L0015
	.addr	L0016
	.addr	L0017
	.addr	L0008
	.addr	L0016
	.addr	L0017
	.addr	L0018
	.addr	L0019
	.addr	L001A
	.addr	L001B
	.addr	L001C
	.addr	L001D
	.addr	L001E
	.addr	L001E
	.addr	L001F
	.addr	L0020
	.addr	L0021
	.addr	L000F
	.addr	L000F
	.addr	L000F
	.addr	L000F
	.addr	L000F
	.addr	L000F
	.addr	L000F
	.addr	L000F
	.addr	L000F
	.addr	L000F
	.addr	L000F
	.addr	L000F
	.addr	L000F
	.addr	L000F
	.addr	L000F
	.addr	L000F
	.addr	L000F
	.addr	L000F
	.addr	L000F
	.addr	L000F
	.addr	L000F
	.addr	L000F
	.addr	L000F
	.addr	L000F
	.addr	L000F
	.addr	L000F
	.addr	L0022
	.addr	L0006
	.addr	L0006
	.addr	L0009
	.addr	L000A
	.addr	L000F
	.addr	L000F
	.addr	L0023
	.addr	L0006
	.addr	L0006
	.addr	L0024
	.addr	L000F
	.addr	L0006
	.addr	L0006
	.addr	L0025
	.addr	L0025
	.addr	L0026
	.addr	L0027
	.addr	L0028
	.addr	L0029
	.addr	L002A
	.addr	L002B
	.addr	L000F
	.addr	L0006
	.addr	L0006
	.addr	L0006
	.addr	L0006
	.addr	L002C
	.addr	L002D
	.addr	L002E
	.addr	L002F
	.addr	L0030
	.addr	L0031
	.addr	L0032
	.addr	L0024
	.addr	L000F
	.addr	L0024
	.addr	L000F
	.addr	L0033
	.addr	L0034
	.addr	L0035
	.addr	L0036
	.addr	L0037
	.addr	L000F
	.addr	L000F
	.addr	L000F
	.addr	L000F
	.addr	L000F
	.addr	L000F
	.addr	L0024
	.addr	L000F
	.addr	L0024
	.addr	L000F
	.addr	L0038
	.addr	L0039
	.addr	L0006
	.addr	L0006
	.addr	L003A
	.addr	L000F
M0081:
	.addr	L000F
	.addr	L000F
	.addr	L000F
	.addr	L000F
	.addr	L000F
	.addr	L000F
	.addr	L000F
	.addr	L000F
	.addr	L000F
	.addr	L000F
	.addr	L000F
	.addr	L000F
	.addr	L000F
	.addr	L000F
	.addr	L000F
	.addr	L000F
	.addr	L000F
	.addr	L000F
	.addr	L000F
	.addr	L000F
	.addr	L000F
	.addr	L000F
	.addr	L000F
	.addr	L000F
	.addr	L000F
	.addr	L000F
	.addr	L000F
	.addr	L000F
	.addr	L000F
	.addr	L000F
	.addr	L000F
	.addr	L000F
	.addr	L000F
	.addr	L000F
	.addr	L000F
	.addr	L000F
	.addr	L000F
	.addr	L000F
	.addr	L000F
	.addr	L000F
	.addr	L000F
	.addr	L000F
	.addr	L000F
	.addr	L000F
	.addr	L000F
	.addr	L000F
	.addr	L000F
	.addr	L000F
	.addr	L000F
	.addr	L000F
	.addr	L000F
	.addr	L000F
	.addr	L000F
	.addr	L000F
	.addr	L000F
	.addr	L000F
	.addr	L000F
	.addr	L000F
	.addr	L000F
	.addr	L000F
	.addr	L000F
	.addr	L000F
	.addr	L000F
	.addr	L000F
	.addr	L000F
	.addr	L000F
	.addr	L000F
	.addr	L000F
	.addr	L000F
	.addr	L000F
	.addr	L000F
	.addr	L000F
	.addr	L000F
	.addr	L000F
	.addr	L000F
	.addr	L000F
	.addr	L000F
	.addr	L000F
	.addr	L000F
	.addr	L000F
	.addr	L000F
	.addr	L000F
	.addr	L000F
	.addr	L000F
	.addr	L000F
	.addr	L000F
	.addr	L000F
	.addr	L000F
	.addr	L000F
	.addr	L000F
	.addr	L000F
	.addr	L000F
	.addr	L000F
	.addr	L000F
	.addr	L000F
	.addr	L000F
	.addr	L000F
	.addr	L000F
	.addr	L000F
	.addr	L000F
	.addr	L000F
	.addr	L000F
	.addr	L000F
	.addr	L000F
	.addr	L000F
	.addr	L000F
	.addr	L000F
	.addr	L000F
	.addr	L000F
	.addr	L0024
	.addr	L000F
	.addr	L000F
	.addr	L000F
	.addr	L000F
	.addr	L000F
	.addr	L000F
	.addr	L000F
	.addr	L000F
	.addr	L003B
	.addr	L003C
	.addr	L003D
	.addr	L003E
	.addr	L003F
	.addr	L000A
	.addr	L0009
	.addr	L000D
	.addr	L000E
M0113:
	.word	$0000
M012D:
	.word	$0000
M012F:
	.word	$0000
M013D:
	.word	$0000
M013F:
	.word	$0000
M0141:
	.word	$0000
M0143:
	.word	$0000
M0145:
	.word	$0000
M0147:
	.word	$0000

.endproc

; ---------------------------------------------------------------
; void __near__ sprite_collide (void)
; ---------------------------------------------------------------

.segment	"XCD_BANK_00"

.proc	_sprite_collide: near

	.dbg	func, "sprite_collide", "00", static, "_sprite_collide"

.segment	"XCD_BANK_00"

;
; if (gamemode != GAMEMODE_WAVE) {
;
	.dbg	line, "SAUCE/functions/sprite_loading.h", 1144
	lda     _gamemode
	cmp     #$06
	beq     L0054
;
; Generic.width = CUBE_WIDTH[currplayer_mini];
;
	.dbg	line, "SAUCE/functions/sprite_loading.h", 1145
	ldy     _currplayer_mini
	lda     _CUBE_WIDTH,y
	sta     _Generic+2
;
; Generic.height = CUBE_HEIGHT[currplayer_mini]; 
;
	.dbg	line, "SAUCE/functions/sprite_loading.h", 1146
	ldy     _currplayer_mini
	lda     _CUBE_HEIGHT,y
;
; } else {
;
	.dbg	line, "SAUCE/functions/sprite_loading.h", 1147
	jmp     L004E
;
; Generic.width = WAVE_WIDTH;
;
	.dbg	line, "SAUCE/functions/sprite_loading.h", 1148
L0054:	lda     #$08
	sta     _Generic+2
;
; Generic.height = WAVE_HEIGHT; // Why not wave height?
;
	.dbg	line, "SAUCE/functions/sprite_loading.h", 1149
L004E:	sta     _Generic+3
;
; Generic.x = high_byte(currplayer_x) + 1;
;
	.dbg	line, "SAUCE/functions/sprite_loading.h", 1152
	lda     _currplayer_x+1
	clc
	adc     #$01
	sta     _Generic
;
; Generic.y = high_byte(currplayer_y) + (byte(0x10 - Generic.height) >> 1);
;
	.dbg	line, "SAUCE/functions/sprite_loading.h", 1153
	lda     #$10
	sec
	sbc     _Generic+3
	lsr     a
	clc
	adc     _currplayer_y+1
	sta     _Generic+1
;
; index = 0;
;
	.dbg	line, "SAUCE/functions/sprite_loading.h", 1155
	lda     #$00
	sta     _index
;
; tmp3 = activesprites_active[index];
;
	.dbg	line, "SAUCE/functions/sprite_loading.h", 1158
L0007:	ldy     _index
	lda     _activesprites_active,y
	sta     _tmp3
;
; if (tmp3){
;
	.dbg	line, "SAUCE/functions/sprite_loading.h", 1159
	lda     _tmp3
	jeq     L0068
;
; tmp4 = activesprites_type[index];
;
	.dbg	line, "SAUCE/functions/sprite_loading.h", 1160
	ldy     _index
	lda     _activesprites_type,y
	sta     _tmp4
;
; tmp2 = sprite_heights[tmp4];
;
	.dbg	line, "SAUCE/functions/sprite_loading.h", 1162
	ldy     _tmp4
	lda     _sprite_heights,y
	sta     _tmp2
;
; tmp9 = sprite_widths[tmp4];
;
	.dbg	line, "SAUCE/functions/sprite_loading.h", 1163
	ldy     _tmp4
	lda     _sprite_widths,y
	sta     _tmp9
;
; switch (tmp2) {
;
	.dbg	line, "SAUCE/functions/sprite_loading.h", 1164
	lda     _tmp2
;
; }
;
	.dbg	line, "SAUCE/functions/sprite_loading.h", 1216
	jeq     L0068
	cmp     #$FC
	jeq     L005C
	cmp     #$FD
	beq     L0016
	cmp     #$FE
	beq     L0011
	cmp     #$FF
	jeq     L0026
	jmp     L005E
;
; if (twoplayer || !viseffects) activesprites_type[index] = 0xFF;
;
	.dbg	line, "SAUCE/functions/sprite_loading.h", 1167
L0011:	lda     _twoplayer
	bne     L0055
	lda     _viseffects
	jne     L0068
L0055:	ldy     _index
	lda     #$FF
	sta     _activesprites_type,y
;
; continue;
;
	.dbg	line, "SAUCE/functions/sprite_loading.h", 1168
	jmp     L0068
;
; if (discomode) {
;
	.dbg	line, "SAUCE/functions/sprite_loading.h", 1171
L0016:	lda     _discomode
	beq     L0056
;
; activesprites_type[index] = 0xFF; continue;
;
	.dbg	line, "SAUCE/functions/sprite_loading.h", 1172
	ldy     _index
	lda     #$FF
	sta     _activesprites_type,y
	jmp     L0068
;
; tmp2 = (tmp4 & 0x3F);
;
	.dbg	line, "SAUCE/functions/sprite_loading.h", 1174
L0056:	lda     _tmp4
	and     #$3F
	sta     _tmp2
;
; if (tmp2 == 0x20) tmp2 = 0x30;
;
	.dbg	line, "SAUCE/functions/sprite_loading.h", 1176
	cmp     #$20
	bne     L0057
	lda     #$30
	sta     _tmp2
;
; if (tmp4 == 0x9F) {
;
	.dbg	line, "SAUCE/functions/sprite_loading.h", 1178
L0057:	lda     _tmp4
	cmp     #$9F
	bne     L0058
;
; pal_col(0, color1);
;
	.dbg	line, "SAUCE/functions/sprite_loading.h", 1179
	lda     _icon_colors
	sta     _PAL_BUF_RAW
	tay
	lda     (_PAL_PTR),y
	sta     _PAL_BUF
;
; pal_col(1, oneShadeDarker(color1)); 
;
	.dbg	line, "SAUCE/functions/sprite_loading.h", 1180
	ldy     _icon_colors
	lda     palBrightTable3,y
	sta     _PAL_BUF_RAW+1
	ldy     _icon_colors
	lda     palBrightTable3,y
	tay
	lda     (_PAL_PTR),y
	sta     _PAL_BUF+1
;
; pal_col(9, oneShadeDarker(color1)); 
;
	.dbg	line, "SAUCE/functions/sprite_loading.h", 1181
	ldy     _icon_colors
	lda     palBrightTable3,y
	sta     _PAL_BUF_RAW+9
	ldy     _icon_colors
	lda     palBrightTable3,y
	tay
	lda     (_PAL_PTR),y
	sta     _PAL_BUF+9
;
; else if (tmp4 == 0xAE) {
;
	.dbg	line, "SAUCE/functions/sprite_loading.h", 1185
	jmp     L006A
L0058:	lda     _tmp4
	cmp     #$AE
	bne     L0059
;
; pal_col(6, color2);
;
	.dbg	line, "SAUCE/functions/sprite_loading.h", 1186
	lda     _icon_colors+1
	sta     _PAL_BUF_RAW+6
	tay
	lda     (_PAL_PTR),y
	sta     _PAL_BUF+6
;
; pal_col(5, oneShadeDarker(color2)); 
;
	.dbg	line, "SAUCE/functions/sprite_loading.h", 1187
	ldy     _icon_colors+1
	lda     palBrightTable3,y
	sta     _PAL_BUF_RAW+5
	ldy     _icon_colors+1
	lda     palBrightTable3,y
	tay
	lda     (_PAL_PTR),y
	sta     _PAL_BUF+5
;
; lastgcolortype = tmp4;
;
	.dbg	line, "SAUCE/functions/sprite_loading.h", 1188
	lda     _tmp4
	sta     _lastgcolortype
;
; else if (tmp4 >= 0xC0){
;
	.dbg	line, "SAUCE/functions/sprite_loading.h", 1190
	jmp     L005B
L0059:	lda     _tmp4
	cmp     #$C0
	bcc     L005A
;
; pal_col(6, tmp2);
;
	.dbg	line, "SAUCE/functions/sprite_loading.h", 1191
	lda     _tmp2
	sta     _PAL_BUF_RAW+6
	tay
	lda     (_PAL_PTR),y
	sta     _PAL_BUF+6
;
; pal_col(5, oneShadeDarker(tmp2)); 
;
	.dbg	line, "SAUCE/functions/sprite_loading.h", 1192
	ldy     _tmp2
	lda     palBrightTable3,y
	sta     _PAL_BUF_RAW+5
	ldy     _tmp2
	lda     palBrightTable3,y
	tay
	lda     (_PAL_PTR),y
	sta     _PAL_BUF+5
;
; lastgcolortype = tmp4;
;
	.dbg	line, "SAUCE/functions/sprite_loading.h", 1193
	lda     _tmp4
	sta     _lastgcolortype
;
; } else {
;
	.dbg	line, "SAUCE/functions/sprite_loading.h", 1194
	jmp     L005B
;
; pal_col(0, tmp2);
;
	.dbg	line, "SAUCE/functions/sprite_loading.h", 1195
L005A:	lda     _tmp2
	sta     _PAL_BUF_RAW
	tay
	lda     (_PAL_PTR),y
	sta     _PAL_BUF
;
; pal_col(1, oneShadeDarker(tmp2)); 
;
	.dbg	line, "SAUCE/functions/sprite_loading.h", 1196
	ldy     _tmp2
	lda     palBrightTable3,y
	sta     _PAL_BUF_RAW+1
	ldy     _tmp2
	lda     palBrightTable3,y
	tay
	lda     (_PAL_PTR),y
	sta     _PAL_BUF+1
;
; pal_col(9, oneShadeDarker(tmp2)); 
;
	.dbg	line, "SAUCE/functions/sprite_loading.h", 1197
	ldy     _tmp2
	lda     palBrightTable3,y
	sta     _PAL_BUF_RAW+9
	ldy     _tmp2
	lda     palBrightTable3,y
	tay
	lda     (_PAL_PTR),y
	sta     _PAL_BUF+9
;
; pal_col(0x0D, oneShadeDarker(tmp2)); 
;
	.dbg	line, "SAUCE/functions/sprite_loading.h", 1198
	ldy     _tmp2
	lda     palBrightTable3,y
	sta     _PAL_BUF_RAW+13
	ldy     _tmp2
	lda     palBrightTable3,y
	tay
	lda     (_PAL_PTR),y
	sta     _PAL_BUF+13
;
; lastbgcolortype = tmp4;
;
	.dbg	line, "SAUCE/functions/sprite_loading.h", 1199
L006A:	lda     _tmp4
	sta     _lastbgcolortype
;
; pal_set_update();
;
	.dbg	line, "SAUCE/functions/sprite_loading.h", 1201
L005B:	inc     _PAL_UPDATE
;
; activesprites_type[index] = 0xFF;
;
	.dbg	line, "SAUCE/functions/sprite_loading.h", 1202
	ldy     _index
	lda     #$FF
	sta     _activesprites_type,y
;
; continue;
;
	.dbg	line, "SAUCE/functions/sprite_loading.h", 1205
	jmp     L0068
;
; if (tmp4 == 0xAF) outline_color = color1;
;
	.dbg	line, "SAUCE/functions/sprite_loading.h", 1209
L005C:	lda     _tmp4
	cmp     #$AF
	bne     L005D
	lda     _icon_colors
;
; else outline_color = idx8_load(OUTLINES, tmp4 & 0x0F);
;
	.dbg	line, "SAUCE/functions/sprite_loading.h", 1210
	jmp     L0050
L005D:	lda     _tmp4
	and     #$0F
	tay
	lda     _OUTLINES,y
L0050:	sta     _outline_color
;
; activesprites_type[index] = 0xFF;
;
	.dbg	line, "SAUCE/functions/sprite_loading.h", 1211
	ldy     _index
	lda     #$FF
	sta     _activesprites_type,y
;
; continue;
;
	.dbg	line, "SAUCE/functions/sprite_loading.h", 1212
	jmp     L0068
;
; if ((tmp2 = sprite_load_special_behavior()) == 0) continue;
;
	.dbg	line, "SAUCE/functions/sprite_loading.h", 1215
L0026:	jsr     _sprite_load_special_behavior
	sta     _tmp2
	cmp     #$00
	jeq     L0068
;
; Generic2.height = tmp2; 
;
	.dbg	line, "SAUCE/functions/sprite_loading.h", 1217
L005E:	lda     _tmp2
	sta     _Generic2+3
;
; Generic2.width  = tmp9;
;
	.dbg	line, "SAUCE/functions/sprite_loading.h", 1218
	lda     _tmp9
	sta     _Generic2+2
;
; signExtend8to16(idx8_load(sprite_x_offset, tmp4));
;
	.dbg	line, "SAUCE/functions/sprite_loading.h", 1220
	ldy     _tmp4
	ldx     #0
	lda     _sprite_x_offset,y
	bpl     L002D
	dex
;
; cc65_ptr2 = __AX__ + activesprites_realx[index];
;
	.dbg	line, "SAUCE/functions/sprite_loading.h", 1221
L002D:	sta     ptr1
	stx     ptr1+1
	ldy     _index
	lda     _activesprites_realx,y
	clc
	adc     ptr1
	ldx     ptr1+1
	bcc     L004B
	inx
L004B:	sta     _cc65_ptr2
	stx     _cc65_ptr2+1
;
; if (high_byte(cc65_ptr2) != 0)
;
	.dbg	line, "SAUCE/functions/sprite_loading.h", 1222
	lda     _cc65_ptr2+1
	beq     L0061
;
; Generic2.x = (high_byte(cc65_ptr2) >= 0x80 ? 0x00 : 0xFF);
;
	.dbg	line, "SAUCE/functions/sprite_loading.h", 1223
	cmp     #$80
	bcc     L005F
	lda     #$00
	jmp     L0051
L005F:	lda     #$FF
;
; else
;
	.dbg	line, "SAUCE/functions/sprite_loading.h", 1224
	jmp     L0051
;
; Generic2.x = low_byte(cc65_ptr2);
;
	.dbg	line, "SAUCE/functions/sprite_loading.h", 1225
L0061:	lda     _cc65_ptr2
L0051:	sta     _Generic2
;
; signExtend8to16(idx8_load(sprite_y_offset, tmp4));
;
	.dbg	line, "SAUCE/functions/sprite_loading.h", 1227
	ldy     _tmp4
	ldx     #0
	lda     _sprite_y_offset,y
	bpl     L0038
	dex
;
; cc65_ptr2 = __AX__ + activesprites_realy[index];
;
	.dbg	line, "SAUCE/functions/sprite_loading.h", 1228
L0038:	sta     ptr1
	stx     ptr1+1
	ldy     _index
	lda     _activesprites_realy,y
	clc
	adc     ptr1
	ldx     ptr1+1
	bcc     L004C
	inx
L004C:	sta     _cc65_ptr2
	stx     _cc65_ptr2+1
;
; if (high_byte(cc65_ptr2) != 0)
;
	.dbg	line, "SAUCE/functions/sprite_loading.h", 1229
	ldx     #$00
	lda     _cc65_ptr2+1
	beq     L0064
;
; Generic2.y = (high_byte(cc65_ptr2) >= 0x80 ? 0x00 : 0xFF);
;
	.dbg	line, "SAUCE/functions/sprite_loading.h", 1230
	cmp     #$80
	bcc     L0062
	txa
	jmp     L0052
L0062:	lda     #$FF
;
; else
;
	.dbg	line, "SAUCE/functions/sprite_loading.h", 1231
	jmp     L0052
;
; Generic2.y = low_byte(cc65_ptr2);
;
	.dbg	line, "SAUCE/functions/sprite_loading.h", 1232
L0064:	lda     _cc65_ptr2
L0052:	sta     _Generic2+1
;
; if (check_collision()) {
;
	.dbg	line, "SAUCE/functions/sprite_loading.h", 1234
	jsr     _check_collision
	tax
	beq     L003E
;
; sprite_collide_lookup();
;
	.dbg	line, "SAUCE/functions/sprite_loading.h", 1235
	jsr     _sprite_collide_lookup
;
; else if (activesprites_type[index] == SKULL_ORB && activesprites_animated[index] == 1) activesprites_animated[index] = 2;
;
	.dbg	line, "SAUCE/functions/sprite_loading.h", 1238
	jmp     L0068
L003E:	ldy     _index
	lda     _activesprites_type,y
	cmp     #$79
	bne     L0068
	ldy     _index
	lda     _activesprites_animated,y
	cmp     #$01
	bne     L0068
	ldy     _index
	lda     #$02
	sta     _activesprites_animated,y
;
; } while (++index < max_loaded_sprites);
;
	.dbg	line, "SAUCE/functions/sprite_loading.h", 1240
L0068:	inc     _index
	lda     _index
	cmp     #$10
	jcc     L0007
;
; if (gamemode != GAMEMODE_WAVE) {
;
	.dbg	line, "SAUCE/functions/sprite_loading.h", 1241
	lda     _gamemode
	cmp     #$06
	beq     L0069
;
; Generic.width = CUBE_WIDTH[currplayer_mini]; 
;
	.dbg	line, "SAUCE/functions/sprite_loading.h", 1242
	ldy     _currplayer_mini
	lda     _CUBE_WIDTH,y
;
; } else {
;
	.dbg	line, "SAUCE/functions/sprite_loading.h", 1243
	jmp     L0053
;
; Generic.width = WAVE_WIDTH;
;
	.dbg	line, "SAUCE/functions/sprite_loading.h", 1244
L0069:	lda     #$08
L0053:	sta     _Generic+2
;
; Generic.height = CUBE_HEIGHT[currplayer_mini];
;
	.dbg	line, "SAUCE/functions/sprite_loading.h", 1246
	ldy     _currplayer_mini
	lda     _CUBE_HEIGHT,y
	sta     _Generic+3
;
; }
;
	.dbg	line, "SAUCE/functions/sprite_loading.h", 1247
	rts

	.dbg	line
.endproc

; ---------------------------------------------------------------
; void __near__ store_practice_state (void)
; ---------------------------------------------------------------

.segment	"XCD_BANK_04"

.proc	_store_practice_state: near

	.dbg	func, "store_practice_state", "00", static, "_store_practice_state"

.segment	"XCD_BANK_04"

;
; if (!practice_point_count) {
;
	.dbg	line, "SAUCE/functions/practice_state.h", 23
	lda     _practice_point_count
	bne     L0002
;
; if (!practice_music_sync)
;
	.dbg	line, "SAUCE/functions/practice_state.h", 24
	lda     _practice_music_sync
	bne     L0003
;
; music_play(song_practice);
;
	.dbg	line, "SAUCE/functions/practice_state.h", 25
	lda     #$03
	jsr     _music_play
;
; latest_practice_point = 0;
;
	.dbg	line, "SAUCE/functions/practice_state.h", 26
L0003:	lda     #$00
;
; } else {
;
	.dbg	line, "SAUCE/functions/practice_state.h", 27
	jmp     L0008
;
; latest_practice_point++;
;
	.dbg	line, "SAUCE/functions/practice_state.h", 28
L0002:	inc     _latest_practice_point
;
; latest_practice_point &= 7;
;
	.dbg	line, "SAUCE/functions/practice_state.h", 29
	lda     _latest_practice_point
	and     #$07
L0008:	sta     _latest_practice_point
;
; if (practice_point_count < MAX_PRACTICE_POINTS)
;
	.dbg	line, "SAUCE/functions/practice_state.h", 32
	lda     _practice_point_count
	cmp     #$08
	bcs     L0009
;
; practice_point_count++;
;
	.dbg	line, "SAUCE/functions/practice_state.h", 33
	inc     _practice_point_count
;
; tmp1 = latest_practice_point;
;
	.dbg	line, "SAUCE/functions/practice_state.h", 35
L0009:	lda     _latest_practice_point
	sta     _tmp1
;
; curr_practice_point = latest_practice_point;
;
	.dbg	line, "SAUCE/functions/practice_state.h", 37
	sta     _curr_practice_point
;
; lohi_arr16_store(practice_player_1_x, tmp1, player_x[0]);
;
	.dbg	line, "SAUCE/functions/practice_state.h", 38
	ldy     _tmp1
	lda     _player_x
	sta     _practice_player_1_x_lo,y
	lda     _player_x+1
	sta     _practice_player_1_x_hi,y
;
; lohi_arr16_store(practice_player_2_x, get_Y, player_x[1]);
;
	.dbg	line, "SAUCE/functions/practice_state.h", 39
	lda     _player_x+2
	sta     _practice_player_2_x_lo,y
	lda     _player_x+2+1
	sta     _practice_player_2_x_hi,y
;
; lohi_arr16_store(practice_player_1_y, get_Y, player_y[0]);
;
	.dbg	line, "SAUCE/functions/practice_state.h", 40
	lda     _player_y
	sta     _practice_player_1_y_lo,y
	lda     _player_y+1
	sta     _practice_player_1_y_hi,y
;
; lohi_arr16_store(practice_player_2_y, get_Y, player_y[1]);
;
	.dbg	line, "SAUCE/functions/practice_state.h", 41
	lda     _player_y+2
	sta     _practice_player_2_y_lo,y
	lda     _player_y+2+1
	sta     _practice_player_2_y_hi,y
;
; lohi_arr16_store(practice_player_1_vel_x, get_Y, player_vel_x[0]);
;
	.dbg	line, "SAUCE/functions/practice_state.h", 42
	lda     _player_vel_x
	sta     _practice_player_1_vel_x_lo,y
	lda     _player_vel_x+1
	sta     _practice_player_1_vel_x_hi,y
;
; lohi_arr16_store(practice_player_2_vel_x, get_Y, player_vel_x[1]);
;
	.dbg	line, "SAUCE/functions/practice_state.h", 43
	lda     _player_vel_x+2
	sta     _practice_player_2_vel_x_lo,y
	lda     _player_vel_x+2+1
	sta     _practice_player_2_vel_x_hi,y
;
; lohi_arr16_store(practice_player_1_vel_y, get_Y, player_vel_y[0]);
;
	.dbg	line, "SAUCE/functions/practice_state.h", 44
	lda     _player_vel_y
	sta     _practice_player_1_vel_y_lo,y
	lda     _player_vel_y+1
	sta     _practice_player_1_vel_y_hi,y
;
; lohi_arr16_store(practice_player_2_vel_y, get_Y, player_vel_y[1]);
;
	.dbg	line, "SAUCE/functions/practice_state.h", 45
	lda     _player_vel_y+2
	sta     _practice_player_2_vel_y_lo,y
	lda     _player_vel_y+2+1
	sta     _practice_player_2_vel_y_hi,y
;
; lohi_arr16_store(practice_cube_1_rotate, get_Y, cube_rotate[0]);
;
	.dbg	line, "SAUCE/functions/practice_state.h", 46
	lda     _cube_rotate
	sta     _practice_cube_1_rotate_lo,y
	lda     _cube_rotate+1
	sta     _practice_cube_1_rotate_hi,y
;
; lohi_arr16_store(practice_cube_2_rotate, get_Y, cube_rotate[1]);
;
	.dbg	line, "SAUCE/functions/practice_state.h", 47
	lda     _cube_rotate+2
	sta     _practice_cube_2_rotate_lo,y
	lda     _cube_rotate+2+1
	sta     _practice_cube_2_rotate_hi,y
;
; idx8_store(practice_nocamlockforced, get_Y, nocamlockforced);
;
	.dbg	line, "SAUCE/functions/practice_state.h", 49
	lda     _nocamlockforced
	sta     _practice_nocamlockforced,y
;
; idx8_store(practice_song, get_Y, song);
;
	.dbg	line, "SAUCE/functions/practice_state.h", 50
	lda     _song
	sta     _practice_song,y
;
; idx8_store(practice_player_1_gravity, get_Y, player_gravity[0]);
;
	.dbg	line, "SAUCE/functions/practice_state.h", 51
	lda     _player_gravity
	sta     _practice_player_1_gravity,y
;
; idx8_store(practice_player_2_gravity, get_Y, player_gravity[1]);
;
	.dbg	line, "SAUCE/functions/practice_state.h", 52
	lda     _player_gravity+1
	sta     _practice_player_2_gravity,y
;
; idx8_store(practice_player_1_mini, get_Y, player_mini[0]);
;
	.dbg	line, "SAUCE/functions/practice_state.h", 53
	lda     _player_mini
	sta     _practice_player_1_mini,y
;
; idx8_store(practice_player_2_mini, get_Y, player_mini[1]);
;
	.dbg	line, "SAUCE/functions/practice_state.h", 54
	lda     _player_mini+1
	sta     _practice_player_2_mini,y
;
; idx8_store(practice_player_1_slope_frames, get_Y, slope_frames[0]);
;
	.dbg	line, "SAUCE/functions/practice_state.h", 55
	lda     _slope_frames
	sta     _practice_player_1_slope_frames,y
;
; idx8_store(practice_player_2_slope_frames, get_Y, slope_frames[1]);
;
	.dbg	line, "SAUCE/functions/practice_state.h", 56
	lda     _slope_frames+1
	sta     _practice_player_2_slope_frames,y
;
; idx8_store(practice_player_1_was_on_slope_counter, get_Y, was_on_slope_counter[0]);
;
	.dbg	line, "SAUCE/functions/practice_state.h", 57
	lda     _was_on_slope_counter
	sta     _practice_player_1_was_on_slope_counter,y
;
; idx8_store(practice_player_2_was_on_slope_counter, get_Y, was_on_slope_counter[1]);
;
	.dbg	line, "SAUCE/functions/practice_state.h", 58
	lda     _was_on_slope_counter+1
	sta     _practice_player_2_was_on_slope_counter,y
;
; idx8_store(practice_player_1_slope_type, get_Y, slope_type[0]);
;
	.dbg	line, "SAUCE/functions/practice_state.h", 59
	lda     _slope_type
	sta     _practice_player_1_slope_type,y
;
; idx8_store(practice_player_2_slope_type, get_Y, slope_type[1]);
;
	.dbg	line, "SAUCE/functions/practice_state.h", 60
	lda     _slope_type+1
	sta     _practice_player_2_slope_type,y
;
; idx8_store(practice_player_1_last_slope_type, get_Y, last_slope_type[0]);
;
	.dbg	line, "SAUCE/functions/practice_state.h", 61
	lda     _last_slope_type
	sta     _practice_player_1_last_slope_type,y
;
; idx8_store(practice_player_2_last_slope_type, get_Y, last_slope_type[1]);
;
	.dbg	line, "SAUCE/functions/practice_state.h", 62
	lda     _last_slope_type+1
	sta     _practice_player_2_last_slope_type,y
;
; lohi_arr32_store_from(practice_scroll_x, get_Y, scroll_x);
;
	.dbg	line, "SAUCE/functions/practice_state.h", 64
	lda     _scroll_x
	sta     _practice_scroll_x_lo,y
	lda     _scroll_x+1
	sta     _practice_scroll_x_md,y
	lda     _scroll_x+2
	sta     _practice_scroll_x_hi,y
	lda     _scroll_x+2+1
	sta     _practice_scroll_x_ex,y
;
; lohi_arr16_store(practice_scroll_y, get_Y, scroll_y);
;
	.dbg	line, "SAUCE/functions/practice_state.h", 65
	lda     _scroll_y
	sta     _practice_scroll_y_lo,y
	lda     _scroll_y+1
	sta     _practice_scroll_y_hi,y
;
; idx8_store(practice_scroll_y_subpx, get_Y, scroll_y_subpx);
;
	.dbg	line, "SAUCE/functions/practice_state.h", 66
	lda     _scroll_y_subpx
	sta     _practice_scroll_y_subpx,y
;
; lohi_arr16_store(practice_seam_scroll_y, get_Y, seam_scroll_y);
;
	.dbg	line, "SAUCE/functions/practice_state.h", 67
	lda     _seam_scroll_y
	sta     _practice_seam_scroll_y_lo,y
	lda     _seam_scroll_y+1
	sta     _practice_seam_scroll_y_hi,y
;
; lohi_arr16_store(practice_old_draw_scroll_y, get_Y, old_draw_scroll_y);
;
	.dbg	line, "SAUCE/functions/practice_state.h", 68
	lda     _old_draw_scroll_y
	sta     _practice_old_draw_scroll_y_lo,y
	lda     _old_draw_scroll_y+1
	sta     _practice_old_draw_scroll_y_hi,y
;
; lohi_arr16_store(practice_target_scroll_y, get_Y, target_scroll_y);
;
	.dbg	line, "SAUCE/functions/practice_state.h", 69
	lda     _target_scroll_y
	sta     _practice_target_scroll_y_lo,y
	lda     _target_scroll_y+1
	sta     _practice_target_scroll_y_hi,y
;
; lohi_arr16_store(practice_min_scroll_y, get_Y, min_scroll_y);
;
	.dbg	line, "SAUCE/functions/practice_state.h", 70
	lda     _min_scroll_y
	sta     _practice_min_scroll_y_lo,y
	lda     _min_scroll_y+1
	sta     _practice_min_scroll_y_hi,y
;
; idx8_store(practice_player_invis, get_Y, player_invis);
;
	.dbg	line, "SAUCE/functions/practice_state.h", 72
	lda     _player_invis
	sta     _practice_player_invis,y
;
; idx8_store(practice_player_gamemode, get_Y, gamemode);
;
	.dbg	line, "SAUCE/functions/practice_state.h", 73
	lda     _gamemode
	sta     _practice_player_gamemode,y
;
; idx8_store(practice_dual, get_Y, dual);
;
	.dbg	line, "SAUCE/functions/practice_state.h", 74
	lda     _dual
	sta     _practice_dual,y
;
; idx8_store(practice_speed, get_Y, speed);
;
	.dbg	line, "SAUCE/functions/practice_state.h", 75
	lda     _speed
	sta     _practice_speed,y
;
; idx8_store(practice_parallax_scroll_x, get_Y, parallax_scroll_x);
;
	.dbg	line, "SAUCE/functions/practice_state.h", 76
	lda     _parallax_scroll_x
	sta     _practice_parallax_scroll_x,y
;
; idx8_store(practice_bg_color_type, get_Y, lastbgcolortype);
;
	.dbg	line, "SAUCE/functions/practice_state.h", 77
	lda     _lastbgcolortype
	sta     _practice_bg_color_type,y
;
; idx8_store(practice_g_color_type, get_Y, lastgcolortype);
;
	.dbg	line, "SAUCE/functions/practice_state.h", 78
	lda     _lastgcolortype
	sta     _practice_g_color_type,y
;
; idx8_store(practice_outline_color, get_Y, outline_color);
;
	.dbg	line, "SAUCE/functions/practice_state.h", 79
	lda     _outline_color
	sta     _practice_outline_color,y
;
; idx8_store(practice_orbactive, get_Y, orbactive);
;
	.dbg	line, "SAUCE/functions/practice_state.h", 80
	lda     _orbactive
	sta     _practice_orbactive,y
;
; idx8_store(practice_nullscapes_active, get_Y, nullscapes_active);
;
	.dbg	line, "SAUCE/functions/practice_state.h", 81
	lda     _nullscapes_active
	sta     _practice_nullscapes_active,y
;
; idx8_store(practice_nullscapes_orb_type, get_Y, nullscapes_orb_type);
;
	.dbg	line, "SAUCE/functions/practice_state.h", 82
	lda     _nullscapes_orb_type
	sta     _practice_nullscapes_orb_type,y
;
; idx8_store(practice_disco_sprites, get_Y, disco_sprites);
;
	.dbg	line, "SAUCE/functions/practice_state.h", 83
	lda     _disco_sprites
	sta     _practice_disco_sprites,y
;
; idx8_store(practice_slowmode, get_Y, slowmode);
;
	.dbg	line, "SAUCE/functions/practice_state.h", 84
	lda     _slowmode
	sta     _practice_slowmode,y
;
; idx8_store(practice_forced_trails, get_Y, forced_trails);
;
	.dbg	line, "SAUCE/functions/practice_state.h", 85
	lda     _forced_trails
	sta     _practice_forced_trails,y
;
; idx8_store(practice_gravity_mod, get_Y, gravity_mod);
;
	.dbg	line, "SAUCE/functions/practice_state.h", 86
	lda     _gravity_mod
	sta     _practice_gravity_mod,y
;
; idx8_store(practice_kandoframecnt, get_Y, kandoframecnt);
;
	.dbg	line, "SAUCE/functions/practice_state.h", 87
	lda     _kandoframecnt
	sta     _practice_kandoframecnt,y
;
; if (practice_music_sync) {
;
	.dbg	line, "SAUCE/functions/practice_state.h", 89
	lda     _practice_music_sync
	beq     L000A
;
; memcpy(practice_famistudio_state + lohi_arr16_load(multStateLookup, tmp1), famistudio_state, FAMISTUDIO_STATE_SIZE);
;
	.dbg	line, "SAUCE/functions/practice_state.h", 90
	ldy     _tmp1
	lda     _multStateLookup_lo,y
	ldx     _multStateLookup_hi,y
	clc
	adc     #<(_practice_famistudio_state)
	sta     _xargs
	txa
	adc     #>(_practice_famistudio_state)
	sta     _xargs+1
	lda     #<(_famistudio_state)
	ldx     #>(_famistudio_state)
	stx     sreg+1
	sta     sreg
	ldx     #$00
	lda     #$AC
	jsr     __memcpy
;
; memcpy(practice_famistudio_registers + multBufLookup[tmp1], famistudio_output_buf, FAMISTUDIO_OUTPUT_BUF_SIZE);
;
	.dbg	line, "SAUCE/functions/practice_state.h", 91
	ldy     _tmp1
	lda     _multBufLookup,y
	clc
	adc     #<(_practice_famistudio_registers)
	sta     _xargs
	lda     #$00
	adc     #>(_practice_famistudio_registers)
	sta     _xargs+1
	lda     #<(_famistudio_output_buf)
	ldx     #>(_famistudio_output_buf)
	stx     sreg+1
	sta     sreg
	ldx     #$00
	lda     #$0B
	jsr     __memcpy
;
; practice_sprite_x_pos = high_byte(player_x[0]);
;
	.dbg	line, "SAUCE/functions/practice_state.h", 93
L000A:	lda     _player_x+1
	sta     _practice_sprite_x_pos
;
; auto_practicepoint_timer = 200;
;
	.dbg	line, "SAUCE/functions/practice_state.h", 94
	ldx     #$00
	lda     #$C8
	sta     _auto_practicepoint_timer
	stx     _auto_practicepoint_timer+1
;
; }
;
	.dbg	line, "SAUCE/functions/practice_state.h", 96
	rts

	.dbg	line
.endproc

; ---------------------------------------------------------------
; void __near__ load_practice_state (void)
; ---------------------------------------------------------------

.segment	"XCD_BANK_04"

.proc	_load_practice_state: near

	.dbg	func, "load_practice_state", "00", static, "_load_practice_state"

.segment	"XCD_BANK_04"

;
; tmp2 = curr_practice_point;
;
	.dbg	line, "SAUCE/functions/practice_state.h", 101
	lda     _curr_practice_point
	sta     _tmp2
;
; player_x[0] = lohi_arr16_load(practice_player_1_x, tmp2);
;
	.dbg	line, "SAUCE/functions/practice_state.h", 102
	tay
	lda     _practice_player_1_x_hi,y
	sta     _player_x+1
	lda     _practice_player_1_x_lo,y
	sta     _player_x
;
; player_x[1] = lohi_arr16_load(practice_player_2_x, get_Y);
;
	.dbg	line, "SAUCE/functions/practice_state.h", 103
	lda     _practice_player_2_x_hi,y
	sta     _player_x+2+1
	lda     _practice_player_2_x_lo,y
	sta     _player_x+2
;
; player_y[0] = lohi_arr16_load(practice_player_1_y, get_Y);
;
	.dbg	line, "SAUCE/functions/practice_state.h", 104
	lda     _practice_player_1_y_hi,y
	sta     _player_y+1
	lda     _practice_player_1_y_lo,y
	sta     _player_y
;
; player_y[1] = lohi_arr16_load(practice_player_2_y, get_Y);
;
	.dbg	line, "SAUCE/functions/practice_state.h", 105
	lda     _practice_player_2_y_hi,y
	sta     _player_y+2+1
	lda     _practice_player_2_y_lo,y
	sta     _player_y+2
;
; player_vel_x[0] = lohi_arr16_load(practice_player_1_vel_x, get_Y);
;
	.dbg	line, "SAUCE/functions/practice_state.h", 106
	lda     _practice_player_1_vel_x_hi,y
	sta     _player_vel_x+1
	lda     _practice_player_1_vel_x_lo,y
	sta     _player_vel_x
;
; player_vel_x[1] = lohi_arr16_load(practice_player_2_vel_x, get_Y);
;
	.dbg	line, "SAUCE/functions/practice_state.h", 107
	lda     _practice_player_2_vel_x_hi,y
	sta     _player_vel_x+2+1
	lda     _practice_player_2_vel_x_lo,y
	sta     _player_vel_x+2
;
; player_vel_y[0] = lohi_arr16_load(practice_player_1_vel_y, get_Y);
;
	.dbg	line, "SAUCE/functions/practice_state.h", 108
	lda     _practice_player_1_vel_y_hi,y
	sta     _player_vel_y+1
	lda     _practice_player_1_vel_y_lo,y
	sta     _player_vel_y
;
; player_vel_y[1] = lohi_arr16_load(practice_player_2_vel_y, get_Y);
;
	.dbg	line, "SAUCE/functions/practice_state.h", 109
	lda     _practice_player_2_vel_y_hi,y
	sta     _player_vel_y+2+1
	lda     _practice_player_2_vel_y_lo,y
	sta     _player_vel_y+2
;
; cube_rotate[0] = lohi_arr16_load(practice_cube_1_rotate, get_Y);
;
	.dbg	line, "SAUCE/functions/practice_state.h", 110
	lda     _practice_cube_1_rotate_hi,y
	sta     _cube_rotate+1
	lda     _practice_cube_1_rotate_lo,y
	sta     _cube_rotate
;
; cube_rotate[1] = lohi_arr16_load(practice_cube_2_rotate, get_Y);
;
	.dbg	line, "SAUCE/functions/practice_state.h", 111
	lda     _practice_cube_2_rotate_hi,y
	sta     _cube_rotate+2+1
	lda     _practice_cube_2_rotate_lo,y
	sta     _cube_rotate+2
;
; currplayer_gravity = player_gravity[0] =   idx8_load(practice_player_1_gravity, get_Y);
;
	.dbg	line, "SAUCE/functions/practice_state.h", 114
	lda     _practice_player_1_gravity,y
	sta     _player_gravity
	sta     _currplayer_gravity
;
; player_gravity[1] = idx8_load(practice_player_2_gravity, get_Y);
;
	.dbg	line, "SAUCE/functions/practice_state.h", 115
	lda     _practice_player_2_gravity,y
	sta     _player_gravity+1
;
; currplayer_mini = player_mini[0] = idx8_load(practice_player_1_mini, get_Y);
;
	.dbg	line, "SAUCE/functions/practice_state.h", 117
	lda     _practice_player_1_mini,y
	sta     _player_mini
	sta     _currplayer_mini
;
; player_mini[1] = idx8_load(practice_player_2_mini, get_Y);
;
	.dbg	line, "SAUCE/functions/practice_state.h", 118
	lda     _practice_player_2_mini,y
	sta     _player_mini+1
;
; currplayer_slope_frames = slope_frames[0] = idx8_load(practice_player_1_slope_frames, get_Y);
;
	.dbg	line, "SAUCE/functions/practice_state.h", 120
	lda     _practice_player_1_slope_frames,y
	sta     _slope_frames
	sta     _currplayer_slope_frames
;
; slope_frames[1] = idx8_load(practice_player_2_slope_frames, get_Y);
;
	.dbg	line, "SAUCE/functions/practice_state.h", 121
	lda     _practice_player_2_slope_frames,y
	sta     _slope_frames+1
;
; currplayer_was_on_slope_counter = was_on_slope_counter[0] =   idx8_load(practice_player_1_was_on_slope_counter, get_Y);
;
	.dbg	line, "SAUCE/functions/practice_state.h", 124
	lda     _practice_player_1_was_on_slope_counter,y
	sta     _was_on_slope_counter
	sta     _currplayer_was_on_slope_counter
;
; was_on_slope_counter[1] = idx8_load(practice_player_2_was_on_slope_counter, get_Y);
;
	.dbg	line, "SAUCE/functions/practice_state.h", 125
	lda     _practice_player_2_was_on_slope_counter,y
	sta     _was_on_slope_counter+1
;
; currplayer_slope_type = slope_type[0] =   idx8_load(practice_player_1_slope_type, get_Y);
;
	.dbg	line, "SAUCE/functions/practice_state.h", 128
	lda     _practice_player_1_slope_type,y
	sta     _slope_type
	sta     _currplayer_slope_type
;
; slope_type[1] = idx8_load(practice_player_2_slope_type, get_Y);
;
	.dbg	line, "SAUCE/functions/practice_state.h", 129
	lda     _practice_player_2_slope_type,y
	sta     _slope_type+1
;
; nocamlockforced = idx8_load(practice_nocamlockforced, get_Y);
;
	.dbg	line, "SAUCE/functions/practice_state.h", 131
	lda     _practice_nocamlockforced,y
	sta     _nocamlockforced
;
; song = idx8_load(practice_song, get_Y);
;
	.dbg	line, "SAUCE/functions/practice_state.h", 132
	lda     _practice_song,y
	sta     _song
;
; disco_sprites = idx8_load(practice_disco_sprites, get_Y);
;
	.dbg	line, "SAUCE/functions/practice_state.h", 133
	lda     _practice_disco_sprites,y
	sta     _disco_sprites
;
; slowmode = idx8_load(practice_slowmode, get_Y);
;
	.dbg	line, "SAUCE/functions/practice_state.h", 134
	lda     _practice_slowmode,y
	sta     _slowmode
;
; forced_trails = idx8_load(practice_forced_trails, get_Y);
;
	.dbg	line, "SAUCE/functions/practice_state.h", 135
	lda     _practice_forced_trails,y
	sta     _forced_trails
;
; gravity_mod = idx8_load(practice_gravity_mod, get_Y);
;
	.dbg	line, "SAUCE/functions/practice_state.h", 136
	lda     _practice_gravity_mod,y
	sta     _gravity_mod
;
; kandoframecnt = idx8_load(practice_kandoframecnt, get_Y);
;
	.dbg	line, "SAUCE/functions/practice_state.h", 137
	lda     _practice_kandoframecnt,y
	sta     _kandoframecnt
;
; currplayer_last_slope_type = last_slope_type[0] =   idx8_load(practice_player_1_last_slope_type, get_Y);
;
	.dbg	line, "SAUCE/functions/practice_state.h", 140
	lda     _practice_player_1_last_slope_type,y
	sta     _last_slope_type
	sta     _currplayer_last_slope_type
;
; last_slope_type[1] = idx8_load(practice_player_2_last_slope_type, get_Y);
;
	.dbg	line, "SAUCE/functions/practice_state.h", 141
	lda     _practice_player_2_last_slope_type,y
	sta     _last_slope_type+1
;
; lohi_arr32_load_to(practice_scroll_x, get_Y, scroll_x);
;
	.dbg	line, "SAUCE/functions/practice_state.h", 143
	lda     _practice_scroll_x_md,y
	sta     _scroll_x+1
	lda     _practice_scroll_x_lo,y
	sta     _scroll_x
	lda     _practice_scroll_x_ex,y
	sta     _scroll_x+2+1
	lda     _practice_scroll_x_hi,y
	sta     _scroll_x+2
;
; old_trail_scroll_y = scroll_y = lohi_arr16_load(practice_scroll_y, get_Y);
;
	.dbg	line, "SAUCE/functions/practice_state.h", 144
	lda     _practice_scroll_y_lo,y
	ldx     _practice_scroll_y_hi,y
	sta     _scroll_y
	stx     _scroll_y+1
	sta     _old_trail_scroll_y
	stx     _old_trail_scroll_y+1
;
; scroll_y_subpx = idx8_load(practice_scroll_y_subpx, get_Y);
;
	.dbg	line, "SAUCE/functions/practice_state.h", 145
	lda     _practice_scroll_y_subpx,y
	sta     _scroll_y_subpx
;
; old_draw_scroll_y = lohi_arr16_load(practice_old_draw_scroll_y, get_Y);
;
	.dbg	line, "SAUCE/functions/practice_state.h", 146
	lda     _practice_old_draw_scroll_y_hi,y
	sta     _old_draw_scroll_y+1
	lda     _practice_old_draw_scroll_y_lo,y
	sta     _old_draw_scroll_y
;
; seam_scroll_y = lohi_arr16_load(practice_seam_scroll_y, get_Y);
;
	.dbg	line, "SAUCE/functions/practice_state.h", 147
	lda     _practice_seam_scroll_y_hi,y
	sta     _seam_scroll_y+1
	lda     _practice_seam_scroll_y_lo,y
	sta     _seam_scroll_y
;
; target_scroll_y = lohi_arr16_load(practice_target_scroll_y, get_Y);
;
	.dbg	line, "SAUCE/functions/practice_state.h", 148
	lda     _practice_target_scroll_y_hi,y
	sta     _target_scroll_y+1
	lda     _practice_target_scroll_y_lo,y
	sta     _target_scroll_y
;
; min_scroll_y = lohi_arr16_load(practice_min_scroll_y, get_Y);
;
	.dbg	line, "SAUCE/functions/practice_state.h", 149
	lda     _practice_min_scroll_y_hi,y
	sta     _min_scroll_y+1
	lda     _practice_min_scroll_y_lo,y
	sta     _min_scroll_y
;
; player_invis = idx8_load(practice_player_invis, get_Y);
;
	.dbg	line, "SAUCE/functions/practice_state.h", 151
	lda     _practice_player_invis,y
	sta     _player_invis
;
; gamemode = idx8_load(practice_player_gamemode, get_Y);
;
	.dbg	line, "SAUCE/functions/practice_state.h", 152
	lda     _practice_player_gamemode,y
	sta     _gamemode
;
; dual = idx8_load(practice_dual, get_Y);
;
	.dbg	line, "SAUCE/functions/practice_state.h", 153
	lda     _practice_dual,y
	sta     _dual
;
; speed = idx8_load(practice_speed, get_Y);
;
	.dbg	line, "SAUCE/functions/practice_state.h", 154
	lda     _practice_speed,y
	sta     _speed
;
; parallax_scroll_x = idx8_load(practice_parallax_scroll_x, get_Y);
;
	.dbg	line, "SAUCE/functions/practice_state.h", 155
	lda     _practice_parallax_scroll_x,y
	sta     _parallax_scroll_x
;
; nullscapes_active = idx8_load(practice_nullscapes_active, get_Y);
;
	.dbg	line, "SAUCE/functions/practice_state.h", 161
	lda     _practice_nullscapes_active,y
	sta     _nullscapes_active
;
; nullscapes_orb_type = idx8_load(practice_nullscapes_orb_type, get_Y);
;
	.dbg	line, "SAUCE/functions/practice_state.h", 162
	lda     _practice_nullscapes_orb_type,y
	sta     _nullscapes_orb_type
;
; practice_sprite_x_pos = idx8_load(practice_player_1_x_hi, get_Y);
;
	.dbg	line, "SAUCE/functions/practice_state.h", 163
	lda     _practice_player_1_x_hi,y
	sta     _practice_sprite_x_pos
;
; outline_color = idx8_load(practice_outline_color, get_Y);
;
	.dbg	line, "SAUCE/functions/practice_state.h", 165
	lda     _practice_outline_color,y
	sta     _outline_color
;
; lastgcolortype = idx8_load(practice_g_color_type, get_Y);
;
	.dbg	line, "SAUCE/functions/practice_state.h", 167
	lda     _practice_g_color_type,y
	sta     _lastgcolortype
;
; lastbgcolortype = idx8_load(practice_bg_color_type, get_Y);
;
	.dbg	line, "SAUCE/functions/practice_state.h", 168
	lda     _practice_bg_color_type,y
	sta     _lastbgcolortype
;
; scroll_x -= (256 + 16);
;
	.dbg	line, "SAUCE/functions/practice_state.h", 170
	lda     _scroll_x+3
	sta     sreg+1
	lda     _scroll_x+2
	sta     sreg
	ldx     _scroll_x+1
	lda     _scroll_x
	jsr     pusheax
	lda     #$00
	lda     #$10
	ldx     #$01
	jsr     tossub0ax
	sta     _scroll_x
	stx     _scroll_x+1
	ldy     sreg
	sty     _scroll_x+2
	ldy     sreg+1
	sty     _scroll_x+3
;
; tmp3 = (lastbgcolortype & 0x3F);
;
	.dbg	line, "SAUCE/functions/practice_state.h", 172
	lda     _lastbgcolortype
	and     #$3F
	sta     _tmp3
;
; pal_col(0, tmp3);
;
	.dbg	line, "SAUCE/functions/practice_state.h", 173
	sta     _PAL_BUF_RAW
	ldy     _tmp3
	lda     (_PAL_PTR),y
	sta     _PAL_BUF
;
; pal_col(0x0D, tmp3);
;
	.dbg	line, "SAUCE/functions/practice_state.h", 174
	lda     _tmp3
	sta     _PAL_BUF_RAW+13
	tay
	lda     (_PAL_PTR),y
	sta     _PAL_BUF+13
;
; tmp3 = oneShadeDarker(tmp3);
;
	.dbg	line, "SAUCE/functions/practice_state.h", 175
	ldy     _tmp3
	lda     palBrightTable3,y
	sta     _tmp3
;
; pal_col(1, tmp3);
;
	.dbg	line, "SAUCE/functions/practice_state.h", 176
	sta     _PAL_BUF_RAW+1
	ldy     _tmp3
	lda     (_PAL_PTR),y
	sta     _PAL_BUF+1
;
; pal_col(9, tmp3);
;
	.dbg	line, "SAUCE/functions/practice_state.h", 177
	lda     _tmp3
	sta     _PAL_BUF_RAW+9
	tay
	lda     (_PAL_PTR),y
	sta     _PAL_BUF+9
;
; pal_col(13, tmp3);
;
	.dbg	line, "SAUCE/functions/practice_state.h", 178
	lda     _tmp3
	sta     _PAL_BUF_RAW+13
	tay
	lda     (_PAL_PTR),y
	sta     _PAL_BUF+13
;
; tmp3 = (lastgcolortype & 0x3F);
;
	.dbg	line, "SAUCE/functions/practice_state.h", 180
	lda     _lastgcolortype
	and     #$3F
	sta     _tmp3
;
; pal_col(6, tmp3);
;
	.dbg	line, "SAUCE/functions/practice_state.h", 181
	sta     _PAL_BUF_RAW+6
	ldy     _tmp3
	lda     (_PAL_PTR),y
	sta     _PAL_BUF+6
;
; pal_col(5, oneShadeDarker(tmp3));
;
	.dbg	line, "SAUCE/functions/practice_state.h", 182
	ldy     _tmp3
	lda     palBrightTable3,y
	sta     _PAL_BUF_RAW+5
	ldy     _tmp3
	lda     palBrightTable3,y
	tay
	lda     (_PAL_PTR),y
	sta     _PAL_BUF+5
;
; tmp3 = (outline_color & 0x3F);
;
	.dbg	line, "SAUCE/functions/practice_state.h", 184
	lda     _outline_color
	and     #$3F
	sta     _tmp3
;
; pal_col(3, tmp3);
;
	.dbg	line, "SAUCE/functions/practice_state.h", 185
	sta     _PAL_BUF_RAW+3
	ldy     _tmp3
	lda     (_PAL_PTR),y
	sta     _PAL_BUF+3
;
; pal_col(7, tmp3);
;
	.dbg	line, "SAUCE/functions/practice_state.h", 186
	lda     _tmp3
	sta     _PAL_BUF_RAW+7
	tay
	lda     (_PAL_PTR),y
	sta     _PAL_BUF+7
;
; pal_set_update();
;
	.dbg	line, "SAUCE/functions/practice_state.h", 188
	inc     _PAL_UPDATE
;
; __A__ = currplayer<<1;
;
	.dbg	line, "SAUCE/functions/practice_state.h", 190
	lda     _currplayer
	asl     a
;
; __asm__("tay");
;
	.dbg	line, "SAUCE/functions/practice_state.h", 191
	tay
;
; quick_ld(currplayer_x, player_x);
;
	.dbg	line, "SAUCE/functions/practice_state.h", 194
	lda     _player_x,y
	sta     _currplayer_x
	lda     _player_x+1,y
	sta     _currplayer_x+1
;
; quick_ld(currplayer_y, player_y);
;
	.dbg	line, "SAUCE/functions/practice_state.h", 195
	lda     _player_y,y
	sta     _currplayer_y
	lda     _player_y+1,y
	sta     _currplayer_y+1
;
; quick_ld(currplayer_vel_x, player_vel_x);
;
	.dbg	line, "SAUCE/functions/practice_state.h", 196
	lda     _player_vel_x,y
	sta     _currplayer_vel_x
	lda     _player_vel_x+1,y
	sta     _currplayer_vel_x+1
;
; quick_ld(currplayer_vel_y, player_vel_y);
;
	.dbg	line, "SAUCE/functions/practice_state.h", 197
	lda     _player_vel_y,y
	sta     _currplayer_vel_y
	lda     _player_vel_y+1,y
	sta     _currplayer_vel_y+1
;
; currplayer_gravity = player_gravity[currplayer];
;
	.dbg	line, "SAUCE/functions/practice_state.h", 200
	ldy     _currplayer
	lda     _player_gravity,y
	sta     _currplayer_gravity
;
; auto_practicepoint_timer = 200;
;
	.dbg	line, "SAUCE/functions/practice_state.h", 201
	ldx     #$00
	lda     #$C8
	sta     _auto_practicepoint_timer
	stx     _auto_practicepoint_timer+1
;
; update_currplayer_table_idx();
;
	.dbg	line, "SAUCE/functions/practice_state.h", 202
	jmp     _update_currplayer_table_idx

	.dbg	line
.endproc

; ---------------------------------------------------------------
; void __near__ music_restore (void)
; ---------------------------------------------------------------

.segment	"XCD_BANK_04"

.proc	_music_restore: near

	.dbg	func, "music_restore", "00", static, "_music_restore"

.segment	"XCD_BANK_04"

;
; famistudio_music_stop();
;
	.dbg	line, "SAUCE/functions/practice_state.h", 209
	jsr     _famistudio_music_stop
;
; memcpy(famistudio_state, practice_famistudio_state + lohi_arr16_load(multStateLookup, tmp2), FAMISTUDIO_STATE_SIZE);
;
	.dbg	line, "SAUCE/functions/practice_state.h", 212
	lda     #>(_famistudio_state)
	sta     _xargs+1
	lda     #<(_famistudio_state)
	sta     _xargs
	ldy     _tmp2
	lda     _multStateLookup_lo,y
	ldx     _multStateLookup_hi,y
	clc
	adc     #<(_practice_famistudio_state)
	sta     sreg
	txa
	adc     #>(_practice_famistudio_state)
	sta     sreg+1
	ldx     #$00
	lda     #$AC
	jsr     __memcpy
;
; memcpy(famistudio_output_buf, practice_famistudio_registers + multBufLookup[tmp2], FAMISTUDIO_OUTPUT_BUF_SIZE);
;
	.dbg	line, "SAUCE/functions/practice_state.h", 215
	lda     #>(_famistudio_output_buf)
	sta     _xargs+1
	lda     #<(_famistudio_output_buf)
	sta     _xargs
	ldy     _tmp2
	lda     _multBufLookup,y
	clc
	adc     #<(_practice_famistudio_registers)
	sta     sreg
	lda     #$00
	adc     #>(_practice_famistudio_registers)
	sta     sreg+1
	ldx     #$00
	lda     #$0B
	jsr     __memcpy
;
; famistudio_sfx_clear_channel(FAMISTUDIO_SFX_CH0);
;
	.dbg	line, "SAUCE/functions/practice_state.h", 218
	ldx     #$00
	txa
	jsr     __famistudio_sfx_clear_channel
;
; POKE(0x4000, famistudio_output_buf[0]);
;
	.dbg	line, "SAUCE/functions/practice_state.h", 224
	lda     _famistudio_output_buf
	sta     $4000
;
; POKE(0x4001, 0x08);
;
	.dbg	line, "SAUCE/functions/practice_state.h", 225
	lda     #$08
	sta     $4001
;
; POKE(0x4002, famistudio_output_buf[1]);
;
	.dbg	line, "SAUCE/functions/practice_state.h", 226
	lda     _famistudio_output_buf+1
	sta     $4002
;
; POKE(0x4003, famistudio_output_buf[2]);
;
	.dbg	line, "SAUCE/functions/practice_state.h", 227
	lda     _famistudio_output_buf+2
	sta     $4003
;
; POKE(0x4004, famistudio_output_buf[3]);
;
	.dbg	line, "SAUCE/functions/practice_state.h", 228
	lda     _famistudio_output_buf+3
	sta     $4004
;
; POKE(0x4005, 0x08);
;
	.dbg	line, "SAUCE/functions/practice_state.h", 229
	lda     #$08
	sta     $4005
;
; POKE(0x4006, famistudio_output_buf[4]);
;
	.dbg	line, "SAUCE/functions/practice_state.h", 230
	lda     _famistudio_output_buf+4
	sta     $4006
;
; POKE(0x4007, famistudio_output_buf[5]);
;
	.dbg	line, "SAUCE/functions/practice_state.h", 231
	lda     _famistudio_output_buf+5
	sta     $4007
;
; POKE(0x4008, famistudio_output_buf[6]);
;
	.dbg	line, "SAUCE/functions/practice_state.h", 232
	lda     _famistudio_output_buf+6
	sta     $4008
;
; POKE(0x400a, famistudio_output_buf[7]);
;
	.dbg	line, "SAUCE/functions/practice_state.h", 233
	lda     _famistudio_output_buf+7
	sta     $400A
;
; POKE(0x400b, famistudio_output_buf[8]);
;
	.dbg	line, "SAUCE/functions/practice_state.h", 234
	lda     _famistudio_output_buf+8
	sta     $400B
;
; POKE(0x400c, famistudio_output_buf[9]);
;
	.dbg	line, "SAUCE/functions/practice_state.h", 235
	lda     _famistudio_output_buf+9
	sta     $400C
;
; POKE(0x400e, famistudio_output_buf[10]);
;
	.dbg	line, "SAUCE/functions/practice_state.h", 236
	lda     _famistudio_output_buf+10
	sta     $400E
;
; } 
;
	.dbg	line, "SAUCE/functions/practice_state.h", 238
	rts

	.dbg	line
.endproc

; ---------------------------------------------------------------
; void __near__ reset_level (void)
; ---------------------------------------------------------------

.segment	"XCD_BANK_06"

.proc	_reset_level: near

	.dbg	func, "reset_level", "00", static, "_reset_level"

.segment	"XCD_BANK_06"

;
; nmi_fs_updates_on();
;
	.dbg	line, "SAUCE/functions/reset_level.h", 56
	inc     _auto_fs_updates
;
; gameState = STATE_GAME; //fix for dying as the end trigger triggers
;
	.dbg	line, "SAUCE/functions/reset_level.h", 59
	lda     #$02
	sta     _gameState
;
; currplayer_was_on_slope_counter = 0;
;
	.dbg	line, "SAUCE/functions/reset_level.h", 62
	lda     #$00
	sta     _currplayer_was_on_slope_counter
;
; was_on_slope_counter[0] = 0;
;
	.dbg	line, "SAUCE/functions/reset_level.h", 63
	sta     _was_on_slope_counter
;
; was_on_slope_counter[1] = 0;
;
	.dbg	line, "SAUCE/functions/reset_level.h", 64
	sta     _was_on_slope_counter+1
;
; jumps = 0;
;
	.dbg	line, "SAUCE/functions/reset_level.h", 65
	sta     _jumps
	sta     _jumps+1
;
; ufo_orbed[0] = 0;
;
	.dbg	line, "SAUCE/functions/reset_level.h", 66
	sta     _ufo_orbed
;
; ufo_orbed[1] = 0;
;
	.dbg	line, "SAUCE/functions/reset_level.h", 67
	sta     _ufo_orbed+1
;
; black_orbed[0] = 0;
;
	.dbg	line, "SAUCE/functions/reset_level.h", 68
	sta     _black_orbed
;
; black_orbed[1] = 0;
;
	.dbg	line, "SAUCE/functions/reset_level.h", 69
	sta     _black_orbed+1
;
; slowmode = 0;
;
	.dbg	line, "SAUCE/functions/reset_level.h", 70
	sta     _slowmode
;
; wrap_mode = 0;
;
	.dbg	line, "SAUCE/functions/reset_level.h", 71
	sta     _wrap_mode
;
; nullscapes_active = 0;
;
	.dbg	line, "SAUCE/functions/reset_level.h", 72
	sta     _nullscapes_active
;
; nullscapes_orb_type = 0;
;
	.dbg	line, "SAUCE/functions/reset_level.h", 73
	sta     _nullscapes_orb_type
;
; force_platformer = 0;
;
	.dbg	line, "SAUCE/functions/reset_level.h", 74
	sta     _force_platformer
;
; player_invis = 0;
;
	.dbg	line, "SAUCE/functions/reset_level.h", 75
	sta     _player_invis
;
; robotjumpframe[0] = 0;
;
	.dbg	line, "SAUCE/functions/reset_level.h", 76
	sta     _robotjumpframe
;
; robotjumpframe[1] = 0;
;
	.dbg	line, "SAUCE/functions/reset_level.h", 77
	sta     _robotjumpframe+1
;
; slope_frames[0] = 0;
;
	.dbg	line, "SAUCE/functions/reset_level.h", 78
	sta     _slope_frames
;
; slope_frames[1] = 0;
;
	.dbg	line, "SAUCE/functions/reset_level.h", 79
	sta     _slope_frames+1
;
; nocamlockforced = 0;
;
	.dbg	line, "SAUCE/functions/reset_level.h", 80
	sta     _nocamlockforced
;
; minicoins = 0;
;
	.dbg	line, "SAUCE/functions/reset_level.h", 81
	sta     _minicoins
;
; kandoframecnt = 0;
;
	.dbg	line, "SAUCE/functions/reset_level.h", 82
	sta     _kandoframecnt
;
; currplayer_slope_frames = 0;
;
	.dbg	line, "SAUCE/functions/reset_level.h", 83
	sta     _currplayer_slope_frames
;
; make_cube_jump_higher = 0;
;
	.dbg	line, "SAUCE/functions/reset_level.h", 84
	sta     _make_cube_jump_higher
;
; player_mini[0] = player_mini[1] = currplayer_mini = 0;
;
	.dbg	line, "SAUCE/functions/reset_level.h", 86
	sta     _currplayer_mini
	sta     _player_mini+1
	sta     _player_mini
;
; player_vel_x[0] = player_vel_x[1] = currplayer_vel_x = 0;
;
	.dbg	line, "SAUCE/functions/reset_level.h", 87
	sta     _currplayer_vel_x
	sta     _currplayer_vel_x+1
	sta     _player_vel_x+2
	sta     _player_vel_x+2+1
	sta     _player_vel_x
	sta     _player_vel_x+1
;
; player_vel_y[0] = player_vel_y[1] = currplayer_vel_y = 0;
;
	.dbg	line, "SAUCE/functions/reset_level.h", 88
	sta     _currplayer_vel_y
	sta     _currplayer_vel_y+1
	sta     _player_vel_y+2
	sta     _player_vel_y+2+1
	sta     _player_vel_y
	sta     _player_vel_y+1
;
; forced_trails = 0;
;
	.dbg	line, "SAUCE/functions/reset_level.h", 89
	sta     _forced_trails
;
; cube_rotate[0] = 0;
;
	.dbg	line, "SAUCE/functions/reset_level.h", 90
	sta     _cube_rotate
	sta     _cube_rotate+1
;
; cube_rotate[1] = 0;
;
	.dbg	line, "SAUCE/functions/reset_level.h", 91
	sta     _cube_rotate+2
	sta     _cube_rotate+2+1
;
; chargepower[0] = 0;
;
	.dbg	line, "SAUCE/functions/reset_level.h", 92
	sta     _chargepower
;
; chargepower[1] = 0;
;
	.dbg	line, "SAUCE/functions/reset_level.h", 93
	sta     _chargepower+1
;
; coins = 0;
;
	.dbg	line, "SAUCE/functions/reset_level.h", 94
	sta     _coins
;
; orbactive = 0;
;
	.dbg	line, "SAUCE/functions/reset_level.h", 95
	sta     _orbactive
;
; coin1_timer = coin2_timer = coin3_timer = 0; 
;
	.dbg	line, "SAUCE/functions/reset_level.h", 96
	sta     _coin3_timer
	sta     _coin2_timer
	sta     _coin1_timer
;
; slope_type[0] = SLOPE_NONE;
;
	.dbg	line, "SAUCE/functions/reset_level.h", 97
	sta     _slope_type
;
; slope_type[1] = SLOPE_NONE;
;
	.dbg	line, "SAUCE/functions/reset_level.h", 98
	sta     _slope_type+1
;
; currplayer_slope_type = SLOPE_NONE;
;
	.dbg	line, "SAUCE/functions/reset_level.h", 99
	sta     _currplayer_slope_type
;
; last_slope_type[0] = SLOPE_NONE;
;
	.dbg	line, "SAUCE/functions/reset_level.h", 100
	sta     _last_slope_type
;
; last_slope_type[1] = SLOPE_NONE;
;
	.dbg	line, "SAUCE/functions/reset_level.h", 101
	sta     _last_slope_type+1
;
; currplayer_last_slope_type = SLOPE_NONE;
;
	.dbg	line, "SAUCE/functions/reset_level.h", 102
	sta     _currplayer_last_slope_type
;
; curr_practice_point = latest_practice_point;
;
	.dbg	line, "SAUCE/functions/reset_level.h", 103
	lda     _latest_practice_point
	sta     _curr_practice_point
;
; seam_scroll_y = (0x2EF - 0x78); // [temp]
;
	.dbg	line, "SAUCE/functions/reset_level.h", 108
	ldx     #$02
	lda     #$77
	sta     _seam_scroll_y
	stx     _seam_scroll_y+1
;
; set_scroll_x(scroll_x);
;
	.dbg	line, "SAUCE/functions/reset_level.h", 109
	lda     _scroll_x
	ldx     _scroll_x+1
	jsr     _set_scroll_x
;
; set_scroll_y(scroll_y);
;
	.dbg	line, "SAUCE/functions/reset_level.h", 110
	lda     _scroll_y
	ldx     _scroll_y+1
	jsr     _set_scroll_y
;
; init_rld(level);
;
	.dbg	line, "SAUCE/functions/reset_level.h", 111
	lda     _level
	jsr     _init_rld
;
; scroll_y_subpx = 0;
;
	.dbg	line, "SAUCE/functions/reset_level.h", 113
	lda     #$00
	sta     _scroll_y_subpx
;
; scroll_y = spawn_scroll_y_pos;
;
	.dbg	line, "SAUCE/functions/reset_level.h", 114
	lda     _spawn_scroll_y_pos+1
	sta     _scroll_y+1
	lda     _spawn_scroll_y_pos
	sta     _scroll_y
;
; if (!(options & platformer) && !force_platformer) {
;
	.dbg	line, "SAUCE/functions/reset_level.h", 116
	lda     _options
	and     #$04
	bne     L0002
	lda     _force_platformer
	bne     L0002
;
; player_x[0] = 0x0000;
;
	.dbg	line, "SAUCE/functions/reset_level.h", 117
	tax
	sta     _player_x
	sta     _player_x+1
;
; player_x[1] = 0x0000;
;
	.dbg	line, "SAUCE/functions/reset_level.h", 118
	sta     _player_x+2
	sta     _player_x+2+1
;
; } else {
;
	.dbg	line, "SAUCE/functions/reset_level.h", 120
	jmp     L0010
;
; player_x[0] = 0x1110;
;
	.dbg	line, "SAUCE/functions/reset_level.h", 121
L0002:	ldx     #$11
	lda     #$10
	sta     _player_x
	stx     _player_x+1
;
; player_x[1] = 0x1110;
;
	.dbg	line, "SAUCE/functions/reset_level.h", 122
	sta     _player_x+2
	stx     _player_x+2+1
;
; currplayer_x = 0x1110;
;
	.dbg	line, "SAUCE/functions/reset_level.h", 123
L0010:	sta     _currplayer_x
	stx     _currplayer_x+1
;
; target_scroll_y = 0x0180;
;
	.dbg	line, "SAUCE/functions/reset_level.h", 126
	ldx     #$01
	lda     #$80
	sta     _target_scroll_y
	stx     _target_scroll_y+1
;
; curr_x_scroll_stop = 0x5000;
;
	.dbg	line, "SAUCE/functions/reset_level.h", 127
	ldx     #$50
	lda     #$00
	sta     _curr_x_scroll_stop
	stx     _curr_x_scroll_stop+1
;
; target_x_scroll_stop = 0x5000;
;
	.dbg	line, "SAUCE/functions/reset_level.h", 128
	sta     _target_x_scroll_stop
	stx     _target_x_scroll_stop+1
;
; discoframe = 0;
;
	.dbg	line, "SAUCE/functions/reset_level.h", 129
	tax
	sta     _discoframe
;
; if (!practice_point_count) {
;
	.dbg	line, "SAUCE/functions/reset_level.h", 130
	lda     _practice_point_count
	bne     L0007
;
; memfill(player_old_posy, 0, sizeof(player_old_posy));
;
	.dbg	line, "SAUCE/functions/reset_level.h", 131
	lda     #>(_player_old_posy)
	sta     _xargs+1
	lda     #<(_player_old_posy)
	sta     _xargs
	lda     #$09
	stx     sreg+1
	sta     sreg
	txa
	jsr     __memfill
;
; memfill(trail_sprites_visible, 0, sizeof(trail_sprites_visible));
;
	.dbg	line, "SAUCE/functions/reset_level.h", 132
	lda     #>(_trail_sprites_visible)
	sta     _xargs+1
	lda     #<(_trail_sprites_visible)
	sta     _xargs
	ldx     #$00
	lda     #$09
	stx     sreg+1
	sta     sreg
	txa
	jsr     __memfill
;
; invincible_counter = 8;
;
	.dbg	line, "SAUCE/functions/reset_level.h", 133
	ldx     #$00
	lda     #$08
	sta     _invincible_counter
;
; update_currplayer_table_idx();
;
	.dbg	line, "SAUCE/functions/reset_level.h", 135
L0007:	jsr     _update_currplayer_table_idx
;
; crossPRGBankJump0(unrle_first_screen); // For bank saving
;
	.dbg	line, "SAUCE/functions/reset_level.h", 137
	lda     #<_unrle_first_screen
	ldx     #>_unrle_first_screen
	ldy     #<.bank(_unrle_first_screen)
	jsr     crossPRGBankJump
	ldx     ptr3+1
;
; if (!no_parallax) mmc3_set_1kb_chr_bank_2(parallax_scroll_x + GET_BANK(PARALLAX_CHR));
;
	.dbg	line, "SAUCE/functions/reset_level.h", 139
	lda     _no_parallax
	bne     L0008
	lda     _parallax_scroll_x
	clc
	adc     #<.bank(_PARALLAX_CHR)
	jsr     _mmc3_set_1kb_chr_bank_2
;
; ppu_on_all();
;
	.dbg	line, "SAUCE/functions/reset_level.h", 140
L0008:	jsr     _ppu_on_all
;
; pal_fade_in();
;
	.dbg	line, "SAUCE/functions/reset_level.h", 141
	ldx     #$04
	lda     #$00
	jsr     __pal_fade_to
;
; if (!practice_point_count) {
;
	.dbg	line, "SAUCE/functions/reset_level.h", 142
	lda     _practice_point_count
	bne     L0009
;
; music_play(song);
;
	.dbg	line, "SAUCE/functions/reset_level.h", 143
	lda     _song
	jsr     _music_play
;
; } else if (practice_music_sync) {
;
	.dbg	line, "SAUCE/functions/reset_level.h", 144
	jmp     L000B
L0009:	lda     _practice_music_sync
	beq     L0011
;
; crossPRGBankJump0(music_restore);
;
	.dbg	line, "SAUCE/functions/reset_level.h", 145
	lda     #<_music_restore
	ldx     #>_music_restore
	ldy     #<.bank(_music_restore)
	jsr     crossPRGBankJump
;
; nmi_fs_updates_off();
;
	.dbg	line, "SAUCE/functions/reset_level.h", 147
L000B:	lda     #$00
L0011:	sta     _auto_fs_updates
;
; }
;
	.dbg	line, "SAUCE/functions/reset_level.h", 148
	rts

	.dbg	line
.endproc

; ---------------------------------------------------------------
; void __near__ minus15y (void)
; ---------------------------------------------------------------

.segment	"XCD_BANK_04"

.proc	_minus15y: near

	.dbg	func, "minus15y", "00", static, "_minus15y"

.segment	"XCD_BANK_04"

;
; high_byte(player_y[0]) -= 15;
;
	.dbg	line, "SAUCE/functions/draw_sprites.h", 265
	lda     _player_y+1
	sec
	sbc     #$0F
	sta     _player_y+1
;
; }
;
	.dbg	line, "SAUCE/functions/draw_sprites.h", 266
	rts

	.dbg	line
.endproc

; ---------------------------------------------------------------
; void __near__ minus15x (void)
; ---------------------------------------------------------------

.segment	"XCD_BANK_04"

.proc	_minus15x: near

	.dbg	func, "minus15x", "00", static, "_minus15x"

.segment	"XCD_BANK_04"

;
; high_byte(player_x[0]) -= 15;
;
	.dbg	line, "SAUCE/functions/draw_sprites.h", 269
	lda     _player_x+1
	sec
	sbc     #$0F
	sta     _player_x+1
;
; }
;
	.dbg	line, "SAUCE/functions/draw_sprites.h", 270
	rts

	.dbg	line
.endproc

; ---------------------------------------------------------------
; void __near__ plus15y (void)
; ---------------------------------------------------------------

.segment	"XCD_BANK_04"

.proc	_plus15y: near

	.dbg	func, "plus15y", "00", static, "_plus15y"

.segment	"XCD_BANK_04"

;
; high_byte(player_y[0]) += 15;
;
	.dbg	line, "SAUCE/functions/draw_sprites.h", 273
	lda     #$0F
	clc
	adc     _player_y+1
	sta     _player_y+1
;
; }
;
	.dbg	line, "SAUCE/functions/draw_sprites.h", 274
	rts

	.dbg	line
.endproc

; ---------------------------------------------------------------
; void __near__ plus15x (void)
; ---------------------------------------------------------------

.segment	"XCD_BANK_04"

.proc	_plus15x: near

	.dbg	func, "plus15x", "00", static, "_plus15x"

.segment	"XCD_BANK_04"

;
; high_byte(player_x[0]) += 15;
;
	.dbg	line, "SAUCE/functions/draw_sprites.h", 277
	lda     #$0F
	clc
	adc     _player_x+1
	sta     _player_x+1
;
; }
;
	.dbg	line, "SAUCE/functions/draw_sprites.h", 278
	rts

	.dbg	line
.endproc

; ---------------------------------------------------------------
; void __near__ trail_loop (void)
; ---------------------------------------------------------------

.segment	"XCD_BANK_04"

.proc	_trail_loop: near

	.dbg	func, "trail_loop", "00", static, "_trail_loop"

.segment	"XCD_BANK_04"

;
; if (kandoframecnt & 1) {
;
	.dbg	line, "SAUCE/functions/draw_sprites.h", 222
	lda     _kandoframecnt
	and     #$01
	beq     L0010
;
; tmp6 = currplayer_vel_x << 1;
;
	.dbg	line, "SAUCE/functions/draw_sprites.h", 223
	lda     _currplayer_vel_x
	asl     a
	sta     _tmp6
	lda     _currplayer_vel_x+1
	rol     a
	sta     _tmp6+1
;
; tmp1 = 1;
;
	.dbg	line, "SAUCE/functions/draw_sprites.h", 224
	lda     #$01
	sta     _tmp1
;
; tmp5 = currplayer_x - tmp6;
;
	.dbg	line, "SAUCE/functions/draw_sprites.h", 225
	lda     _currplayer_x
	sec
	sbc     _tmp6
	sta     _tmp5
	lda     _currplayer_x+1
	sbc     _tmp6+1
	sta     _tmp5+1
;
; if (trail_sprites_visible[tmp1]) { 
;
	.dbg	line, "SAUCE/functions/draw_sprites.h", 227
L0003:	ldy     _tmp1
	lda     _trail_sprites_visible,y
	beq     L0006
;
; Trail_Circ_CHR, Trail_Circ_Attr);
;
	.dbg	line, "SAUCE/functions/draw_sprites.h", 231
	ldy     _tmp1
	lda     _player_old_posy,y
	clc
	adc     #$FC
	sta     ptr1+1
	lda     _tmp5+1
	sta     sreg
	lda     ptr1+1
	sta     sreg+1
	ldx     #$F9
	lda     #$03
	jsr     __oam_spr
;
; tmp5 = tmp5 - tmp6;
;
	.dbg	line, "SAUCE/functions/draw_sprites.h", 234
L0006:	lda     _tmp5
	sec
	sbc     _tmp6
	sta     _tmp5
	lda     _tmp5+1
	sbc     _tmp6+1
	sta     _tmp5+1
;
; tmp1++;
;
	.dbg	line, "SAUCE/functions/draw_sprites.h", 235
	inc     _tmp1
;
; } while (tmp1 < 8);
;
	.dbg	line, "SAUCE/functions/draw_sprites.h", 236
	lda     _tmp1
	cmp     #$08
	bcc     L0003
;
; } else {
;
	.dbg	line, "SAUCE/functions/draw_sprites.h", 237
	rts
;
; tmp1 = 7;
;
	.dbg	line, "SAUCE/functions/draw_sprites.h", 238
L0010:	lda     #$07
	sta     _tmp1
;
; tmp5 = currplayer_vel_x << 4;
;
	.dbg	line, "SAUCE/functions/draw_sprites.h", 240
	lda     _currplayer_vel_x
	ldx     _currplayer_vel_x+1
	jsr     aslax4
	sta     _tmp5
	stx     _tmp5+1
;
; tmp5 = (currplayer_vel_x << 1) + currplayer_x - tmp5;
;
	.dbg	line, "SAUCE/functions/draw_sprites.h", 241
	lda     _currplayer_vel_x
	ldx     _currplayer_vel_x+1
	stx     tmp1
	asl     a
	rol     tmp1
	clc
	adc     _currplayer_x
	pha
	lda     tmp1
	adc     _currplayer_x+1
	tax
	pla
	sec
	sbc     _tmp5
	sta     _tmp5
	txa
	sbc     _tmp5+1
	sta     _tmp5+1
;
; if (trail_sprites_visible[tmp1]) {
;
	.dbg	line, "SAUCE/functions/draw_sprites.h", 243
L000A:	ldy     _tmp1
	lda     _trail_sprites_visible,y
	beq     L000D
;
; Trail_Circ_CHR, Trail_Circ_Attr);
;
	.dbg	line, "SAUCE/functions/draw_sprites.h", 247
	ldy     _tmp1
	lda     _player_old_posy,y
	clc
	adc     #$FC
	sta     ptr1+1
	lda     _tmp5+1
	sta     sreg
	lda     ptr1+1
	sta     sreg+1
	ldx     #$F9
	lda     #$03
	jsr     __oam_spr
;
; tmp5 = tmp5 + tmp6;
;
	.dbg	line, "SAUCE/functions/draw_sprites.h", 250
L000D:	lda     _tmp5
	clc
	adc     _tmp6
	sta     _tmp5
	lda     _tmp5+1
	adc     _tmp6+1
	sta     _tmp5+1
;
; tmp1--;
;
	.dbg	line, "SAUCE/functions/draw_sprites.h", 251
	dec     _tmp1
;
; } while (tmp1 > 0);
;
	.dbg	line, "SAUCE/functions/draw_sprites.h", 252
	bne     L000A
;
; }
;
	.dbg	line, "SAUCE/functions/draw_sprites.h", 254
	rts

	.dbg	line
.endproc

; ---------------------------------------------------------------
; void __near__ draw_sprites (void)
; ---------------------------------------------------------------

.segment	"XCD_BANK_04"

.proc	_draw_sprites: near

	.dbg	func, "draw_sprites", "00", static, "_draw_sprites"

.segment	"XCD_BANK_04"

;
; if (!invisible) {
;
	.dbg	line, "SAUCE/functions/draw_sprites.h", 21
	lda     _invisible
	bne     L000B
;
; if (dual) {
;
	.dbg	line, "SAUCE/functions/draw_sprites.h", 22
	lda     _dual
	beq     L0003
;
; if (kandoframecnt & 1 && !player_invis) { crossPRGBankJump0(drawplayertwo); crossPRGBankJump0(drawplayerone); }
;
	.dbg	line, "SAUCE/functions/draw_sprites.h", 23
	lda     _kandoframecnt
	and     #$01
	beq     L0004
	lda     _player_invis
	bne     L0004
	lda     #<_drawplayertwo
	ldx     #>_drawplayertwo
	ldy     #<.bank(_drawplayertwo)
	jsr     crossPRGBankJump
;
; else if (!player_invis) { crossPRGBankJump0(drawplayerone); crossPRGBankJump0(drawplayertwo); }
;
	.dbg	line, "SAUCE/functions/draw_sprites.h", 24
	jmp     L00A7
L0004:	lda     _player_invis
	bne     L000B
	lda     #<_drawplayerone
	ldx     #>_drawplayerone
	ldy     #<.bank(_drawplayerone)
	jsr     crossPRGBankJump
	lda     #<_drawplayertwo
	ldx     #>_drawplayertwo
	ldy     #<.bank(_drawplayertwo)
;
; else if (!player_invis) crossPRGBankJump0(drawplayerone);
;
	.dbg	line, "SAUCE/functions/draw_sprites.h", 26
	jmp     L00A3
L0003:	lda     _player_invis
	bne     L000B
L00A7:	lda     #<_drawplayerone
	ldx     #>_drawplayerone
	ldy     #<.bank(_drawplayerone)
L00A3:	jsr     crossPRGBankJump
;
; if (invisblocks) return;
;
	.dbg	line, "SAUCE/functions/draw_sprites.h", 32
L000B:	lda     _invisblocks
	beq     L00A8
;
; }
;
	.dbg	line, "SAUCE/functions/draw_sprites.h", 219
	rts
;
; if (practice_point_count) {
;
	.dbg	line, "SAUCE/functions/draw_sprites.h", 34
L00A8:	lda     _practice_point_count
	beq     L0083
;
; tmp3 = practice_player_1_y_hi[curr_practice_point];
;
	.dbg	line, "SAUCE/functions/draw_sprites.h", 35
	ldy     _curr_practice_point
	lda     _practice_player_1_y_hi,y
	sta     _tmp3
;
; if (practice_sprite_x_pos > 10) { 
;
	.dbg	line, "SAUCE/functions/draw_sprites.h", 36
	lda     _practice_sprite_x_pos
	cmp     #$0B
	bcc     L0083
;
; practice_sprite_x_pos -= 3;
;
	.dbg	line, "SAUCE/functions/draw_sprites.h", 37
	sec
	sbc     #$03
	sta     _practice_sprite_x_pos
;
; oam_meta_spr(practice_sprite_x_pos, tmp3 - 1, Practice_Sprites[0]);
;
	.dbg	line, "SAUCE/functions/draw_sprites.h", 38
	lda     _tmp3
	sec
	sbc     #$01
	sta     ptr1+1
	lda     _practice_sprite_x_pos
	sta     sreg
	lda     ptr1+1
	sta     sreg+1
	lda     _Practice_Sprites
	ldx     _Practice_Sprites+1
	jsr     __oam_meta_spr
;
; shuffle_offset = (shuffle_offset + 11) & 0x0F;
;
	.dbg	line, "SAUCE/functions/draw_sprites.h", 46
L0083:	lda     _shuffle_offset
	clc
	adc     #$0B
	and     #$0F
	sta     _shuffle_offset
;
; count = 0;
;
	.dbg	line, "SAUCE/functions/draw_sprites.h", 48
	lda     #$00
	sta     _count
;
; shuffle_offset = (shuffle_offset + 9) & 0x0F; // !!! If max_loaded_sprites changes change this
;
	.dbg	line, "SAUCE/functions/draw_sprites.h", 51
L0084:	lda     _shuffle_offset
	clc
	adc     #$09
	and     #$0F
	sta     _shuffle_offset
;
; index = shuffle_offset;
;
	.dbg	line, "SAUCE/functions/draw_sprites.h", 52
	sta     _index
;
; if ((int8_t)(idx8_load(activesprites_type, index)) < 0) continue;
;
	.dbg	line, "SAUCE/functions/draw_sprites.h", 54
	tay
	lda     _activesprites_type,y
	asl     a
	jcs     L0094
;
; if (!activesprites_active[index]) continue; 
;
	.dbg	line, "SAUCE/functions/draw_sprites.h", 55
	ldy     _index
	lda     _activesprites_active,y
	jeq     L0094
;
; temp_x = activesprites_realx[index];
;
	.dbg	line, "SAUCE/functions/draw_sprites.h", 57
	ldy     _index
	lda     _activesprites_realx,y
	sta     _temp_x
;
; if (temp_x > 0xf0) continue;
;
	.dbg	line, "SAUCE/functions/draw_sprites.h", 58
	cmp     #$F1
	jcs     L0094
;
; if (temp_x == 0) temp_x = 1;
;
	.dbg	line, "SAUCE/functions/draw_sprites.h", 59
	lda     _temp_x
	bne     L001B
	lda     #$01
	sta     _temp_x
;
; temp_y = activesprites_realy[index];
;
	.dbg	line, "SAUCE/functions/draw_sprites.h", 61
L001B:	ldy     _index
	lda     _activesprites_realy,y
	sta     _temp_y
;
; if (temp_y > 0xf0) continue;
;
	.dbg	line, "SAUCE/functions/draw_sprites.h", 62
	cmp     #$F1
	jcs     L0094
;
; if (nullscapes_active) {
;
	.dbg	line, "SAUCE/functions/draw_sprites.h", 72
	lda     _nullscapes_active
	jeq     L0087
;
; if (activesprites_type[index] == YELLOW_ORB ||
;
	.dbg	line, "SAUCE/functions/draw_sprites.h", 73
	ldy     _index
	lda     _activesprites_type,y
	cmp     #$0B
	beq     L0085
;
; activesprites_type[index] == RED_ORB ||
;
	.dbg	line, "SAUCE/functions/draw_sprites.h", 74
	ldy     _index
	lda     _activesprites_type,y
	cmp     #$28
	beq     L0085
;
; activesprites_type[index] == BLACK_ORB ||
;
	.dbg	line, "SAUCE/functions/draw_sprites.h", 75
	ldy     _index
	lda     _activesprites_type,y
	cmp     #$44
	beq     L0085
;
; activesprites_type[index] == BLUE_ORB_MULTI ||
;
	.dbg	line, "SAUCE/functions/draw_sprites.h", 76
	ldy     _index
	lda     _activesprites_type,y
	cmp     #$7B
	beq     L0085
;
; activesprites_type[index] == PINK_ORB ||
;
	.dbg	line, "SAUCE/functions/draw_sprites.h", 77
	ldy     _index
	lda     _activesprites_type,y
	cmp     #$06
	beq     L0085
;
; activesprites_type[index] == GREEN_ORB ||
;
	.dbg	line, "SAUCE/functions/draw_sprites.h", 78
	ldy     _index
	lda     _activesprites_type,y
	cmp     #$27
	beq     L0085
;
; activesprites_type[index] == GREEN_ORB_MULTI ||
;
	.dbg	line, "SAUCE/functions/draw_sprites.h", 79
	ldy     _index
	lda     _activesprites_type,y
	cmp     #$7C
	beq     L0085
;
; activesprites_type[index] == BLUE_ORB) {
;
	.dbg	line, "SAUCE/functions/draw_sprites.h", 80
	ldy     _index
	lda     _activesprites_type,y
	cmp     #$05
	beq     L0085
	lda     #$00
	jmp     L0087
;
; switch (nullscapes_orb_type) {
;
	.dbg	line, "SAUCE/functions/draw_sprites.h", 82
L0085:	lda     _nullscapes_orb_type
;
; };
;
	.dbg	line, "SAUCE/functions/draw_sprites.h", 101
	beq     L002C
	cmp     #$01
	beq     L002E
	cmp     #$02
	beq     L0030
	cmp     #$03
	beq     L0032
	cmp     #$04
	beq     L0034
	cmp     #$05
	beq     L0036
	jmp     L002B
;
; activesprites_type[index] = RED_ORB;
;
	.dbg	line, "SAUCE/functions/draw_sprites.h", 84
L002C:	ldy     _index
	lda     #$28
;
; break;
;
	.dbg	line, "SAUCE/functions/draw_sprites.h", 85
	jmp     L007C
;
; activesprites_type[index] = BLUE_ORB_MULTI;
;
	.dbg	line, "SAUCE/functions/draw_sprites.h", 87
L002E:	ldy     _index
	lda     #$7B
;
; break;
;
	.dbg	line, "SAUCE/functions/draw_sprites.h", 88
	jmp     L007C
;
; activesprites_type[index] = YELLOW_ORB;
;
	.dbg	line, "SAUCE/functions/draw_sprites.h", 90
L0030:	ldy     _index
	lda     #$0B
;
; break;
;
	.dbg	line, "SAUCE/functions/draw_sprites.h", 91
	jmp     L007C
;
; activesprites_type[index] = BLACK_ORB;
;
	.dbg	line, "SAUCE/functions/draw_sprites.h", 93
L0032:	ldy     _index
	lda     #$44
;
; break;
;
	.dbg	line, "SAUCE/functions/draw_sprites.h", 94
	jmp     L007C
;
; activesprites_type[index] = GREEN_ORB_MULTI;
;
	.dbg	line, "SAUCE/functions/draw_sprites.h", 96
L0034:	ldy     _index
	lda     #$7C
;
; break;
;
	.dbg	line, "SAUCE/functions/draw_sprites.h", 97
	jmp     L007C
;
; activesprites_type[index] = PINK_ORB;
;
	.dbg	line, "SAUCE/functions/draw_sprites.h", 99
L0036:	ldy     _index
	lda     #$06
L007C:	sta     _activesprites_type,y
;
; activesprites_activated[index] = 0;
;
	.dbg	line, "SAUCE/functions/draw_sprites.h", 102
L002B:	ldy     _index
	lda     #$00
	sta     _activesprites_activated,y
;
; needs_reload = 0;
;
	.dbg	line, "SAUCE/functions/draw_sprites.h", 108
L0087:	sta     _tmp4
;
; spr_type = activesprites_type[index];
;
	.dbg	line, "SAUCE/functions/draw_sprites.h", 109
	ldy     _index
	lda     _activesprites_type,y
	sta     _tmp3
;
; animation_ptr = (unsigned char *)animation_frame_list[spr_type & 0x7F];
;
	.dbg	line, "SAUCE/functions/draw_sprites.h", 110
	asl     a
	tay
	lda     _animation_frame_list+1,y
	sta     _tmpptr1+1
	lda     _animation_frame_list,y
	sta     _tmpptr1
;
; if (high_byte(animation_ptr)) {
;
	.dbg	line, "SAUCE/functions/draw_sprites.h", 112
	lda     _tmpptr1+1
	jeq     L0093
;
; animation_frame_count = idx8_dec(activesprites_anim_frame_count, index);
;
	.dbg	line, "SAUCE/functions/draw_sprites.h", 115
	ldx     _index
	dec     _activesprites_anim_frame_count,x
	lda     _activesprites_anim_frame_count,x
	sta     _tmp1
;
; if ((int8_t)animation_frame_count < 0) {
;
	.dbg	line, "SAUCE/functions/draw_sprites.h", 116
	asl     a
	jcc     L003B
;
; if ((activesprites_type[index] == SKULL_ORB && activesprites_animated[index] == 1) || activesprites_type[index] != SKULL_ORB) {
;
	.dbg	line, "SAUCE/functions/draw_sprites.h", 118
	ldy     _index
	lda     _activesprites_type,y
	cmp     #$79
	bne     L0079
	ldy     _index
	lda     _activesprites_animated,y
	cmp     #$01
	beq     L008D
L0079:	ldy     _index
	lda     _activesprites_type,y
	cmp     #$79
	beq     L003D
;
; animation_frame = idx8_inc(activesprites_anim_frame, index);
;
	.dbg	line, "SAUCE/functions/draw_sprites.h", 119
L008D:	ldx     _index
	inc     _activesprites_anim_frame,x
	lda     _activesprites_anim_frame,x
;
; else if (activesprites_type[index] == SKULL_ORB && activesprites_animated[index] == 2) { if (activesprites_anim_frame[index]) { animation_frame = idx8_dec(activesprites_anim_frame, index); } else { animation_frame = activesprites_anim_frame[index]; } }
;
	.dbg	line, "SAUCE/functions/draw_sprites.h", 122
	jmp     L007D
L003D:	ldy     _index
	lda     _activesprites_type,y
	cmp     #$79
	bne     L0047
	ldy     _index
	lda     _activesprites_animated,y
	cmp     #$02
	bne     L0047
	ldy     _index
	lda     _activesprites_anim_frame,y
	beq     L0047
	ldx     _index
	dec     _activesprites_anim_frame,x
	lda     _activesprites_anim_frame,x
	jmp     L007D
;
; else { animation_frame = activesprites_anim_frame[index]; }
;
	.dbg	line, "SAUCE/functions/draw_sprites.h", 124
L0047:	ldy     _index
	lda     _activesprites_anim_frame,y
L007D:	sta     _tmp2
;
; if (animation_frame >= animation_frame_length[spr_type]) {
;
	.dbg	line, "SAUCE/functions/draw_sprites.h", 127
	ldx     #$00
	lda     _tmp2
	ldy     _tmp3
	cmp     _animation_frame_length,y
	bcc     L0091
;
; if (activesprites_type[index] != SKULL_ORB) {
;
	.dbg	line, "SAUCE/functions/draw_sprites.h", 129
	ldy     _index
	lda     _activesprites_type,y
	cmp     #$79
	beq     L0090
;
; activesprites_anim_frame[index] = 0;
;
	.dbg	line, "SAUCE/functions/draw_sprites.h", 130
	ldy     _index
	txa
	sta     _activesprites_anim_frame,y
;
; animation_frame = 0;
;
	.dbg	line, "SAUCE/functions/draw_sprites.h", 131
	sta     _tmp2
;
; } else {
;
	.dbg	line, "SAUCE/functions/draw_sprites.h", 132
	jmp     L0091
;
; idx8_dec(activesprites_anim_frame, index);
;
	.dbg	line, "SAUCE/functions/draw_sprites.h", 133
L0090:	ldx     _index
	dec     _activesprites_anim_frame,x
;
; animation_frame--;
;
	.dbg	line, "SAUCE/functions/draw_sprites.h", 134
	dec     _tmp2
;
; needs_reload = 1;
;
	.dbg	line, "SAUCE/functions/draw_sprites.h", 138
	ldx     #$00
L0091:	lda     #$01
	sta     _tmp4
;
; } else {
;
	.dbg	line, "SAUCE/functions/draw_sprites.h", 139
	jmp     L0092
;
; animation_frame = activesprites_anim_frame[index];
;
	.dbg	line, "SAUCE/functions/draw_sprites.h", 140
L003B:	ldy     _index
	lda     _activesprites_anim_frame,y
	sta     _tmp2
;
; __AX__ = animation_frame << 1;
;
	.dbg	line, "SAUCE/functions/draw_sprites.h", 146
	ldx     #$00
L0092:	lda     _tmp2
	asl     a
	bcc     L007E
	inx
;
; __AX__ += animation_frame;
;
	.dbg	line, "SAUCE/functions/draw_sprites.h", 147
	clc
L007E:	adc     _tmp2
	bcc     L007F
	inx
;
; animation_ptr += __AX__;
;
	.dbg	line, "SAUCE/functions/draw_sprites.h", 148
	clc
L007F:	adc     _tmpptr1
	sta     _tmpptr1
	txa
	adc     _tmpptr1+1
	sta     _tmpptr1+1
;
; __asm__ ("ldy #2 \n lda (%v), y \n sta %v+1 \n dey \n lda (%v), y \n sta %v", animation_ptr, animation_data_ptr, animation_ptr, animation_data_ptr);
;
	.dbg	line, "SAUCE/functions/draw_sprites.h", 150
	ldy     #2
	lda     (_tmpptr1),y
	sta     _tmpptr2+1
	dey
	lda     (_tmpptr1),y
	sta     _tmpptr2
;
; if (needs_reload) {
;
	.dbg	line, "SAUCE/functions/draw_sprites.h", 152
	lda     _tmp4
	beq     L005C
;
; __A__ = *(uint8_t*)animation_ptr;
;
	.dbg	line, "SAUCE/functions/draw_sprites.h", 153
	dey
	lda     (_tmpptr1),y
;
; __asm__ ("ldy %v \n sta %v, y", index, activesprites_anim_frame_count);
;
	.dbg	line, "SAUCE/functions/draw_sprites.h", 154
	ldy     _index
	sta     _activesprites_anim_frame_count,y
;
; } else {
;
	.dbg	line, "SAUCE/functions/draw_sprites.h", 158
	jmp     L005C
;
; animation_data_ptr = (unsigned char*)Metasprites[spr_type & 0x7F];
;
	.dbg	line, "SAUCE/functions/draw_sprites.h", 159
L0093:	lda     _tmp3
	asl     a
	tay
	lda     _Metasprites+1,y
	sta     _tmpptr2+1
	lda     _Metasprites,y
	sta     _tmpptr2
;
; if (!disco_sprites) oam_meta_spr(temp_x, temp_y, animation_data_ptr);
;
	.dbg	line, "SAUCE/functions/draw_sprites.h", 161
L005C:	lda     _disco_sprites
	bne     L005D
	lda     _temp_x
	sta     sreg
	lda     _temp_y
	sta     sreg+1
	lda     _tmpptr2
	ldx     _tmpptr2+1
	jsr     __oam_meta_spr
;
; else oam_meta_spr_disco(temp_x, temp_y, animation_data_ptr);
;
	.dbg	line, "SAUCE/functions/draw_sprites.h", 162
	jmp     L0094
L005D:	lda     _temp_x
	sta     sreg
	lda     _temp_y
	sta     sreg+1
	lda     _tmpptr2
	ldx     _tmpptr2+1
	jsr     __oam_meta_spr_disco
;
; } while (++count < max_loaded_sprites);
;
	.dbg	line, "SAUCE/functions/draw_sprites.h", 164
L0094:	inc     _count
	lda     _count
	cmp     #$10
	jcc     L0084
;
; if (!dual) {
;
	.dbg	line, "SAUCE/functions/draw_sprites.h", 165
	lda     _dual
	beq     L00A9
;
; }
;
	.dbg	line, "SAUCE/functions/draw_sprites.h", 219
	rts
;
; if (kandoframecnt & 1) {
;
	.dbg	line, "SAUCE/functions/draw_sprites.h", 166
L00A9:	lda     _kandoframecnt
	and     #$01
	beq     L0060
;
; tmp2 = sizeof(trail_sprites_visible) - 1;
;
	.dbg	line, "SAUCE/functions/draw_sprites.h", 168
	lda     #$08
	sta     _tmp2
;
; __A__ = idx8_load(trail_sprites_visible, tmp2 - 1); __asm__("pha"); 
;
	.dbg	line, "SAUCE/functions/draw_sprites.h", 170
L0095:	lda     _tmp2
	sec
	sbc     #$01
	tay
	lda     _trail_sprites_visible,y
;
; idx8_store(trail_sprites_visible, tmp2, (__asm__("pla"), __A__)); // TODO: idx8_X or idxY_load_store macros, this is insane 
;
	.dbg	line, "SAUCE/functions/draw_sprites.h", 171
	ldy     _tmp2
	sta     _trail_sprites_visible,y
;
; } while (--tmp2 != 0);
;
	.dbg	line, "SAUCE/functions/draw_sprites.h", 172
	dec     _tmp2
	bne     L0095
;
; trail_sprites_visible[0] = (trails == 1 || orbactive);
;
	.dbg	line, "SAUCE/functions/draw_sprites.h", 174
	lda     _trails
	cmp     #$01
	beq     L0097
	lda     _orbactive
	beq     L0097
	lda     #$01
L0097:	sta     _trail_sprites_visible
;
; if (viseffects) {
;
	.dbg	line, "SAUCE/functions/draw_sprites.h", 176
L0060:	lda     _viseffects
	bne     L00AA
;
; }
;
	.dbg	line, "SAUCE/functions/draw_sprites.h", 219
	rts
;
; if ((trails == 1) || (trails != 2 && forced_trails != 2 && !invisible)) {
;
	.dbg	line, "SAUCE/functions/draw_sprites.h", 177
L00AA:	ldx     #$00
	lda     _trails
	cmp     #$01
	beq     L009D
	cmp     #$02
	beq     L009E
	lda     _forced_trails
	cmp     #$02
	beq     L009E
	lda     _invisible
	bne     L009E
	lda     #$01
;
; trail_loop();
;
	.dbg	line, "SAUCE/functions/draw_sprites.h", 178
L009D:	jmp     _trail_loop
;
; else if ((forced_trails == 2 || trails == 2) && !(kandoframecnt & 1)) {
;
	.dbg	line, "SAUCE/functions/draw_sprites.h", 180
L009E:	lda     _forced_trails
	cmp     #$02
	beq     L009F
	lda     _trails
	cmp     #$02
	bne     L00A1
L009F:	lda     _kandoframecnt
	and     #$01
	beq     L00A2
L00A1:	rts
;
; skipProcessingCubeRotationLogic++;
;
	.dbg	line, "SAUCE/functions/draw_sprites.h", 181
L00A2:	inc     _skipProcessingCubeRotationLogic
;
; tmp6 = currplayer_vel_x << 1;
;
	.dbg	line, "SAUCE/functions/draw_sprites.h", 182
	lda     _currplayer_vel_x
	asl     a
	sta     _tmp6
	lda     _currplayer_vel_x+1
	rol     a
	sta     _tmp6+1
;
; tmpA = player_x[0];
;
	.dbg	line, "SAUCE/functions/draw_sprites.h", 184
	lda     _player_x+1
	sta     _tmpA+1
	lda     _player_x
	sta     _tmpA
;
; tmpB = player_y[0];
;
	.dbg	line, "SAUCE/functions/draw_sprites.h", 185
	lda     _player_y+1
	sta     _tmpB+1
	lda     _player_y
	sta     _tmpB
;
; high_byte(player_x[0]) -= high_byte(tmp6);
;
	.dbg	line, "SAUCE/functions/draw_sprites.h", 187
	lda     _tmp6+1
	eor     #$FF
	sec
	adc     _player_x+1
	sta     _player_x+1
;
; high_byte(player_y[0]) = player_old_posy[0];
;
	.dbg	line, "SAUCE/functions/draw_sprites.h", 188
	lda     _player_old_posy
	sta     _player_y+1
;
; crossPRGBankJump0(drawplayerone);
;
	.dbg	line, "SAUCE/functions/draw_sprites.h", 190
	lda     #<_drawplayerone
	ldx     #>_drawplayerone
	ldy     #<.bank(_drawplayerone)
	jsr     crossPRGBankJump
;
; high_byte(player_x[0]) -= high_byte(tmp6);
;
	.dbg	line, "SAUCE/functions/draw_sprites.h", 192
	lda     _tmp6+1
	eor     #$FF
	sec
	adc     _player_x+1
	sta     _player_x+1
;
; high_byte(player_y[0]) = player_old_posy[1];
;
	.dbg	line, "SAUCE/functions/draw_sprites.h", 193
	lda     _player_old_posy+1
	sta     _player_y+1
;
; crossPRGBankJump0(drawplayerone);
;
	.dbg	line, "SAUCE/functions/draw_sprites.h", 195
	lda     #<_drawplayerone
	ldx     #>_drawplayerone
	ldy     #<.bank(_drawplayerone)
	jsr     crossPRGBankJump
;
; high_byte(player_x[0]) -= high_byte(tmp6);
;
	.dbg	line, "SAUCE/functions/draw_sprites.h", 197
	lda     _tmp6+1
	eor     #$FF
	sec
	adc     _player_x+1
	sta     _player_x+1
;
; high_byte(player_y[0]) = player_old_posy[2];
;
	.dbg	line, "SAUCE/functions/draw_sprites.h", 198
	lda     _player_old_posy+2
	sta     _player_y+1
;
; if (gamemode == GAMEMODE_CUBE) {
;
	.dbg	line, "SAUCE/functions/draw_sprites.h", 200
	lda     _gamemode
	bne     L0075
;
; tmp9 = currplayer_mini;
;
	.dbg	line, "SAUCE/functions/draw_sprites.h", 201
	lda     _currplayer_mini
	sta     _tmp9
;
; currplayer_mini = 1;
;
	.dbg	line, "SAUCE/functions/draw_sprites.h", 202
	lda     #$01
	sta     _currplayer_mini
;
; crossPRGBankJump0(drawplayerone);
;
	.dbg	line, "SAUCE/functions/draw_sprites.h", 205
L0075:	lda     #<_drawplayerone
	ldx     #>_drawplayerone
	ldy     #<.bank(_drawplayerone)
	jsr     crossPRGBankJump
;
; if (gamemode == GAMEMODE_CUBE) {
;
	.dbg	line, "SAUCE/functions/draw_sprites.h", 207
	lda     _gamemode
	bne     L0076
;
; currplayer_mini = tmp9;
;
	.dbg	line, "SAUCE/functions/draw_sprites.h", 208
	lda     _tmp9
	sta     _currplayer_mini
;
; player_x[0] = tmpA;
;
	.dbg	line, "SAUCE/functions/draw_sprites.h", 211
L0076:	lda     _tmpA+1
	sta     _player_x+1
	lda     _tmpA
	sta     _player_x
;
; player_y[0] = tmpB;
;
	.dbg	line, "SAUCE/functions/draw_sprites.h", 212
	lda     _tmpB+1
	sta     _player_y+1
	lda     _tmpB
	sta     _player_y
;
; skipProcessingCubeRotationLogic--;  
;
	.dbg	line, "SAUCE/functions/draw_sprites.h", 213
	dec     _skipProcessingCubeRotationLogic
;
; }
;
	.dbg	line, "SAUCE/functions/draw_sprites.h", 219
	rts

	.dbg	line
.endproc

; ---------------------------------------------------------------
; void __near__ put_progress_bar_sprite (void)
; ---------------------------------------------------------------

.segment	"XCD_BANK_04"

.proc	_put_progress_bar_sprite: near

	.dbg	func, "put_progress_bar_sprite", "00", static, "_put_progress_bar_sprite"

.segment	"XCD_BANK_04"

;
; oam_meta_spr(tmp1, tmp2, (Number_Sprites+22)[tmp3 & 0x7F]); // = Number_Sprites[22+tmp3]
;
	.dbg	line, "SAUCE/functions/draw_sprites.h", 257
	lda     _tmp1
	sta     sreg
	lda     _tmp2
	sta     sreg+1
	lda     _tmp3
	asl     a
	tay
	lda     _Number_Sprites+44,y
	ldx     _Number_Sprites+44+1,y
	jmp     __oam_meta_spr

	.dbg	line
.endproc

; ---------------------------------------------------------------
; void __near__ put_number (void)
; ---------------------------------------------------------------

.segment	"XCD_BANK_04"

.proc	_put_number: near

	.dbg	func, "put_number", "00", static, "_put_number"

.segment	"XCD_BANK_04"

;
; oam_meta_spr(tmp1, tmp2, Number_Sprites[(high_byte(tmp6) + tmp3) & 0x7F]);
;
	.dbg	line, "SAUCE/functions/draw_sprites.h", 261
	lda     _tmp1
	sta     sreg
	lda     _tmp2
	sta     sreg+1
	lda     _tmp6+1
	clc
	adc     _tmp3
	asl     a
	tay
	lda     _Number_Sprites,y
	ldx     _Number_Sprites+1,y
	jmp     __oam_meta_spr

	.dbg	line
.endproc

; ---------------------------------------------------------------
; void __near__ setdefaultoptions (void)
; ---------------------------------------------------------------

.segment	"CODE"

.proc	_setdefaultoptions: near

	.dbg	func, "setdefaultoptions", "00", static, "_setdefaultoptions"

.segment	"CODE"

;
; POKE(0xA001, 0x80);
;
	.dbg	line, "SAUCE/famidash.c", 184
	lda     #$80
	sta     $A001
;
; color_emphasis(COL_EMP_DARK);
;
	.dbg	line, "SAUCE/famidash.c", 187
	lda     #$E0
	jsr     _color_emphasis
;
; mmc3_disable_irq();
;
	.dbg	line, "SAUCE/famidash.c", 188
	jsr     _mmc3_disable_irq
;
; memfill((uint8_t *)0x6000, 0, 0x1FFE);
;
	.dbg	line, "SAUCE/famidash.c", 190
	ldx     #$60
	lda     #$00
	sta     _xargs
	stx     _xargs+1
	ldx     #$1F
	lda     #$FE
	stx     sreg+1
	sta     sreg
	ldx     #$00
	txa
	jsr     __memfill
;
; edit_irq_table(0xff,0);
;
	.dbg	line, "SAUCE/famidash.c", 191
	ldx     #$00
	lda     #$FF
	jsr     __edit_irq_table
;
; color_emphasis(COL_EMP_NORMAL);
;
	.dbg	line, "SAUCE/famidash.c", 194
	lda     #$00
	jsr     _color_emphasis
;
; SRAM_VALIDATE[0] = 0x13;
;
	.dbg	line, "SAUCE/famidash.c", 198
	lda     #$13
	sta     _SRAM_VALIDATE
;
; SRAM_VALIDATE[1] = 0x37;
;
	.dbg	line, "SAUCE/famidash.c", 199
	lda     #$37
	sta     _SRAM_VALIDATE+1
;
; SRAM_VALIDATE[2] = FLAG_SAVE_VER;
;
	.dbg	line, "SAUCE/famidash.c", 200
	lda     #$24
	sta     _SRAM_VALIDATE+2
;
; forced_credits = 1;
;
	.dbg	line, "SAUCE/famidash.c", 201
	lda     #$01
	sta     _forced_credits
;
; twoplayer = 0;
;
	.dbg	line, "SAUCE/famidash.c", 204
	lda     #$00
	sta     _twoplayer
;
; options = 0; 
;
	.dbg	line, "SAUCE/famidash.c", 210
	sta     _options
;
; tmp2 = 0;
;
	.dbg	line, "SAUCE/famidash.c", 211
	sta     _tmp2
;
; coin1_obtained[tmp2] = 0;
;
	.dbg	line, "SAUCE/famidash.c", 213
L0002:	ldy     _tmp2
	lda     #$00
	sta     _coin1_obtained,y
;
; coin2_obtained[tmp2] = 0;
;
	.dbg	line, "SAUCE/famidash.c", 214
	ldy     _tmp2
	sta     _coin2_obtained,y
;
; coin3_obtained[tmp2] = 0;
;
	.dbg	line, "SAUCE/famidash.c", 215
	sta     _coin3_obtained,y
;
; LEVELCOMPLETE[tmp2] = 0;
;
	.dbg	line, "SAUCE/famidash.c", 216
	ldy     _tmp2
	sta     _LEVELCOMPLETE,y
;
; level_completeness_normal[tmp2] = 0;
;
	.dbg	line, "SAUCE/famidash.c", 217
	sta     _level_completeness_normal,y
;
; level_completeness_practice[tmp2] = 0;
;
	.dbg	line, "SAUCE/famidash.c", 218
	ldy     _tmp2
	sta     _level_completeness_normal+128,y
;
; } while (++tmp2 < (MAX_LEVEL_COMPLETE));
;
	.dbg	line, "SAUCE/famidash.c", 219
	inc     _tmp2
	lda     _tmp2
	cmp     #$80
	bcc     L0002
;
; tmp2 = 0;
;
	.dbg	line, "SAUCE/famidash.c", 220
	lda     #$00
	sta     _tmp2
;
; achievements[tmp2] = 0;
;
	.dbg	line, "SAUCE/famidash.c", 222
L000B:	ldy     _tmp2
	lda     #$00
	sta     _achievements,y
;
; } while (++tmp2 < (sizeof(achievements)));
;
	.dbg	line, "SAUCE/famidash.c", 223
	inc     _tmp2
	lda     _tmp2
	cmp     #$20
	bcc     L000B
;
; invisible = 0;
;
	.dbg	line, "SAUCE/famidash.c", 224
	lda     #$00
	sta     _invisible
;
; color1 = 0x2A;
;
	.dbg	line, "SAUCE/famidash.c", 225
	lda     #$2A
	sta     _icon_colors
;
; color2 = 0X2C;  
;
	.dbg	line, "SAUCE/famidash.c", 226
	lda     #$2C
	sta     _icon_colors+1
;
; color3 = 0x0F;
;
	.dbg	line, "SAUCE/famidash.c", 227
	lda     #$0F
	sta     _icon_colors+2
;
; discomode = 0;
;
	.dbg	line, "SAUCE/famidash.c", 228
	lda     #$00
	sta     _discomode
;
; icon = 0;
;
	.dbg	line, "SAUCE/famidash.c", 229
	sta     _icon
;
; trails = 0;
;
	.dbg	line, "SAUCE/famidash.c", 230
	sta     _trails
;
; retro_mode = 0;
;
	.dbg	line, "SAUCE/famidash.c", 231
	sta     _retro_mode
;
; gameboy_mode = 0;
;
	.dbg	line, "SAUCE/famidash.c", 233
	sta     _gameboy_mode
;
; viseffects = 1;
;
	.dbg	line, "SAUCE/famidash.c", 234
	lda     #$01
	sta     _viseffects
;
; invisblocks = 0;
;
	.dbg	line, "SAUCE/famidash.c", 235
	lda     #$00
	sta     _invisblocks
;
; cam_seesaw = 0;
;
	.dbg	line, "SAUCE/famidash.c", 236
	sta     _cam_seesaw
;
; menu_music = 0;
;
	.dbg	line, "SAUCE/famidash.c", 237
	sta     _menu_music
;
; auto_practicepoints = 1;
;
	.dbg	line, "SAUCE/famidash.c", 239
	lda     #$01
	sta     _auto_practicepoints
;
; practice_music_sync = 0;
;
	.dbg	line, "SAUCE/famidash.c", 240
	lda     #$00
	sta     _practice_music_sync
;
; }
;
	.dbg	line, "SAUCE/famidash.c", 243
	rts

	.dbg	line
.endproc

; ---------------------------------------------------------------
; void __near__ increase_parallax_scroll_column (void)
; ---------------------------------------------------------------

.segment	"CODE"

.proc	_increase_parallax_scroll_column: near

	.dbg	func, "increase_parallax_scroll_column", "00", static, "_increase_parallax_scroll_column"

.segment	"CODE"

;
; parallax_scroll_column++;
;
	.dbg	line, "SAUCE/functions/level_loading.h", 50
	inc     _parallax_scroll_column
;
; if (parallax_scroll_column >= 6) {
;
	.dbg	line, "SAUCE/functions/level_loading.h", 51
	lda     _parallax_scroll_column
	cmp     #$06
	bcc     L0003
;
; parallax_scroll_column = 0;
;
	.dbg	line, "SAUCE/functions/level_loading.h", 52
	lda     #$00
	sta     _parallax_scroll_column
;
; parallax_scroll_column_start += 3;
;
	.dbg	line, "SAUCE/functions/level_loading.h", 53
	lda     #$03
	clc
	adc     _parallax_scroll_column_start
	sta     _parallax_scroll_column_start
;
; if (parallax_scroll_column_start >= 9) {
;
	.dbg	line, "SAUCE/functions/level_loading.h", 54
	cmp     #$09
	bcc     L0003
;
; parallax_scroll_column_start = 0;
;
	.dbg	line, "SAUCE/functions/level_loading.h", 55
	lda     #$00
	sta     _parallax_scroll_column_start
;
; }
;
	.dbg	line, "SAUCE/functions/level_loading.h", 58
L0003:	rts

	.dbg	line
.endproc

; ---------------------------------------------------------------
; void __near__ unrle_first_screen (void)
; ---------------------------------------------------------------

.segment	"CODE"

.proc	_unrle_first_screen: near

	.dbg	func, "unrle_first_screen", "00", static, "_unrle_first_screen"
	.dbg	sym, "ii", "00", register, "regbank", 4

.segment	"CODE"

;
; register uint16_t ii;
;
	.dbg	line, "SAUCE/functions/level_loading.h", 64
	lda     regbank+4
	ldx     regbank+5
	jsr     pushax
;
; mmc3_set_prg_bank_1(GET_BANK(increment_attempt_count));
;
	.dbg	line, "SAUCE/functions/level_loading.h", 65
	lda     #<.bank(_increment_attempt_count)
	jsr     _mmc3_set_prg_bank_1
;
; increment_attempt_count();
;
	.dbg	line, "SAUCE/functions/level_loading.h", 67
	jsr     _increment_attempt_count
;
; cube_data[0] = 0;
;
	.dbg	line, "SAUCE/functions/level_loading.h", 74
	lda     #$00
	sta     _cube_data
;
; cube_data[1] = 0;
;
	.dbg	line, "SAUCE/functions/level_loading.h", 75
	sta     _cube_data+1
;
; coins = 0;
;
	.dbg	line, "SAUCE/functions/level_loading.h", 76
	sta     _coins
;
; scroll_x = 0;
;
	.dbg	line, "SAUCE/functions/level_loading.h", 77
	sta     _scroll_x+3
	sta     _scroll_x+2
	sta     _scroll_x+1
	sta     _scroll_x
;
; drawing_frame = 0;
;
	.dbg	line, "SAUCE/functions/level_loading.h", 78
	sta     _drawing_frame
;
; gravity_mod = 0;
;
	.dbg	line, "SAUCE/functions/level_loading.h", 79
	sta     _gravity_mod
;
; disco_sprites = 0;
;
	.dbg	line, "SAUCE/functions/level_loading.h", 80
	sta     _disco_sprites
;
; outline_color = 0x30; 
;
	.dbg	line, "SAUCE/functions/level_loading.h", 82
	lda     #$30
	sta     _outline_color
;
; dual = twoplayer ? 1 : 0;
;
	.dbg	line, "SAUCE/functions/level_loading.h", 83
	lda     _twoplayer
	beq     L001F
	lda     #$01
L001F:	sta     _dual
;
; player_gravity[0] = GRAVITY_DOWN;
;
	.dbg	line, "SAUCE/functions/level_loading.h", 84
	lda     #$00
	sta     _player_gravity
;
; player_y[0] = spawn_y_pos;
;
	.dbg	line, "SAUCE/functions/level_loading.h", 87
	lda     _spawn_y_pos+1
	sta     _player_y+1
	lda     _spawn_y_pos
	sta     _player_y
;
; player_y[1] = spawn_y_pos;
;
	.dbg	line, "SAUCE/functions/level_loading.h", 88
	lda     _spawn_y_pos+1
	sta     _player_y+2+1
	lda     _spawn_y_pos
	sta     _player_y+2
;
; currplayer_y = spawn_y_pos;
;
	.dbg	line, "SAUCE/functions/level_loading.h", 89
	lda     _spawn_y_pos+1
	sta     _currplayer_y+1
	lda     _spawn_y_pos
	sta     _currplayer_y
;
; player_gravity[1] = twoplayer ? GRAVITY_DOWN : GRAVITY_UP;
;
	.dbg	line, "SAUCE/functions/level_loading.h", 91
	lda     _twoplayer
	beq     L0020
	lda     #$00
	jmp     L0021
L0020:	lda     #$FF
L0021:	sta     _player_gravity+1
;
; currplayer_gravity = GRAVITY_DOWN;
;
	.dbg	line, "SAUCE/functions/level_loading.h", 93
	lda     #$00
	sta     _currplayer_gravity
;
; tmp1 = 0;
;
	.dbg	line, "SAUCE/functions/level_loading.h", 95
	sta     _tmp1
;
; activesprites_active[tmp1] = 0;
;
	.dbg	line, "SAUCE/functions/level_loading.h", 97
L0006:	ldy     _tmp1
	lda     #$00
	sta     _activesprites_active,y
;
; activesprites_anim_frame[tmp1] = 0;
;
	.dbg	line, "SAUCE/functions/level_loading.h", 98
	ldy     _tmp1
	sta     _activesprites_anim_frame,y
;
; } while (++tmp1 < max_loaded_sprites);
;
	.dbg	line, "SAUCE/functions/level_loading.h", 99
	inc     _tmp1
	lda     _tmp1
	cmp     #$10
	bcc     L0006
;
; mmc3_set_prg_bank_1(level_data_bank);
;
	.dbg	line, "SAUCE/functions/level_loading.h", 101
	lda     _level_data_bank
	jsr     _mmc3_set_prg_bank_1
;
; if (practice_point_count) {
;
	.dbg	line, "SAUCE/functions/level_loading.h", 105
	lda     _practice_point_count
	jeq     L000B
;
; ii = lohi_arr32_load(practice_scroll_x, curr_practice_point) >> 4;
;
	.dbg	line, "SAUCE/functions/level_loading.h", 107
	ldy     _curr_practice_point
	lda     _practice_scroll_x_ex,y
	sta     sreg+1
	lda     _practice_scroll_x_hi,y
	sta     sreg
	lda     _practice_scroll_x_lo,y
	ldx     _practice_scroll_x_md,y
	jsr     shreax4
	sta     regbank+4
	stx     regbank+4+1
;
; dummy_unrle_columns(ii);
;
	.dbg	line, "SAUCE/functions/level_loading.h", 108
	jsr     _dummy_unrle_columns
;
; __A__ = -(6 * (9 / 3) / 2); __asm__("tay \n sty %v", parallax_scroll_column);
;
	.dbg	line, "SAUCE/functions/level_loading.h", 110
	ldy     #$F7
	sty     _parallax_scroll_column
;
; while (ii != 0) {
;
	.dbg	line, "SAUCE/functions/level_loading.h", 111
	jmp     L000E
;
; parallax_scroll_column++;
;
	.dbg	line, "SAUCE/functions/level_loading.h", 112
L0022:	inc     _parallax_scroll_column
;
; if (parallax_scroll_column == 0) {
;
	.dbg	line, "SAUCE/functions/level_loading.h", 113
	bne     L0010
;
; __asm__("sty %v", parallax_scroll_column);
;
	.dbg	line, "SAUCE/functions/level_loading.h", 114
	sty     _parallax_scroll_column
;
; ii--;
;
	.dbg	line, "SAUCE/functions/level_loading.h", 116
L0010:	lda     regbank+4
	bne     L0011
	dec     regbank+4+1
L0011:	dec     regbank+4
;
; while (ii != 0) {
;
	.dbg	line, "SAUCE/functions/level_loading.h", 111
L000E:	lda     regbank+4
	ora     regbank+4+1
	bne     L0022
;
; parallax_scroll_column_start = -3;
;
	.dbg	line, "SAUCE/functions/level_loading.h", 118
	lda     #$FD
	sta     _parallax_scroll_column_start
;
; __asm__("ldy #3");
;
	.dbg	line, "SAUCE/functions/level_loading.h", 119
	ldy     #3
;
; __asm__("tya ");
;
	.dbg	line, "SAUCE/functions/level_loading.h", 121
L0012:	tya
;
; parallax_scroll_column_start += __A__;
;
	.dbg	line, "SAUCE/functions/level_loading.h", 122
	clc
	adc     _parallax_scroll_column_start
	sta     _parallax_scroll_column_start
;
; __asm__("tya ");
;
	.dbg	line, "SAUCE/functions/level_loading.h", 123
	tya
;
; parallax_scroll_column += __A__;
;
	.dbg	line, "SAUCE/functions/level_loading.h", 124
	clc
	adc     _parallax_scroll_column
	sta     _parallax_scroll_column
;
; __asm__("bmi %g", unrle_first_screen_addition_loop);
;
	.dbg	line, "SAUCE/functions/level_loading.h", 125
	bmi     L0012
;
; parallax_scroll_column <<= 1;
;
	.dbg	line, "SAUCE/functions/level_loading.h", 126
	lda     _parallax_scroll_column
	asl     a
	sta     _parallax_scroll_column
;
; crossPRGBankJump0(load_practice_state); 
;
	.dbg	line, "SAUCE/functions/level_loading.h", 128
	lda     #<_load_practice_state
	ldx     #>_load_practice_state
	ldy     #<.bank(_load_practice_state)
	jsr     crossPRGBankJump
;
; mmc3_set_prg_bank_1(GET_BANK(draw_screen));
;
	.dbg	line, "SAUCE/functions/level_loading.h", 130
	lda     #<.bank(_draw_screen)
	jsr     _mmc3_set_prg_bank_1
;
; i = -16;
;
	.dbg	line, "SAUCE/functions/level_loading.h", 132
	ldx     #$00
	lda     #$F0
	sta     regbank+4
;
; if (draw_screen()) flush_vram_update2(); // if draw_screen did anything, flush vram
;
	.dbg	line, "SAUCE/functions/level_loading.h", 134
L0013:	jsr     _draw_screen
	tax
	beq     L0023
	jsr     _flush_vram_update2
;
; i++;
;
	.dbg	line, "SAUCE/functions/level_loading.h", 135
	ldx     #$00
L0023:	inc     regbank+4
;
; uint32_inc(scroll_x);
;
	.dbg	line, "SAUCE/functions/level_loading.h", 136
	inc     _scroll_x+0
	bne     L0024
	inc     _scroll_x+1
	bne     L0024
	inc     _scroll_x+2
	bne     L0024
	inc     _scroll_x+3
;
; } while (i != 0);
;
	.dbg	line, "SAUCE/functions/level_loading.h", 137
L0024:	lda     regbank+4
	bne     L0013
;
; else {
;
	.dbg	line, "SAUCE/functions/level_loading.h", 139
	jmp     L0017
;
; low_word(scroll_x) = LSW(-256); high_word(scroll_x) = MSW(-256);
;
	.dbg	line, "SAUCE/functions/level_loading.h", 141
L000B:	ldx     #$FF
	sta     _scroll_x
	stx     _scroll_x+1
	txa
	sta     _scroll_x+2
	sta     _scroll_x+2+1
;
; parallax_scroll_x = 0;
;
	.dbg	line, "SAUCE/functions/level_loading.h", 142
	lda     #$00
	sta     _parallax_scroll_x
;
; parallax_scroll_column = 0;
;
	.dbg	line, "SAUCE/functions/level_loading.h", 143
	sta     _parallax_scroll_column
;
; parallax_scroll_column_start = 0;
;
	.dbg	line, "SAUCE/functions/level_loading.h", 144
	sta     _parallax_scroll_column_start
;
; mmc3_set_prg_bank_1(GET_BANK(draw_screen));
;
	.dbg	line, "SAUCE/functions/level_loading.h", 145
	lda     #<.bank(_draw_screen)
	jsr     _mmc3_set_prg_bank_1
;
; i = 0;
;
	.dbg	line, "SAUCE/functions/level_loading.h", 146
	ldx     #$00
	txa
	sta     regbank+4
;
; if (draw_screen()) flush_vram_update2(); // if draw_screen did anything, flush vram
;
	.dbg	line, "SAUCE/functions/level_loading.h", 152
L0017:	jsr     _draw_screen
	tax
	beq     L0025
	jsr     _flush_vram_update2
;
; i++;
;
	.dbg	line, "SAUCE/functions/level_loading.h", 153
	ldx     #$00
L0025:	inc     regbank+4
;
; uint32_inc(scroll_x);
;
	.dbg	line, "SAUCE/functions/level_loading.h", 154
	inc     _scroll_x+0
	bne     L0026
	inc     _scroll_x+1
	bne     L0026
	inc     _scroll_x+2
	bne     L0026
	inc     _scroll_x+3
;
; } while (i != 0);
;
	.dbg	line, "SAUCE/functions/level_loading.h", 155
L0026:	lda     regbank+4
	bne     L0017
;
; level_resetting_flag = 2;
;
	.dbg	line, "SAUCE/functions/level_loading.h", 157
	lda     #$02
	sta     _level_resetting_flag
;
; if (!level_resetting_flag) timewarp_done = 0;
;
	.dbg	line, "SAUCE/functions/level_loading.h", 158
	lda     _level_resetting_flag
	bne     L001C
	sta     _timewarp_done
;
; init_sprites();
;
	.dbg	line, "SAUCE/functions/level_loading.h", 160
L001C:	jsr     _init_sprites
;
; set_scroll_x(scroll_x);
;
	.dbg	line, "SAUCE/functions/level_loading.h", 162
	lda     _scroll_x
	ldx     _scroll_x+1
	jsr     _set_scroll_x
;
; set_scroll_y(scroll_y);
;
	.dbg	line, "SAUCE/functions/level_loading.h", 163
	lda     _scroll_y
	ldx     _scroll_y+1
	jsr     _set_scroll_y
;
; if (!practice_point_count) {
;
	.dbg	line, "SAUCE/functions/level_loading.h", 164
	lda     _practice_point_count
	bne     L001D
;
; multi_vram_buffer_horz((const char*)attempttext,sizeof(attempttext)-1,NTADR_C(6, 15));
;
	.dbg	line, "SAUCE/functions/level_loading.h", 166
	lda     #<(_attempttext)
	ldx     #>(_attempttext)
	stx     sreg+1
	sta     sreg
	lda     #$07
	sta     _xargs
	ldx     #$69
	lda     #$E6
	jsr     __multi_vram_buffer
;
; mmc3_set_prg_bank_1(GET_BANK(_display_attempt_counter));
;
	.dbg	line, "SAUCE/functions/level_loading.h", 175
	lda     #<.bank(__display_attempt_counter)
	jsr     _mmc3_set_prg_bank_1
;
; display_attempt_counter(0xF5, NTADR_C(20, 15));
;
	.dbg	line, "SAUCE/functions/level_loading.h", 176
	lda     #$F5
	sta     sreg+0
	ldx     #$29
	lda     #$F4
	jsr     __display_attempt_counter
;
; }
;
	.dbg	line, "SAUCE/functions/level_loading.h", 181
L001D:	ldy     #$00
	lda     (sp),y
	sta     regbank+4
	iny
	lda     (sp),y
	sta     regbank+5
	jmp     incsp2

	.dbg	line
.endproc

; ---------------------------------------------------------------
; void __near__ process_x_scroll (void)
; ---------------------------------------------------------------

.segment	"XCD_BANK_04"

.proc	_process_x_scroll: near

	.dbg	func, "process_x_scroll", "00", static, "_process_x_scroll"

.segment	"XCD_BANK_04"

;
; switch (cam_seesaw) {
;
	.dbg	line, "SAUCE/functions/scroll.h", 12
	lda     _cam_seesaw
;
; }
;
	.dbg	line, "SAUCE/functions/scroll.h", 21
	cmp     #$01
	beq     L0004
	cmp     #$02
	beq     L0007
	jmp     L0003
;
; if (curr_x_scroll_stop < 0xD000) target_x_scroll_stop = 0xD000;
;
	.dbg	line, "SAUCE/functions/scroll.h", 14
L0004:	ldx     _curr_x_scroll_stop+1
	cpx     #$D0
	bcs     L0005
	ldx     #$D0
	lda     #$00
	sta     _target_x_scroll_stop
	stx     _target_x_scroll_stop+1
;
; else cam_seesaw = 2;
;
	.dbg	line, "SAUCE/functions/scroll.h", 15
	jmp     L0003
L0005:	lda     #$02
;
; break;
;
	.dbg	line, "SAUCE/functions/scroll.h", 16
	jmp     L001E
;
; if (curr_x_scroll_stop > 0x1000) target_x_scroll_stop = 0x1000;
;
	.dbg	line, "SAUCE/functions/scroll.h", 18
L0007:	lda     _curr_x_scroll_stop
	cmp     #$01
	lda     _curr_x_scroll_stop+1
	sbc     #$10
	bcc     L0021
	ldx     #$10
	lda     #$00
	sta     _target_x_scroll_stop
	stx     _target_x_scroll_stop+1
;
; else cam_seesaw = 1;
;
	.dbg	line, "SAUCE/functions/scroll.h", 19
	jmp     L0003
L0021:	lda     #$01
L001E:	sta     _cam_seesaw
;
; if (!kandodebugmode) {
;
	.dbg	line, "SAUCE/functions/scroll.h", 24
L0003:	lda     _kandodebugmode
	bne     L000A
;
; if (curr_x_scroll_stop < target_x_scroll_stop) curr_x_scroll_stop += 0x200;
;
	.dbg	line, "SAUCE/functions/scroll.h", 25
	lda     _curr_x_scroll_stop
	cmp     _target_x_scroll_stop
	lda     _curr_x_scroll_stop+1
	sbc     _target_x_scroll_stop+1
	bcs     L000B
	clc
	lda     _curr_x_scroll_stop
	sta     _curr_x_scroll_stop
	lda     #$02
	adc     _curr_x_scroll_stop+1
;
; else if (curr_x_scroll_stop > target_x_scroll_stop) curr_x_scroll_stop -= 0x200;  
;
	.dbg	line, "SAUCE/functions/scroll.h", 26
	jmp     L0026
L000B:	lda     _curr_x_scroll_stop
	sec
	sbc     _target_x_scroll_stop
	sta     tmp1
	lda     _curr_x_scroll_stop+1
	sbc     _target_x_scroll_stop+1
	ora     tmp1
	bcc     L0011
	beq     L0011
	lda     _curr_x_scroll_stop
	sec
	sta     _curr_x_scroll_stop
	lda     _curr_x_scroll_stop+1
	sbc     #$02
;
; } else {
;
	.dbg	line, "SAUCE/functions/scroll.h", 27
	jmp     L0026
;
; if (curr_x_scroll_stop < target_x_scroll_stop) curr_x_scroll_stop += 0x180;
;
	.dbg	line, "SAUCE/functions/scroll.h", 28
L000A:	lda     _curr_x_scroll_stop
	cmp     _target_x_scroll_stop
	lda     _curr_x_scroll_stop+1
	sbc     _target_x_scroll_stop+1
	bcs     L000F
	lda     #$80
	clc
	adc     _curr_x_scroll_stop
	sta     _curr_x_scroll_stop
	lda     #$01
	adc     _curr_x_scroll_stop+1
;
; else if (curr_x_scroll_stop > target_x_scroll_stop) curr_x_scroll_stop -= 0x180;  
;
	.dbg	line, "SAUCE/functions/scroll.h", 29
	jmp     L0026
L000F:	lda     _curr_x_scroll_stop
	sec
	sbc     _target_x_scroll_stop
	sta     tmp1
	lda     _curr_x_scroll_stop+1
	sbc     _target_x_scroll_stop+1
	ora     tmp1
	bcc     L0011
	beq     L0011
	lda     _curr_x_scroll_stop
	sec
	sbc     #$80
	sta     _curr_x_scroll_stop
	lda     _curr_x_scroll_stop+1
	sbc     #$01
L0026:	sta     _curr_x_scroll_stop+1
;
; if (player0_x > curr_x_scroll_stop){ // change x scroll
;
	.dbg	line, "SAUCE/functions/scroll.h", 32
L0011:	lda     _currplayer_x
	sec
	sbc     _curr_x_scroll_stop
	sta     tmp1
	lda     _currplayer_x+1
	sbc     _curr_x_scroll_stop+1
	ora     tmp1
	bcc     L0012
	beq     L0012
;
; tmp1 = MSB(player0_x - curr_x_scroll_stop);
;
	.dbg	line, "SAUCE/functions/scroll.h", 33
	lda     _currplayer_x
	sec
	sbc     _curr_x_scroll_stop
	lda     _currplayer_x+1
	sbc     _curr_x_scroll_stop+1
	sta     _tmp1
;
; scroll_x += tmp1;
;
	.dbg	line, "SAUCE/functions/scroll.h", 34
	ldx     #$00
	lda     _tmp1
	ldy     #<(_scroll_x)
	sty     ptr1
	ldy     #>(_scroll_x)
	jsr     laddeqa
;
; parallax_scroll_x += tmp1 ? tmp1 - 1 : 0;
;
	.dbg	line, "SAUCE/functions/scroll.h", 35
	lda     _tmp1
	beq     L0023
	sec
	sbc     #$01
L0023:	clc
	adc     _parallax_scroll_x
	sta     _parallax_scroll_x
;
; if (parallax_scroll_x >= 144) {
;
	.dbg	line, "SAUCE/functions/scroll.h", 36
	cmp     #$90
	bcc     L0024
;
; parallax_scroll_x -= 144;
;
	.dbg	line, "SAUCE/functions/scroll.h", 37
	lda     _parallax_scroll_x
	sec
	sbc     #$90
	sta     _parallax_scroll_x
;
; high_byte(player0_x) = high_byte(player0_x) - tmp1;
;
	.dbg	line, "SAUCE/functions/scroll.h", 39
L0024:	lda     _currplayer_x+1
	sec
	sbc     _tmp1
	sta     _currplayer_x+1
;
; high_byte(player1_x) = high_byte(player1_x) - tmp1;
;
	.dbg	line, "SAUCE/functions/scroll.h", 40
	lda     _player_x+3
	sec
	sbc     _tmp1
;
; } else if (player0_x < 0x0200){ // change x scroll
;
	.dbg	line, "SAUCE/functions/scroll.h", 41
	jmp     L0020
L0012:	ldx     _currplayer_x+1
	cpx     #$02
	bcs     L0018
;
; tmp1 = MSB(player0_x + 0x0200);
;
	.dbg	line, "SAUCE/functions/scroll.h", 42
	inx
	inx
	stx     _tmp1
;
; scroll_x = scroll_x - tmp1;
;
	.dbg	line, "SAUCE/functions/scroll.h", 43
	lda     _scroll_x+3
	sta     sreg+1
	lda     _scroll_x+2
	sta     sreg
	ldx     _scroll_x+1
	lda     _scroll_x
	jsr     pusheax
	ldx     #$00
	lda     _tmp1
	jsr     tossub0ax
	sta     _scroll_x
	stx     _scroll_x+1
	ldy     sreg
	sty     _scroll_x+2
	ldy     sreg+1
	sty     _scroll_x+3
;
; if (tmp1) {
;
	.dbg	line, "SAUCE/functions/scroll.h", 44
	lda     _tmp1
	beq     L0019
;
; if (tmp1 > parallax_scroll_x) { // sorta yoda notation
;
	.dbg	line, "SAUCE/functions/scroll.h", 45
	cmp     _parallax_scroll_x
	bcc     L0025
	beq     L0025
;
; parallax_scroll_x += 144;
;
	.dbg	line, "SAUCE/functions/scroll.h", 46
	lda     #$90
	clc
	adc     _parallax_scroll_x
	sta     _parallax_scroll_x
;
; parallax_scroll_x -= tmp1 - 1;
;
	.dbg	line, "SAUCE/functions/scroll.h", 48
L0025:	lda     _tmp1
	sec
	sbc     #$01
	eor     #$FF
	sec
	adc     _parallax_scroll_x
	sta     _parallax_scroll_x
;
; high_byte(player0_x) = high_byte(player0_x) + tmp1;
;
	.dbg	line, "SAUCE/functions/scroll.h", 51
L0019:	lda     _currplayer_x+1
	clc
	adc     _tmp1
	sta     _currplayer_x+1
;
; high_byte(player1_x) = high_byte(player1_x) + tmp1;
;
	.dbg	line, "SAUCE/functions/scroll.h", 52
	lda     _player_x+3
	clc
	adc     _tmp1
L0020:	sta     _player_x+3
;
; }
;
	.dbg	line, "SAUCE/functions/scroll.h", 54
L0018:	rts

	.dbg	line
.endproc

; ---------------------------------------------------------------
; void __near__ process_y_scroll (void)
; ---------------------------------------------------------------

.segment	"XCD_BANK_04"

.proc	_process_y_scroll: near

	.dbg	func, "process_y_scroll", "00", static, "_process_y_scroll"

.segment	"XCD_BANK_04"

;
; if ((!dual || twoplayer) && (gamemode == GAMEMODE_CUBE || gamemode == GAMEMODE_ROBOT || gamemode == GAMEMODE_NINJA || gamemode == GAMEMODE_POGO || nocamlock || nocamlockforced)) {
;
	.dbg	line, "SAUCE/functions/scroll.h", 58
	lda     _dual
	beq     L0003
	lda     _twoplayer
	jeq     L004D
L0003:	lda     _gamemode
	beq     L0040
	cmp     #$04
	beq     L0040
	cmp     #$08
	beq     L0040
	cmp     #$09
	beq     L0040
	lda     _nocamlock
	bne     L0040
	lda     _nocamlockforced
	jeq     L004D
;
; if (exitPortalTimer) exitPortalTimer--;
;
	.dbg	line, "SAUCE/functions/scroll.h", 59
L0040:	lda     _exitPortalTimer
	beq     L000A
	dec     _exitPortalTimer
;
; if (player0_y < 0x4000 && 
;
	.dbg	line, "SAUCE/functions/scroll.h", 60
L000A:	ldx     _currplayer_y+1
	cpx     #$40
	bcs     L000C
;
; (scroll_y >= min_scroll_y && (scroll_y_subpx || scroll_y != min_scroll_y))
;
	.dbg	line, "SAUCE/functions/scroll.h", 61
	lda     _scroll_y
	cmp     _min_scroll_y
	lda     _scroll_y+1
	sbc     _min_scroll_y+1
	lda     #$00
	tax
	jcc     L000B
	lda     _scroll_y_subpx
	bne     L0049
	lda     _min_scroll_y
	ldx     _min_scroll_y+1
	cpx     _scroll_y+1
	bne     L0049
	cmp     _scroll_y
	bne     L0049
;
; ){
;
	.dbg	line, "SAUCE/functions/scroll.h", 62
L000C:	ldx     #$00
	txa
	jmp     L000B
;
; cc65_ptr1 = 0x4000 - player0_y;
;
	.dbg	line, "SAUCE/functions/scroll.h", 64
L0049:	lda     #$00
	sec
	sbc     _currplayer_y
	sta     _cc65_ptr1
	lda     #$40
	sbc     _currplayer_y+1
	sta     _cc65_ptr1+1
;
; if (exitPortalTimer) {
;
	.dbg	line, "SAUCE/functions/scroll.h", 65
	lda     _exitPortalTimer
	beq     L0015
;
; cc65_tmp1 = (11 - exitPortalTimer);
;
	.dbg	line, "SAUCE/functions/scroll.h", 66
	lda     #$0B
	sec
	sbc     _exitPortalTimer
	sta     _cc65_tmp1
;
; if (MSB(cc65_ptr1) >= cc65_tmp1) cc65_ptr1 = (cc65_tmp1) << 8;
;
	.dbg	line, "SAUCE/functions/scroll.h", 67
	lda     _cc65_ptr1+1
	cmp     _cc65_tmp1
	bcc     L0015
	ldx     _cc65_tmp1
	lda     #$00
	sta     _cc65_ptr1
	stx     _cc65_ptr1+1
;
; player0_y += cc65_ptr1;
;
	.dbg	line, "SAUCE/functions/scroll.h", 69
L0015:	lda     _cc65_ptr1
	clc
	adc     _currplayer_y
	sta     _currplayer_y
	lda     _cc65_ptr1+1
	adc     _currplayer_y+1
	sta     _currplayer_y+1
;
; player1_y += cc65_ptr1;
;
	.dbg	line, "SAUCE/functions/scroll.h", 70
	lda     _cc65_ptr1
	clc
	adc     _player_y+2
	sta     _player_y+2
	lda     _cc65_ptr1+1
	adc     _player_y+2+1
	sta     _player_y+2+1
;
; scroll_y_subpx -= LSB(cc65_ptr1);
;
	.dbg	line, "SAUCE/functions/scroll.h", 72
	lda     _cc65_ptr1
	eor     #$FF
	sec
	adc     _scroll_y_subpx
	sta     _scroll_y_subpx
;
; do_if_borrow({++high_byte(cc65_ptr1);});
;
	.dbg	line, "SAUCE/functions/scroll.h", 73
	bcs     L004A
	inc     _cc65_ptr1+1
;
; scroll_y = sub_scroll_y(MSB(cc65_ptr1), scroll_y);
;
	.dbg	line, "SAUCE/functions/scroll.h", 74
L004A:	lda     _cc65_ptr1+1
	sta     sreg+0
	lda     _scroll_y
	ldx     _scroll_y+1
	jsr     __sub_scroll_y
	sta     _scroll_y
	stx     _scroll_y+1
;
; cap_scroll_y_at_top();
;
	.dbg	line, "SAUCE/functions/scroll.h", 76
L000B:	jsr     _cap_scroll_y_at_top
;
; if (scroll_y < 0x2EF && high_byte(player0_y) >= MSB(0xA000)){
;
	.dbg	line, "SAUCE/functions/scroll.h", 78
	lda     _scroll_y+1
	cmp     #$02
	bne     L001D
	lda     _scroll_y
	cmp     #$EF
L001D:	bcs     L001E
	lda     _currplayer_y+1
	cmp     #$A0
	bcs     L004B
L001E:	ldx     #$00
	txa
	jmp     _cap_scroll_y_at_bottom
;
; cc65_ptr1 = player0_y - 0xA000;
;
	.dbg	line, "SAUCE/functions/scroll.h", 80
L004B:	lda     _currplayer_y
	sta     _cc65_ptr1
	lda     _currplayer_y+1
	sec
	sbc     #$A0
	sta     _cc65_ptr1+1
;
; if (exitPortalTimer) {
;
	.dbg	line, "SAUCE/functions/scroll.h", 81
	lda     _exitPortalTimer
	beq     L0022
;
; cc65_tmp1 = (11 - exitPortalTimer);
;
	.dbg	line, "SAUCE/functions/scroll.h", 82
	lda     #$0B
	sec
	sbc     _exitPortalTimer
	sta     _cc65_tmp1
;
; if (MSB(cc65_ptr1) >= cc65_tmp1) cc65_ptr1 = (cc65_tmp1) << 8;
;
	.dbg	line, "SAUCE/functions/scroll.h", 83
	lda     _cc65_ptr1+1
	cmp     _cc65_tmp1
	bcc     L0022
	ldx     _cc65_tmp1
	lda     #$00
	sta     _cc65_ptr1
	stx     _cc65_ptr1+1
;
; player0_y = player0_y - cc65_ptr1;
;
	.dbg	line, "SAUCE/functions/scroll.h", 85
L0022:	lda     _currplayer_y
	sec
	sbc     _cc65_ptr1
	sta     _currplayer_y
	lda     _currplayer_y+1
	sbc     _cc65_ptr1+1
	sta     _currplayer_y+1
;
; player1_y = player1_y - cc65_ptr1;
;
	.dbg	line, "SAUCE/functions/scroll.h", 86
	lda     _player_y+2
	sec
	sbc     _cc65_ptr1
	sta     _player_y+2
	lda     _player_y+2+1
	sbc     _cc65_ptr1+1
	sta     _player_y+2+1
;
; scroll_y_subpx += LSB(cc65_ptr1);
;
	.dbg	line, "SAUCE/functions/scroll.h", 88
	lda     _cc65_ptr1
	clc
	adc     _scroll_y_subpx
	sta     _scroll_y_subpx
;
; do_if_carry({++high_byte(cc65_ptr1);});
;
	.dbg	line, "SAUCE/functions/scroll.h", 89
	bcc     L004C
	inc     _cc65_ptr1+1
;
; scroll_y = add_scroll_y(MSB(cc65_ptr1), scroll_y);
;
	.dbg	line, "SAUCE/functions/scroll.h", 90
L004C:	lda     _cc65_ptr1+1
	sta     sreg+0
	lda     _scroll_y
	ldx     _scroll_y+1
	jsr     __add_scroll_y
	sta     _scroll_y
	stx     _scroll_y+1
;
; } else {   //ship stuff
;
	.dbg	line, "SAUCE/functions/scroll.h", 93
	jmp     _cap_scroll_y_at_bottom
;
; if (low_byte(target_scroll_y) >= 0xf0) {
;
	.dbg	line, "SAUCE/functions/scroll.h", 94
L004D:	lda     _target_scroll_y
	cmp     #$F0
	bcc     L002A
;
; target_scroll_y += 0x10;
;
	.dbg	line, "SAUCE/functions/scroll.h", 95
	lda     #$10
	clc
	adc     _target_scroll_y
	sta     _target_scroll_y
	bcc     L002A
	inc     _target_scroll_y+1
;
; if (target_scroll_y > scroll_y) {
;
	.dbg	line, "SAUCE/functions/scroll.h", 97
L002A:	lda     _target_scroll_y
	sec
	sbc     _scroll_y
	sta     tmp1
	lda     _target_scroll_y+1
	sbc     _scroll_y+1
	ora     tmp1
	bcc     L002C
	beq     L002C
;
; cc65_ptr1 = SHIP_SCROLL_SPEED(framerate);
;
	.dbg	line, "SAUCE/functions/scroll.h", 98
	ldy     _framerate
	ldx     #$02
	lda     _SHIP_SCROLL_SPEED_lo,y
	sta     _cc65_ptr1
	stx     _cc65_ptr1+1
;
; player0_y = player0_y - cc65_ptr1;
;
	.dbg	line, "SAUCE/functions/scroll.h", 100
	lda     _currplayer_y
	sec
	sbc     _cc65_ptr1
	sta     _currplayer_y
	lda     _currplayer_y+1
	sbc     _cc65_ptr1+1
	sta     _currplayer_y+1
;
; player1_y = player1_y - cc65_ptr1;
;
	.dbg	line, "SAUCE/functions/scroll.h", 101
	lda     _player_y+2
	sec
	sbc     _cc65_ptr1
	sta     _player_y+2
	lda     _player_y+2+1
	sbc     _cc65_ptr1+1
	sta     _player_y+2+1
;
; scroll_y_subpx += LSB(cc65_ptr1);
;
	.dbg	line, "SAUCE/functions/scroll.h", 103
	lda     _cc65_ptr1
	clc
	adc     _scroll_y_subpx
	sta     _scroll_y_subpx
;
; do_if_carry({++high_byte(cc65_ptr1);});
;
	.dbg	line, "SAUCE/functions/scroll.h", 104
	bcc     L004E
	inc     _cc65_ptr1+1
;
; scroll_y = add_scroll_y(MSB(cc65_ptr1), scroll_y);
;
	.dbg	line, "SAUCE/functions/scroll.h", 105
L004E:	lda     _cc65_ptr1+1
	sta     sreg+0
	lda     _scroll_y
	ldx     _scroll_y+1
	jsr     __add_scroll_y
	sta     _scroll_y
	stx     _scroll_y+1
;
; if (target_scroll_y < scroll_y) {
;
	.dbg	line, "SAUCE/functions/scroll.h", 107
L002C:	lda     _target_scroll_y
	ldx     _target_scroll_y+1
	cmp     _scroll_y
	txa
	sbc     _scroll_y+1
	bcs     L0033
;
; cc65_ptr1 = SHIP_SCROLL_SPEED(framerate);
;
	.dbg	line, "SAUCE/functions/scroll.h", 108
	ldy     _framerate
	ldx     #$02
	lda     _SHIP_SCROLL_SPEED_lo,y
	sta     _cc65_ptr1
	stx     _cc65_ptr1+1
;
; player0_y = player0_y + cc65_ptr1;
;
	.dbg	line, "SAUCE/functions/scroll.h", 110
	lda     _currplayer_y
	clc
	adc     _cc65_ptr1
	sta     _currplayer_y
	lda     _currplayer_y+1
	adc     _cc65_ptr1+1
	sta     _currplayer_y+1
;
; player1_y = player1_y + cc65_ptr1;
;
	.dbg	line, "SAUCE/functions/scroll.h", 111
	lda     _player_y+2
	clc
	adc     _cc65_ptr1
	sta     _player_y+2
	lda     _player_y+2+1
	adc     _cc65_ptr1+1
	sta     _player_y+2+1
;
; scroll_y_subpx -= LSB(cc65_ptr1);
;
	.dbg	line, "SAUCE/functions/scroll.h", 113
	lda     _cc65_ptr1
	eor     #$FF
	sec
	adc     _scroll_y_subpx
	sta     _scroll_y_subpx
;
; do_if_carry({++high_byte(cc65_ptr1);});
;
	.dbg	line, "SAUCE/functions/scroll.h", 114
	bcc     L004F
	inc     _cc65_ptr1+1
;
; scroll_y = sub_scroll_y(MSB(cc65_ptr1), scroll_y);
;
	.dbg	line, "SAUCE/functions/scroll.h", 115
L004F:	lda     _cc65_ptr1+1
	sta     sreg+0
	lda     _scroll_y
	ldx     _scroll_y+1
	jsr     __sub_scroll_y
	sta     _scroll_y
	stx     _scroll_y+1
;
; cap_scroll_y_at_top();
;
	.dbg	line, "SAUCE/functions/scroll.h", 117
L0033:	jsr     _cap_scroll_y_at_top
;
; cap_scroll_y_at_bottom();
;
	.dbg	line, "SAUCE/functions/scroll.h", 118
	jmp     _cap_scroll_y_at_bottom

	.dbg	line
.endproc

; ---------------------------------------------------------------
; void __near__ do_the_scroll_thing (void)
; ---------------------------------------------------------------

.segment	"XCD_BANK_04"

.proc	_do_the_scroll_thing: near

	.dbg	func, "do_the_scroll_thing", "00", static, "_do_the_scroll_thing"

.segment	"XCD_BANK_04"

;
; process_x_scroll();
;
	.dbg	line, "SAUCE/functions/scroll.h", 123
	jsr     _process_x_scroll
;
; process_y_scroll();
;
	.dbg	line, "SAUCE/functions/scroll.h", 124
	jsr     _process_y_scroll
;
; set_scroll_x(scroll_x);
;
	.dbg	line, "SAUCE/functions/scroll.h", 126
	lda     _scroll_x
	ldx     _scroll_x+1
	jsr     _set_scroll_x
;
; set_scroll_y(scroll_y);
;
	.dbg	line, "SAUCE/functions/scroll.h", 127
	lda     _scroll_y
	ldx     _scroll_y+1
	jmp     _set_scroll_y

	.dbg	line
.endproc

; ---------------------------------------------------------------
; void __near__ commonly_used_store (void)
; ---------------------------------------------------------------

.segment	"XCD_BANK_01"

.proc	_commonly_used_store: near

	.dbg	func, "commonly_used_store", "00", static, "_commonly_used_store"

.segment	"XCD_BANK_01"

;
; ), temp_y, temp_room);
;
	.dbg	line, "SAUCE/functions/collision.h", 1056
	lda     _currplayer_mini
	beq     L0003
	lda     #$10
	sec
	sbc     _Generic+3
	lsr     a
L0003:	clc
	adc     _Generic+1
	bcc     L0007
	clc
L0007:	adc     _Generic+3
	sec
	sbc     #$02
	sta     sreg+0
	lda     _scroll_y
	ldx     _scroll_y+1
	jsr     __add_scroll_y
	sta     _temp_y
	stx     _temp_room
;
; }   
;
	.dbg	line, "SAUCE/functions/collision.h", 1057
	rts

	.dbg	line
.endproc

; ---------------------------------------------------------------
; void __near__ commonly_stored_routine_2 (void)
; ---------------------------------------------------------------

.segment	"XCD_BANK_01"

.proc	_commonly_stored_routine_2: near

	.dbg	func, "commonly_stored_routine_2", "00", static, "_commonly_stored_routine_2"

.segment	"XCD_BANK_01"

;
; ), temp_y, temp_room);
;
	.dbg	line, "SAUCE/functions/collision.h", 1063
	lda     _currplayer_mini
	beq     L0005
	lda     #$10
	sec
	sbc     _Generic+3
	lsr     a
	jmp     L0003
L0005:	lda     #$02
L0003:	clc
	adc     _Generic+1
	sta     sreg+0
	lda     _scroll_y
	ldx     _scroll_y+1
	jsr     __add_scroll_y
	sta     _temp_y
	stx     _temp_room
;
; }  
;
	.dbg	line, "SAUCE/functions/collision.h", 1064
	rts

	.dbg	line
.endproc

; ---------------------------------------------------------------
; void __near__ commonly_used_death_check (void)
; ---------------------------------------------------------------

.segment	"XCD_BANK_01"

.proc	_commonly_used_death_check: near

	.dbg	func, "commonly_used_death_check", "00", static, "_commonly_used_death_check"

.segment	"XCD_BANK_01"

;
; });
;
	.dbg	line, "SAUCE/functions/collision.h", 1069
	lda     _temp_x
	and     #$0F
	sec
	sbc     #$04
	sbc     #$08-$04+1
	bcs     L0007
	ldy     _currplayer
	lda     #$01
	sta     _cube_data,y
;
; }
;
	.dbg	line, "SAUCE/functions/collision.h", 1070
L0007:	rts

	.dbg	line
.endproc

; ---------------------------------------------------------------
; char __near__ bg_coll_sides (void)
; ---------------------------------------------------------------

.segment	"XCD_BANK_01"

.proc	_bg_coll_sides: near

	.dbg	func, "bg_coll_sides", "00", static, "_bg_coll_sides"

.segment	"XCD_BANK_01"

;
; switch (collision) {
;
	.dbg	line, "SAUCE/functions/collision.h", 49
	ldx     #$00
	lda     _collision
;
; };
;
	.dbg	line, "SAUCE/functions/collision.h", 61
	cmp     #$05
	beq     L0011
	cmp     #$06
	beq     L0010
	cmp     #$07
	beq     L000F
	cmp     #$09
	beq     L0012
	jmp     L000E
;
; return 1; 
;
	.dbg	line, "SAUCE/functions/collision.h", 51
L000F:	lda     #$01
	rts
;
; if ((uint8_t)(temp_y & 0x08)) return 1;  // If Y pos inside block ≥ 8px
;
	.dbg	line, "SAUCE/functions/collision.h", 53
L0010:	lda     _temp_y
	and     #$08
	tax
	beq     L0014
	ldx     #$00
	lda     #$01
	rts
;
; if (!(uint8_t)(temp_y & 0x08)) return 1;  // If Y pos inside block < 8px
;
	.dbg	line, "SAUCE/functions/collision.h", 56
L0011:	lda     _temp_y
	and     #$08
	bne     L000E
	lda     #$01
	rts
;
; if (gamemode == gamemode == GAMEMODE_WAVE || gamemode == GAMEMODE_SNAKE) return 0;
;
	.dbg	line, "SAUCE/functions/collision.h", 59
L0012:	lda     _gamemode
	cmp     _gamemode
	jsr     booleq
	cmp     #$06
	beq     L000E
	lda     _gamemode
	cmp     #$0A
;
; return 0;
;
	.dbg	line, "SAUCE/functions/collision.h", 62
L000E:	txa
;
; }
;
	.dbg	line, "SAUCE/functions/collision.h", 63
L0014:	rts

	.dbg	line
.endproc

; ---------------------------------------------------------------
; char __near__ col_death_bottom_routine (void)
; ---------------------------------------------------------------

.segment	"XCD_BANK_01"

.proc	_col_death_bottom_routine: near

	.dbg	func, "col_death_bottom_routine", "00", static, "_col_death_bottom_routine"

.segment	"XCD_BANK_01"

;
; if ((uint8_t)(temp_y & 0x0f) > 0x0a) {       // If Y pos inside block ≥ 8px, die
;
	.dbg	line, "SAUCE/functions/collision.h", 67
	lda     _temp_y
	and     #$0F
	cmp     #$0B
	lda     #$00
	tax
	bcc     L000B
;
; });
;
	.dbg	line, "SAUCE/functions/collision.h", 72
	lda     _temp_x
	and     #$0F
	sec
	sbc     #$05
	sbc     #$07-$05+1
	bcs     L000A
	ldy     _currplayer
	lda     #$01
	sta     _cube_data,y
	rts
;
; return 0;
;
	.dbg	line, "SAUCE/functions/collision.h", 74
L000A:	txa
;
; }
;
	.dbg	line, "SAUCE/functions/collision.h", 75
L000B:	rts

	.dbg	line
.endproc

; ---------------------------------------------------------------
; char __near__ col_death_top_routine (void)
; ---------------------------------------------------------------

.segment	"XCD_BANK_01"

.proc	_col_death_top_routine: near

	.dbg	func, "col_death_top_routine", "00", static, "_col_death_top_routine"

.segment	"XCD_BANK_01"

;
; if ((uint8_t)(temp_y & 0x0f) < 0x06) {   
;
	.dbg	line, "SAUCE/functions/collision.h", 78
	lda     _temp_y
	and     #$0F
	ldx     #$00
	cmp     #$06
	bcs     L000A
;
; });
;
	.dbg	line, "SAUCE/functions/collision.h", 83
	lda     _temp_x
	and     #$0F
	sec
	sbc     #$05
	sbc     #$07-$05+1
	bcs     L000A
	ldy     _currplayer
	lda     #$01
	sta     _cube_data,y
	rts
;
; return 0;
;
	.dbg	line, "SAUCE/functions/collision.h", 85
L000A:	txa
;
; }
;
	.dbg	line, "SAUCE/functions/collision.h", 86
	rts

	.dbg	line
.endproc

; ---------------------------------------------------------------
; char __near__ col_death_right_routine (void)
; ---------------------------------------------------------------

.segment	"XCD_BANK_01"

.proc	_col_death_right_routine: near

	.dbg	func, "col_death_right_routine", "00", static, "_col_death_right_routine"

.segment	"XCD_BANK_01"

;
; if ((uint8_t)(temp_x & 0x0f) >= 0x0a) {
;
	.dbg	line, "SAUCE/functions/collision.h", 89
	lda     _temp_x
	and     #$0F
	cmp     #$0A
	lda     #$00
	tax
	bcc     L000B
;
; });
;
	.dbg	line, "SAUCE/functions/collision.h", 93
	lda     _temp_y
	and     #$0F
	sec
	sbc     #$06
	sbc     #$08-$06+1
	bcs     L000A
	ldy     _currplayer
	lda     #$01
	sta     _cube_data,y
	rts
;
; return 0;
;
	.dbg	line, "SAUCE/functions/collision.h", 95
L000A:	txa
;
; }
;
	.dbg	line, "SAUCE/functions/collision.h", 96
L000B:	rts

	.dbg	line
.endproc

; ---------------------------------------------------------------
; char __near__ col_death_left_routine (void)
; ---------------------------------------------------------------

.segment	"XCD_BANK_01"

.proc	_col_death_left_routine: near

	.dbg	func, "col_death_left_routine", "00", static, "_col_death_left_routine"

.segment	"XCD_BANK_01"

;
; if ((uint8_t)(temp_x & 0x0f) < 0x06) {
;
	.dbg	line, "SAUCE/functions/collision.h", 99
	lda     _temp_x
	and     #$0F
	ldx     #$00
	cmp     #$06
	bcs     L000A
;
; });
;
	.dbg	line, "SAUCE/functions/collision.h", 103
	lda     _temp_y
	and     #$0F
	sec
	sbc     #$06
	sbc     #$08-$06+1
	bcs     L000A
	ldy     _currplayer
	lda     #$01
	sta     _cube_data,y
	rts
;
; return 0;
;
	.dbg	line, "SAUCE/functions/collision.h", 105
L000A:	txa
;
; }
;
	.dbg	line, "SAUCE/functions/collision.h", 106
	rts

	.dbg	line
.endproc

; ---------------------------------------------------------------
; char __near__ bg_coll_spikes (void)
; ---------------------------------------------------------------

.segment	"XCD_BANK_01"

.proc	_bg_coll_spikes: near

	.dbg	func, "bg_coll_spikes", "00", static, "_bg_coll_spikes"

.segment	"XCD_BANK_01"

;
; switch (collision) {
;
	.dbg	line, "SAUCE/functions/collision.h", 115
	ldx     #$00
	lda     _collision
;
; }
;
	.dbg	line, "SAUCE/functions/collision.h", 201
	cmp     #$01
	jeq     L0005
	cmp     #$02
	jeq     L0004
	cmp     #$03
	jeq     L0006
	cmp     #$04
	jeq     L0007
	cmp     #$08
	jeq     L006E
	cmp     #$28
	jeq     L007B
	cmp     #$29
	jeq     L007E
	cmp     #$2A
	jeq     L0081
	cmp     #$2B
	jeq     L0074
	cmp     #$2C
	jeq     L0075
	cmp     #$2D
	jeq     L0074
	cmp     #$2E
	jeq     L0075
	cmp     #$2F
	jeq     L0077
	cmp     #$30
	jeq     L0078
	cmp     #$31
	jeq     L0079
	cmp     #$32
	jeq     L007A
	cmp     #$33
	beq     L000D
	cmp     #$34
	beq     L000C
	cmp     #$35
	beq     L000B
	cmp     #$36
	beq     L000A
	cmp     #$3B
	beq     L0007
	cmp     #$3C
	jeq     L0076
	cmp     #$3D
	beq     L0007
	jmp     L0084
;
; return col_death_left_routine();
;
	.dbg	line, "SAUCE/functions/collision.h", 117
L0004:	jmp     _col_death_left_routine
;
; return col_death_right_routine();
;
	.dbg	line, "SAUCE/functions/collision.h", 120
L0005:	jmp     _col_death_right_routine
;
; return col_death_top_routine(); 
;
	.dbg	line, "SAUCE/functions/collision.h", 123
L0006:	jmp     _col_death_top_routine
;
; return col_death_bottom_routine(); 
;
	.dbg	line, "SAUCE/functions/collision.h", 128
L0007:	jmp     _col_death_bottom_routine
;
; return col_death_left_routine() | col_death_bottom_routine();
;
	.dbg	line, "SAUCE/functions/collision.h", 131
L000A:	jsr     _col_death_left_routine
	jsr     pushax
	jsr     _col_death_bottom_routine
	jsr     tosorax
	ldx     #$00
	rts
;
; return col_death_right_routine() | col_death_bottom_routine();
;
	.dbg	line, "SAUCE/functions/collision.h", 134
L000B:	jsr     _col_death_right_routine
	jsr     pushax
	jsr     _col_death_bottom_routine
	jsr     tosorax
	ldx     #$00
	rts
;
; return col_death_left_routine() | col_death_top_routine();
;
	.dbg	line, "SAUCE/functions/collision.h", 137
L000C:	jsr     _col_death_left_routine
	jsr     pushax
	jsr     _col_death_top_routine
	jsr     tosorax
	ldx     #$00
	rts
;
; return col_death_right_routine() | col_death_top_routine();
;
	.dbg	line, "SAUCE/functions/collision.h", 140
L000D:	jsr     _col_death_right_routine
	jsr     pushax
	jsr     _col_death_top_routine
	jsr     tosorax
	ldx     #$00
	rts
;
; tmp2 = (uint8_t)(temp_y & 0x0f);
;
	.dbg	line, "SAUCE/functions/collision.h", 143
L006E:	lda     _temp_y
	and     #$0F
	sta     _tmp2
;
; if (tmp2 >= 0x04 && tmp2 < 0x0c) {
;
	.dbg	line, "SAUCE/functions/collision.h", 144
	cmp     #$04
	txa
	bcc     L0073
	lda     _tmp2
	cmp     #$0C
	bcs     L0085
;
; do_if_in_range((uint8_t)(temp_x & 0x0f), 0x04, 0x09-1, {_break;});
;
	.dbg	line, "SAUCE/functions/collision.h", 145
	lda     _temp_x
	and     #$0F
	sec
	sbc     #$04
	sbc     #$08-$04+1
	jcc     L0019
;
; return 0;
;
	.dbg	line, "SAUCE/functions/collision.h", 147
L0085:	txa
L0073:	rts
;
; if (!(uint8_t)(temp_y & 0x08)) {
;
	.dbg	line, "SAUCE/functions/collision.h", 150
L0074:	lda     _temp_y
	and     #$08
	bne     L0086
;
; do_if_in_range((uint8_t)(temp_x & 0x0f), 0x02, 0x06-1, {_break;});
;
	.dbg	line, "SAUCE/functions/collision.h", 151
	lda     _temp_x
	and     #$0F
	sec
	sbc     #$02
	sbc     #$05-$02+1
	jcc     L0019
;
; return 0;
;
	.dbg	line, "SAUCE/functions/collision.h", 153
L0086:	txa
	rts
;
; if (!(uint8_t)(temp_y & 0x08)) {
;
	.dbg	line, "SAUCE/functions/collision.h", 156
L0075:	lda     _temp_y
	and     #$08
	bne     L0087
;
; do_if_in_range((uint8_t)(temp_x & 0x0f), 0x0a, 0x0d-1, {_break;});
;
	.dbg	line, "SAUCE/functions/collision.h", 157
	lda     _temp_x
	and     #$0F
	sec
	sbc     #$0A
	sbc     #$0C-$0A+1
	jcc     L0019
;
; return 0;
;
	.dbg	line, "SAUCE/functions/collision.h", 159
L0087:	txa
	rts
;
; if (!(uint8_t)(temp_y & 0x08)) {
;
	.dbg	line, "SAUCE/functions/collision.h", 161
L0076:	lda     _temp_y
	and     #$08
	bne     L0088
;
; do_if_in_range((uint8_t)(temp_x & 0x0f), 0x07, 0x0b-1, {_break;});
;
	.dbg	line, "SAUCE/functions/collision.h", 162
	lda     _temp_x
	and     #$0F
	sec
	sbc     #$07
	sbc     #$0A-$07+1
	jcc     L0019
;
; return 0;   
;
	.dbg	line, "SAUCE/functions/collision.h", 164
L0088:	txa
	rts
;
; if (!(uint8_t)(temp_y & 0x08)) {
;
	.dbg	line, "SAUCE/functions/collision.h", 166
L0077:	lda     _temp_y
	and     #$08
	bne     L0089
;
; do_if_in_range((uint8_t)(temp_x & 0x07), 0x02, 0x06-1, {_break;});
;
	.dbg	line, "SAUCE/functions/collision.h", 167
	lda     _temp_x
	and     #$07
	sec
	sbc     #$02
	sbc     #$05-$02+1
	jcc     L0019
;
; return 0;
;
	.dbg	line, "SAUCE/functions/collision.h", 169
L0089:	txa
	rts
;
; if (!(uint8_t)(temp_y & 0x08)) {
;
	.dbg	line, "SAUCE/functions/collision.h", 171
L0078:	lda     _temp_y
	and     #$08
	bne     L008A
;
; do_if_in_range((uint8_t)(temp_x & 0x0f), 0x02, 0x06-1, {_break;});
;
	.dbg	line, "SAUCE/functions/collision.h", 172
	lda     _temp_x
	and     #$0F
	sec
	sbc     #$02
	sbc     #$05-$02+1
	bcc     L0019
;
; return 0;
;
	.dbg	line, "SAUCE/functions/collision.h", 174
L008A:	txa
	rts
;
; if (!(uint8_t)(temp_y & 0x08)) {
;
	.dbg	line, "SAUCE/functions/collision.h", 176
L0079:	lda     _temp_y
	and     #$08
	bne     L008B
;
; do_if_in_range((uint8_t)(temp_x & 0x0f), 0x0a, 0x0d-1, {_break;});
;
	.dbg	line, "SAUCE/functions/collision.h", 177
	lda     _temp_x
	and     #$0F
	sec
	sbc     #$0A
	sbc     #$0C-$0A+1
	bcc     L0019
;
; return 0;
;
	.dbg	line, "SAUCE/functions/collision.h", 179
L008B:	txa
	rts
;
; if (!(uint8_t)(temp_y & 0x08)) {
;
	.dbg	line, "SAUCE/functions/collision.h", 181
L007A:	lda     _temp_y
	and     #$08
	bne     L008C
;
; do_if_in_range((uint8_t)(temp_x & 0x07), 0x02, 0x06-1, {_break;});
;
	.dbg	line, "SAUCE/functions/collision.h", 182
	lda     _temp_x
	and     #$07
	sec
	sbc     #$02
	sbc     #$05-$02+1
	bcc     L0019
;
; return 0;
;
	.dbg	line, "SAUCE/functions/collision.h", 184
L008C:	txa
	rts
;
; if ((uint8_t)(temp_y & 0x08)) {
;
	.dbg	line, "SAUCE/functions/collision.h", 186
L007B:	lda     _temp_y
	and     #$08
	tax
	beq     L007D
;
; do_if_in_range((uint8_t)(temp_x & 0x0f), 0x02, 0x06-1, {_break;});
;
	.dbg	line, "SAUCE/functions/collision.h", 187
	lda     _temp_x
	and     #$0F
	sec
	sbc     #$02
	sbc     #$05-$02+1
	bcc     L0019
;
; return 0;
;
	.dbg	line, "SAUCE/functions/collision.h", 189
	ldx     #$00
	txa
L007D:	rts
;
; if ((uint8_t)(temp_y & 0x08)) {
;
	.dbg	line, "SAUCE/functions/collision.h", 191
L007E:	lda     _temp_y
	and     #$08
	tax
	beq     L0080
;
; do_if_in_range((uint8_t)(temp_x & 0x0f), 0x0a, 0x0d-1, {_break;});
;
	.dbg	line, "SAUCE/functions/collision.h", 192
	lda     _temp_x
	and     #$0F
	sec
	sbc     #$0A
	sbc     #$0C-$0A+1
	bcc     L0019
;
; return 0;
;
	.dbg	line, "SAUCE/functions/collision.h", 194
	ldx     #$00
	txa
L0080:	rts
;
; if ((uint8_t)(temp_y & 0x08)) {
;
	.dbg	line, "SAUCE/functions/collision.h", 196
L0081:	lda     _temp_y
	and     #$08
	tax
	beq     L0083
;
; do_if_in_range((uint8_t)(temp_x & 0x07), 0x02, 0x06-1, {_break;});
;
	.dbg	line, "SAUCE/functions/collision.h", 197
	lda     _temp_x
	and     #$07
	sec
	sbc     #$02
	sbc     #$05-$02+1
	bcc     L0019
;
; return 0;
;
	.dbg	line, "SAUCE/functions/collision.h", 199
	ldx     #$00
	txa
L0083:	rts
;
; default: return 0;
;
	.dbg	line, "SAUCE/functions/collision.h", 200
L0084:	txa
	rts
;
; cube_data[currplayer] = 1;  
;
	.dbg	line, "SAUCE/functions/collision.h", 204
L0019:	ldy     _currplayer
	lda     #$01
	sta     _cube_data,y
;
; return 1;     
;
	.dbg	line, "SAUCE/functions/collision.h", 205
	ldx     #$00
;
; }
;
	.dbg	line, "SAUCE/functions/collision.h", 206
	rts

	.dbg	line
.segment	"XCD_BANK_01"

M0001:
	.word	$0000
M0002:
	.word	$0000
M0003:
	.word	$0000
M0004:
	.word	$0000
M0005:
	.word	$0000
M0006:
	.word	$0000
M0007:
	.word	$0000
M0008:
	.word	$0000
M0009:
	.word	$0000
M000A:
	.word	$0000
M000B:
	.word	$0000

.endproc

; ---------------------------------------------------------------
; void __near__ bg_coll_floor_spikes (void)
; ---------------------------------------------------------------

.segment	"XCD_BANK_01"

.proc	_bg_coll_floor_spikes: near

	.dbg	func, "bg_coll_floor_spikes", "00", static, "_bg_coll_floor_spikes"

.segment	"XCD_BANK_01"

;
; if (currplayer_vel_y != 0) {
;
	.dbg	line, "SAUCE/functions/collision.h", 215
	lda     _currplayer_vel_y
	ora     _currplayer_vel_y+1
	beq     L0002
;
; currplayer_direction = high_byte(currplayer_vel_y) & 0x80;
;
	.dbg	line, "SAUCE/functions/collision.h", 216
	lda     _currplayer_vel_y+1
	and     #$80
	sta     _currplayer_direction
;
; temp_x = Generic.x + low_word(scroll_x) + 3; // automatically only the low byte
;
	.dbg	line, "SAUCE/functions/collision.h", 220
L0002:	lda     _Generic
	clc
	adc     _scroll_x
	clc
	adc     #$03
	ldx     #$00
	sta     _temp_x
;
; commonly_used_store();
;
	.dbg	line, "SAUCE/functions/collision.h", 222
	jsr     _commonly_used_store
;
; bg_collision_sub();
;
	.dbg	line, "SAUCE/functions/collision.h", 224
	jsr     _bg_collision_sub
;
; if (collision) {
;
	.dbg	line, "SAUCE/functions/collision.h", 226
	lda     _collision
	beq     L0006
;
; if (bg_coll_spikes()) return;
;
	.dbg	line, "SAUCE/functions/collision.h", 227
	jsr     _bg_coll_spikes
	tax
	bne     L000F
;
; temp_x += Generic.width - 6; // automatically only the low byte
;
	.dbg	line, "SAUCE/functions/collision.h", 230
L0006:	lda     _Generic+2
	sec
	sbc     #$06
	ldx     #$00
	clc
	adc     _temp_x
	sta     _temp_x
;
; bg_collision_sub();
;
	.dbg	line, "SAUCE/functions/collision.h", 232
	jsr     _bg_collision_sub
;
; if (collision) {
;
	.dbg	line, "SAUCE/functions/collision.h", 234
	lda     _collision
	beq     L0009
;
; if (bg_coll_spikes()) return;
;
	.dbg	line, "SAUCE/functions/collision.h", 235
	jsr     _bg_coll_spikes
	tax
	bne     L000F
;
; temp_x = Generic.x + low_word(scroll_x) + 3; // automatically only the low byte
;
	.dbg	line, "SAUCE/functions/collision.h", 239
L0009:	lda     _Generic
	clc
	adc     _scroll_x
	clc
	adc     #$03
	ldx     #$00
	sta     _temp_x
;
; commonly_stored_routine_2();
;
	.dbg	line, "SAUCE/functions/collision.h", 241
	jsr     _commonly_stored_routine_2
;
; bg_collision_sub();
;
	.dbg	line, "SAUCE/functions/collision.h", 243
	jsr     _bg_collision_sub
;
; if (collision) {
;
	.dbg	line, "SAUCE/functions/collision.h", 245
	lda     _collision
	beq     L000C
;
; if (bg_coll_spikes()) return;
;
	.dbg	line, "SAUCE/functions/collision.h", 246
	jsr     _bg_coll_spikes
	tax
	bne     L000F
;
; temp_x += Generic.width - 6; // automatically only the low byte
;
	.dbg	line, "SAUCE/functions/collision.h", 249
L000C:	lda     _Generic+2
	sec
	sbc     #$06
	ldx     #$00
	clc
	adc     _temp_x
	sta     _temp_x
;
; bg_collision_sub();
;
	.dbg	line, "SAUCE/functions/collision.h", 251
	jsr     _bg_collision_sub
;
; if (collision) {
;
	.dbg	line, "SAUCE/functions/collision.h", 253
	lda     _collision
	beq     L000F
;
; if (bg_coll_spikes()) return;
;
	.dbg	line, "SAUCE/functions/collision.h", 254
	jmp     _bg_coll_spikes
;
; }
;
	.dbg	line, "SAUCE/functions/collision.h", 256
L000F:	rts

	.dbg	line
.endproc

; ---------------------------------------------------------------
; char __near__ bg_coll_mini_blocks (void)
; ---------------------------------------------------------------

.segment	"XCD_BANK_01"

.proc	_bg_coll_mini_blocks: near

	.dbg	func, "bg_coll_mini_blocks", "00", static, "_bg_coll_mini_blocks"

.segment	"XCD_BANK_01"

;
; if (collision != COL_FLOOR_CEIL && high_byte(currplayer_x) < 0x10) return 0;
;
	.dbg	line, "SAUCE/functions/collision.h", 262
	ldx     #$00
	lda     _collision
	cmp     #$09
	beq     L004D
	lda     _currplayer_x+1
	cmp     #$10
	jcc     L004A
;
; switch (collision) {
;
	.dbg	line, "SAUCE/functions/collision.h", 263
L004D:	lda     _collision
;
; }
;
	.dbg	line, "SAUCE/functions/collision.h", 386
	cmp     #$05
	jeq     L005D
	cmp     #$06
	jeq     L005C
	cmp     #$20
	jeq     L004E
	cmp     #$21
	jeq     L0051
	cmp     #$22
	jeq     L0054
	cmp     #$23
	jeq     L0058
	cmp     #$24
	jeq     L005E
	cmp     #$25
	jeq     L005F
	cmp     #$26
	jeq     L0060
	cmp     #$27
	jeq     L0062
	cmp     #$2B
	jeq     L0054
	cmp     #$2C
	jeq     L0058
	cmp     #$2D
	jeq     L005C
	cmp     #$2E
	jeq     L005C
	cmp     #$2F
	jeq     L005C
	cmp     #$37
	jeq     L006E
	cmp     #$38
	jeq     L0072
	cmp     #$39
	jeq     L0064
	cmp     #$3A
	jeq     L0069
	cmp     #$3B
	jeq     L005D
	cmp     #$3C
	jeq     L005C
	cmp     #$3D
	jeq     L005D
	jmp     L004A
;
; tmp2 = (uint8_t)(temp_y & 0x0f); 
;
	.dbg	line, "SAUCE/functions/collision.h", 265
L004E:	lda     _temp_y
	and     #$0F
	sta     _tmp2
;
; tmp8 = tmp2 & 0x07;  
;
	.dbg	line, "SAUCE/functions/collision.h", 266
	and     #$07
	sta     _tmp8
;
; if (tmp2 < 0x08 && ((uint8_t)(temp_x & 0x0f) < 0x08)) {
;
	.dbg	line, "SAUCE/functions/collision.h", 267
	lda     _tmp2
	cmp     #$08
	jcs     L004A
	lda     _temp_x
	and     #$0F
	cmp     #$08
	jcs     L004A
;
; return 1;
;
	.dbg	line, "SAUCE/functions/collision.h", 268
	lda     #$01
	rts
;
; tmp2 = (uint8_t)(temp_y & 0x0f); 
;
	.dbg	line, "SAUCE/functions/collision.h", 272
L0051:	lda     _temp_y
	and     #$0F
	sta     _tmp2
;
; tmp8 = tmp2 & 0x07;  
;
	.dbg	line, "SAUCE/functions/collision.h", 273
	and     #$07
	sta     _tmp8
;
; if (tmp2 < 0x08 && ((uint8_t)(temp_x & 0x0f) >= 0x08)) {
;
	.dbg	line, "SAUCE/functions/collision.h", 274
	lda     _tmp2
	cmp     #$08
	jcs     L004A
	lda     _temp_x
	and     #$0F
	cmp     #$08
	jcc     L004A
;
; return 1;
;
	.dbg	line, "SAUCE/functions/collision.h", 275
	lda     #$01
	rts
;
; tmp2 = (uint8_t)(temp_y & 0x0f); 
;
	.dbg	line, "SAUCE/functions/collision.h", 280
L0054:	lda     _temp_y
	and     #$0F
	sta     _tmp2
;
; tmp8 = tmp2 & 0x07;  
;
	.dbg	line, "SAUCE/functions/collision.h", 281
	and     #$07
	sta     _tmp8
;
; if (tmp2 >= 0x08 && ((uint8_t)(temp_x & 0x0f) < 0x08)) {
;
	.dbg	line, "SAUCE/functions/collision.h", 282
	lda     _tmp2
	cmp     #$08
	jcc     L004A
	lda     _temp_x
	and     #$0F
	cmp     #$08
	jcs     L004A
;
; return 1;
;
	.dbg	line, "SAUCE/functions/collision.h", 283
	lda     #$01
	rts
;
; tmp2 = (uint8_t)(temp_y & 0x0f); 
;
	.dbg	line, "SAUCE/functions/collision.h", 288
L0058:	lda     _temp_y
	and     #$0F
	sta     _tmp2
;
; tmp8 = tmp2 & 0x07;  
;
	.dbg	line, "SAUCE/functions/collision.h", 289
	and     #$07
	sta     _tmp8
;
; if (tmp2 >= 0x08 && ((uint8_t)(temp_x & 0x0f) >= 0x08)) {
;
	.dbg	line, "SAUCE/functions/collision.h", 290
	lda     _tmp2
	cmp     #$08
	jcc     L004A
	lda     _temp_x
	and     #$0F
	cmp     #$08
	jcc     L004A
;
; return 1;
;
	.dbg	line, "SAUCE/functions/collision.h", 291
	lda     #$01
	rts
;
; tmp2 = (uint8_t)(temp_y & 0x0f);
;
	.dbg	line, "SAUCE/functions/collision.h", 299
L005C:	lda     _temp_y
	and     #$0F
	sta     _tmp2
;
; tmp8 = tmp2 & 0x07;  
;
	.dbg	line, "SAUCE/functions/collision.h", 300
	and     #$07
	sta     _tmp8
;
; if (tmp8 != tmp2) {
;
	.dbg	line, "SAUCE/functions/collision.h", 302
	cmp     _tmp2
	jeq     L004A
;
; return 1;
;
	.dbg	line, "SAUCE/functions/collision.h", 303
	lda     #$01
	rts
;
; tmp2 = (uint8_t)(temp_y & 0x0f);
;
	.dbg	line, "SAUCE/functions/collision.h", 310
L005D:	lda     _temp_y
	and     #$0F
	sta     _tmp2
;
; tmp8 = tmp2 & 0x07;  
;
	.dbg	line, "SAUCE/functions/collision.h", 311
	and     #$07
	sta     _tmp8
;
; if (tmp8 == tmp2) {
;
	.dbg	line, "SAUCE/functions/collision.h", 313
	cmp     _tmp2
	jne     L004A
;
; return 1;
;
	.dbg	line, "SAUCE/functions/collision.h", 314
	lda     #$01
	rts
;
; tmp8 = (uint8_t)(temp_y & 0x0f) & 0x0f;  
;
	.dbg	line, "SAUCE/functions/collision.h", 318
L005E:	lda     _temp_y
	and     #$0F
	and     #$0F
	sta     _tmp8
;
; if ((uint8_t)(temp_x & 0x0f) < 0x08) {
;
	.dbg	line, "SAUCE/functions/collision.h", 319
	lda     _temp_x
	and     #$0F
	cmp     #$08
	jcs     L004A
;
; return 1;
;
	.dbg	line, "SAUCE/functions/collision.h", 320
	lda     #$01
	rts
;
; tmp8 = (uint8_t)(temp_y & 0x0f) & 0x0f;  
;
	.dbg	line, "SAUCE/functions/collision.h", 324
L005F:	lda     _temp_y
	and     #$0F
	and     #$0F
	sta     _tmp8
;
; if ((uint8_t)(temp_x & 0x0f) >= 0x08) {
;
	.dbg	line, "SAUCE/functions/collision.h", 325
	lda     _temp_x
	and     #$0F
	cmp     #$08
	txa
	bcs     L0077
;
; }
;
	.dbg	line, "SAUCE/functions/collision.h", 389
	rts
;
; return 1;
;
	.dbg	line, "SAUCE/functions/collision.h", 326
L0077:	lda     #$01
	rts
;
; tmp2 = (uint8_t)(temp_y & 0x0f); 
;
	.dbg	line, "SAUCE/functions/collision.h", 330
L0060:	lda     _temp_y
	and     #$0F
	sta     _tmp2
;
; tmp8 = tmp2 & 0x07;  
;
	.dbg	line, "SAUCE/functions/collision.h", 331
	and     #$07
	sta     _tmp8
;
; if ((uint8_t)(temp_x & 0x0f) < 0x08) {
;
	.dbg	line, "SAUCE/functions/collision.h", 332
	lda     _temp_x
	and     #$0F
	cmp     #$08
	bcs     L0061
;
; if (tmp2 < 0x08) return 1;
;
	.dbg	line, "SAUCE/functions/collision.h", 333
	lda     _tmp2
	cmp     #$08
	jcs     L004A
	lda     #$01
	rts
;
; if (tmp2 >= 0x08) return 1;
;
	.dbg	line, "SAUCE/functions/collision.h", 335
L0061:	lda     _tmp2
	cmp     #$08
	txa
	bcs     L0078
;
; }
;
	.dbg	line, "SAUCE/functions/collision.h", 389
	rts
;
; if (tmp2 >= 0x08) return 1;
;
	.dbg	line, "SAUCE/functions/collision.h", 335
L0078:	lda     #$01
	rts
;
; tmp2 = (uint8_t)(temp_y & 0x0f); 
;
	.dbg	line, "SAUCE/functions/collision.h", 339
L0062:	lda     _temp_y
	and     #$0F
	sta     _tmp2
;
; tmp8 = tmp2 & 0x07;  
;
	.dbg	line, "SAUCE/functions/collision.h", 340
	and     #$07
	sta     _tmp8
;
; if ((uint8_t)(temp_x & 0x0f) < 0x08) {
;
	.dbg	line, "SAUCE/functions/collision.h", 341
	lda     _temp_x
	and     #$0F
	cmp     #$08
	bcs     L0063
;
; if (tmp2 >= 0x08) return 1;
;
	.dbg	line, "SAUCE/functions/collision.h", 342
	lda     _tmp2
	cmp     #$08
	jcc     L004A
	lda     #$01
	rts
;
; if (tmp2 < 0x08) return 1;
;
	.dbg	line, "SAUCE/functions/collision.h", 344
L0063:	lda     _tmp2
	cmp     #$08
	jcs     L004A
	lda     #$01
	rts
;
; tmp2 = (uint8_t)(temp_y & 0x0f); 
;
	.dbg	line, "SAUCE/functions/collision.h", 348
L0064:	lda     _temp_y
	and     #$0F
	sta     _tmp2
;
; tmp4 = (uint8_t)(temp_x & 0x0f);  
;
	.dbg	line, "SAUCE/functions/collision.h", 349
	lda     _temp_x
	and     #$0F
	sta     _tmp4
;
; tmp8 = tmp2 & 0x07;  
;
	.dbg	line, "SAUCE/functions/collision.h", 350
	lda     _tmp2
	and     #$07
	sta     _tmp8
;
; if (tmp2 >= 0x08 && tmp4 < 0x08) {
;
	.dbg	line, "SAUCE/functions/collision.h", 352
	lda     _tmp2
	cmp     #$08
	bcc     L0068
	lda     _tmp4
	cmp     #$08
	jcc     L004A
;
; return 1;
;
	.dbg	line, "SAUCE/functions/collision.h", 355
L0068:	lda     #$01
	rts
;
; tmp2 = (uint8_t)(temp_y & 0x0f); 
;
	.dbg	line, "SAUCE/functions/collision.h", 358
L0069:	lda     _temp_y
	and     #$0F
	sta     _tmp2
;
; tmp4 = (uint8_t)(temp_x & 0x0f);  
;
	.dbg	line, "SAUCE/functions/collision.h", 359
	lda     _temp_x
	and     #$0F
	sta     _tmp4
;
; tmp8 = tmp2 & 0x07;  
;
	.dbg	line, "SAUCE/functions/collision.h", 360
	lda     _tmp2
	and     #$07
	sta     _tmp8
;
; if (tmp2 >= 0x08 && tmp4 >= 0x08) {
;
	.dbg	line, "SAUCE/functions/collision.h", 362
	lda     _tmp2
	cmp     #$08
	bcc     L006D
	lda     _tmp4
	cmp     #$08
	bcs     L004A
;
; return 1;
;
	.dbg	line, "SAUCE/functions/collision.h", 365
L006D:	lda     #$01
	rts
;
; tmp2 = (uint8_t)(temp_y & 0x0f); 
;
	.dbg	line, "SAUCE/functions/collision.h", 368
L006E:	lda     _temp_y
	and     #$0F
	sta     _tmp2
;
; tmp4 = (uint8_t)(temp_x & 0x0f);  
;
	.dbg	line, "SAUCE/functions/collision.h", 369
	lda     _temp_x
	and     #$0F
	sta     _tmp4
;
; tmp8 = tmp2 & 0x07;  
;
	.dbg	line, "SAUCE/functions/collision.h", 370
	lda     _tmp2
	and     #$07
	sta     _tmp8
;
; if (tmp2 < 0x08 && tmp4 < 0x08) {
;
	.dbg	line, "SAUCE/functions/collision.h", 372
	lda     _tmp2
	cmp     #$08
	bcs     L0071
	lda     _tmp4
	cmp     #$08
	bcc     L004A
;
; return 1;
;
	.dbg	line, "SAUCE/functions/collision.h", 375
L0071:	lda     #$01
	rts
;
; tmp2 = (uint8_t)(temp_y & 0x0f); 
;
	.dbg	line, "SAUCE/functions/collision.h", 378
L0072:	lda     _temp_y
	and     #$0F
	sta     _tmp2
;
; tmp4 = (uint8_t)(temp_x & 0x0f);  
;
	.dbg	line, "SAUCE/functions/collision.h", 379
	lda     _temp_x
	and     #$0F
	sta     _tmp4
;
; tmp8 = tmp2 & 0x07;  
;
	.dbg	line, "SAUCE/functions/collision.h", 380
	lda     _tmp2
	and     #$07
	sta     _tmp8
;
; if (tmp2 < 0x08 && tmp4 >= 0x08) {
;
	.dbg	line, "SAUCE/functions/collision.h", 382
	lda     _tmp2
	cmp     #$08
	bcs     L0075
	lda     _tmp4
	cmp     #$08
	bcs     L004A
;
; return 1;
;
	.dbg	line, "SAUCE/functions/collision.h", 385
L0075:	lda     #$01
	rts
;
; return 0;
;
	.dbg	line, "SAUCE/functions/collision.h", 388
L004A:	txa
;
; }
;
	.dbg	line, "SAUCE/functions/collision.h", 389
	rts

	.dbg	line
.endproc

; ---------------------------------------------------------------
; char __near__ bg_coll_slope (void)
; ---------------------------------------------------------------

.segment	"XCD_BANK_01"

.proc	_bg_coll_slope: near

	.dbg	func, "bg_coll_slope", "00", static, "_bg_coll_slope"

.segment	"XCD_BANK_01"

;
; tmp8 = (temp_y) & 0x0f;
;
	.dbg	line, "SAUCE/functions/collision.h", 519
	lda     _temp_y
	and     #$0F
	sta     _tmp8
;
; do_if_not_in_range(collision, COL_SLOPE_RD45, COL_SLOPE_LU66_BOT, {return 0;});
;
	.dbg	line, "SAUCE/functions/collision.h", 521
	lda     _collision
	sec
	sbc     #$0B
	sbc     #$1E-$0B+1
	bcc     L004E
	ldx     #$00
	jmp     L004A
;
; goto *jumpTable[collision];
;
	.dbg	line, "SAUCE/functions/collision.h", 522
L004E:	lda     _collision
	asl     a
	tay
	lda     M0001,y
	ldx     M0001+1,y
	jmp     callax
;
; return 0;
;
	.dbg	line, "SAUCE/functions/collision.h", 525
L0002:	ldx     #$00
	jmp     L004A
;
; if ((gamemode == GAMEMODE_WAVE || gamemode == GAMEMODE_SNAKE) && !currplayer_mini) {
;
	.dbg	line, "SAUCE/functions/collision.h", 530
L000E:	lda     _gamemode
	cmp     #$06
	beq     L004F
	cmp     #$0A
	bne     L0053
L004F:	lda     _currplayer_mini
	bne     L0053
;
; return 0;
;
	.dbg	line, "SAUCE/functions/collision.h", 531
	tax
	rts
;
; tmp7 = (temp_x & 0x0f); // = 0x0F - (temp_x & 0x0F)
;
	.dbg	line, "SAUCE/functions/collision.h", 534
L0053:	lda     _temp_x
	and     #$0F
	sta     _tmp7
;
; tmp4 = (temp_y & 0x0f) ^ 0x0f;
;
	.dbg	line, "SAUCE/functions/collision.h", 535
	lda     _temp_y
	and     #$0F
	eor     #$0F
	sta     _tmp4
;
; currplayer_slope_type = SLOPE_45DEG_DOWN_UD;
;
	.dbg	line, "SAUCE/functions/collision.h", 537
	lda     #$09
;
; goto col_end;
;
	.dbg	line, "SAUCE/functions/collision.h", 538
	jmp     L004B
;
; tmp7 = (temp_x & 0x0f); // = 0x0f - (0x10 - (temp_x & 0x0f))
;
	.dbg	line, "SAUCE/functions/collision.h", 541
L0004:	lda     _temp_x
	and     #$0F
	sta     _tmp7
;
; tmp4 = (temp_y & 0x0f);
;
	.dbg	line, "SAUCE/functions/collision.h", 542
	lda     _temp_y
	and     #$0F
	sta     _tmp4
;
; currplayer_slope_type = SLOPE_45DEG_DOWN;
;
	.dbg	line, "SAUCE/functions/collision.h", 544
	lda     #$01
;
; goto col_end;
;
	.dbg	line, "SAUCE/functions/collision.h", 545
	jmp     L004B
;
; tmp7 = (temp_x & 0x0f) ^ 0x0f; // = 0x0F - (temp_x & 0x0F)
;
	.dbg	line, "SAUCE/functions/collision.h", 548
L000D:	lda     _temp_x
	and     #$0F
	eor     #$0F
	sta     _tmp7
;
; tmp4 = (temp_y & 0x0f) ^ 0x0f;
;
	.dbg	line, "SAUCE/functions/collision.h", 549
	lda     _temp_y
	and     #$0F
	eor     #$0F
	sta     _tmp4
;
; currplayer_slope_type = SLOPE_45DEG_UP_UD;
;
	.dbg	line, "SAUCE/functions/collision.h", 551
	lda     #$0D
;
; goto col_end;
;
	.dbg	line, "SAUCE/functions/collision.h", 552
	jmp     L004B
;
; tmp7 = (temp_x & 0x0f) ^ 0x0f; // = 0x0F - (temp_x & 0x0F)
;
	.dbg	line, "SAUCE/functions/collision.h", 555
L0003:	lda     _temp_x
	and     #$0F
	eor     #$0F
	sta     _tmp7
;
; tmp4 = temp_y & 0x0f;
;
	.dbg	line, "SAUCE/functions/collision.h", 556
	lda     _temp_y
	and     #$0F
	sta     _tmp4
;
; currplayer_slope_type = SLOPE_45DEG_UP;
;
	.dbg	line, "SAUCE/functions/collision.h", 558
	lda     #$05
;
; goto col_end;
;
	.dbg	line, "SAUCE/functions/collision.h", 559
	jmp     L004B
;
; tmp7 = ((temp_x >> 1) & 0x07) ^ 0x0f; // = 0x0F - (temp_x & 0x0F)
;
	.dbg	line, "SAUCE/functions/collision.h", 564
L0010:	lda     _temp_x
	lsr     a
	and     #$07
	eor     #$0F
	sta     _tmp7
;
; tmp4 = (temp_y & 0x0f) ^ 0x0f;
;
	.dbg	line, "SAUCE/functions/collision.h", 565
	lda     _temp_y
	and     #$0F
	eor     #$0F
	sta     _tmp4
;
; currplayer_slope_type = SLOPE_22DEG_UP_UD;
;
	.dbg	line, "SAUCE/functions/collision.h", 567
	lda     #$0E
;
; goto col_end;
;
	.dbg	line, "SAUCE/functions/collision.h", 568
	jmp     L004B
;
; tmp7 = (((temp_x >> 1) | 0x8) & 0x0f) ^ 0x0f; // = 0x0F - (temp_x & 0x0F)
;
	.dbg	line, "SAUCE/functions/collision.h", 571
L000F:	lda     _temp_x
	lsr     a
	ora     #$08
	and     #$0F
	eor     #$0F
	sta     _tmp7
;
; tmp4 = (temp_y & 0x0f) ^ 0x0f;
;
	.dbg	line, "SAUCE/functions/collision.h", 572
	lda     _temp_y
	and     #$0F
	eor     #$0F
	sta     _tmp4
;
; currplayer_slope_type = SLOPE_22DEG_UP_UD;
;
	.dbg	line, "SAUCE/functions/collision.h", 574
	lda     #$0E
;
; goto col_end;
;
	.dbg	line, "SAUCE/functions/collision.h", 575
	jmp     L004B
;
; tmp7 = ((temp_x >> 1) & 0x07) ^ 0x0f; // = 0x0F - (temp_x & 0x0F)
;
	.dbg	line, "SAUCE/functions/collision.h", 578
L0005:	lda     _temp_x
	lsr     a
	and     #$07
	eor     #$0F
	sta     _tmp7
;
; tmp4 = (temp_y & 0x0f);
;
	.dbg	line, "SAUCE/functions/collision.h", 579
	lda     _temp_y
	and     #$0F
	sta     _tmp4
;
; currplayer_slope_type = SLOPE_22DEG_UP;
;
	.dbg	line, "SAUCE/functions/collision.h", 581
	lda     #$06
;
; goto col_end; 
;
	.dbg	line, "SAUCE/functions/collision.h", 582
	jmp     L004B
;
; tmp7 = (((temp_x >> 1) | 0x8) & 0x0f) ^ 0x0f; // = 0x0F - (temp_x & 0x0F)
;
	.dbg	line, "SAUCE/functions/collision.h", 585
L0007:	lda     _temp_x
	lsr     a
	ora     #$08
	and     #$0F
	eor     #$0F
	sta     _tmp7
;
; tmp4 = (temp_y & 0x0f);
;
	.dbg	line, "SAUCE/functions/collision.h", 586
	lda     _temp_y
	and     #$0F
	sta     _tmp4
;
; currplayer_slope_type = SLOPE_22DEG_UP;
;
	.dbg	line, "SAUCE/functions/collision.h", 588
	lda     #$06
;
; goto col_end;
;
	.dbg	line, "SAUCE/functions/collision.h", 589
	jmp     L004B
;
; tmp7 = ((temp_x >> 1) & 0x07); // = 0x0F - (temp_x & 0x0F)
;
	.dbg	line, "SAUCE/functions/collision.h", 592
L0012:	lda     _temp_x
	lsr     a
	and     #$07
	sta     _tmp7
;
; tmp4 = (temp_y & 0x0f) ^ 0x0f;
;
	.dbg	line, "SAUCE/functions/collision.h", 593
	lda     _temp_y
	and     #$0F
	eor     #$0F
	sta     _tmp4
;
; currplayer_slope_type = SLOPE_22DEG_DOWN_UD;
;
	.dbg	line, "SAUCE/functions/collision.h", 595
	lda     #$0A
;
; goto col_end;
;
	.dbg	line, "SAUCE/functions/collision.h", 596
	jmp     L004B
;
; tmp7 = (((temp_x >> 1) | 0x8) & 0x0f); // = 0x0F - (temp_x & 0x0F)
;
	.dbg	line, "SAUCE/functions/collision.h", 599
L0011:	lda     _temp_x
	lsr     a
	ora     #$08
	and     #$0F
	sta     _tmp7
;
; tmp4 = (temp_y & 0x0f) ^ 0x0f;
;
	.dbg	line, "SAUCE/functions/collision.h", 600
	lda     _temp_y
	and     #$0F
	eor     #$0F
	sta     _tmp4
;
; currplayer_slope_type = SLOPE_22DEG_DOWN_UD;
;
	.dbg	line, "SAUCE/functions/collision.h", 602
	lda     #$0A
;
; goto col_end;
;
	.dbg	line, "SAUCE/functions/collision.h", 603
	jmp     L004B
;
; tmp7 = ((temp_x >> 1) & 0x07); // = 0x0F - (temp_x & 0x0F)
;
	.dbg	line, "SAUCE/functions/collision.h", 606
L0006:	lda     _temp_x
	lsr     a
	and     #$07
	sta     _tmp7
;
; tmp4 = (temp_y & 0x0f);
;
	.dbg	line, "SAUCE/functions/collision.h", 607
	lda     _temp_y
	and     #$0F
	sta     _tmp4
;
; currplayer_slope_type = SLOPE_22DEG_DOWN;
;
	.dbg	line, "SAUCE/functions/collision.h", 609
	lda     #$02
;
; goto col_end; 
;
	.dbg	line, "SAUCE/functions/collision.h", 610
	jmp     L004B
;
; tmp7 = (((temp_x >> 1) | 0x8) & 0x0f); // = 0x0F - (temp_x & 0x0F)
;
	.dbg	line, "SAUCE/functions/collision.h", 613
L0008:	lda     _temp_x
	lsr     a
	ora     #$08
	and     #$0F
	sta     _tmp7
;
; tmp4 = (temp_y & 0x0f);
;
	.dbg	line, "SAUCE/functions/collision.h", 614
	lda     _temp_y
	and     #$0F
	sta     _tmp4
;
; currplayer_slope_type = SLOPE_22DEG_DOWN;
;
	.dbg	line, "SAUCE/functions/collision.h", 616
	lda     #$02
;
; goto col_end;
;
	.dbg	line, "SAUCE/functions/collision.h", 617
	jmp     L004B
;
; if ((uint8_t)(temp_x & 0x0f) < 0x08) return 0;
;
	.dbg	line, "SAUCE/functions/collision.h", 622
L0009:	lda     _temp_x
	and     #$0F
	cmp     #$08
	bcs     L0054
	ldx     #$00
	jmp     L004A
;
; tmp7 = (((temp_x & 0x07) << 1) & 0x0f) ^ 0x0f; // = 0x0F - (temp_x & 0x0F)
;
	.dbg	line, "SAUCE/functions/collision.h", 623
L0054:	lda     _temp_x
	and     #$07
	asl     a
	and     #$0F
	eor     #$0F
	sta     _tmp7
;
; tmp4 = ((temp_y) & 0x0f);
;
	.dbg	line, "SAUCE/functions/collision.h", 624
	lda     _temp_y
	and     #$0F
	sta     _tmp4
;
; currplayer_slope_type = SLOPE_66DEG_UP;
;
	.dbg	line, "SAUCE/functions/collision.h", 626
	lda     #$07
;
; goto col_end; 
;
	.dbg	line, "SAUCE/functions/collision.h", 627
	jmp     L004B
;
; if ((uint8_t)(temp_x & 0x0f) >= 0x08) return 1;
;
	.dbg	line, "SAUCE/functions/collision.h", 630
L000B:	lda     _temp_x
	and     #$0F
	cmp     #$08
	bcc     L0055
	ldx     #$00
	lda     #$01
	rts
;
; tmp7 = (((temp_x & 0x0f) << 1) & 0x0f) ^ 0x0f; // = 0x0F - (temp_x & 0x0F)
;
	.dbg	line, "SAUCE/functions/collision.h", 631
L0055:	lda     _temp_x
	and     #$0F
	asl     a
	and     #$0F
	eor     #$0F
	sta     _tmp7
;
; tmp4 = ((temp_y) & 0x0f);
;
	.dbg	line, "SAUCE/functions/collision.h", 632
	lda     _temp_y
	and     #$0F
	sta     _tmp4
;
; currplayer_slope_type = SLOPE_66DEG_UP;
;
	.dbg	line, "SAUCE/functions/collision.h", 634
	lda     #$07
;
; goto col_end; 
;
	.dbg	line, "SAUCE/functions/collision.h", 635
	jmp     L004B
;
; if ((uint8_t)(temp_x & 0x0f) >= 0x08) return 0;
;
	.dbg	line, "SAUCE/functions/collision.h", 638
L000A:	lda     _temp_x
	and     #$0F
	cmp     #$08
	lda     #$00
	bcc     L0056
	tax
	rts
;
; tmp7 = (((temp_x & 0x07) << 1) & 0x0f); // = 0x0F - (temp_x & 0x0F)
;
	.dbg	line, "SAUCE/functions/collision.h", 639
L0056:	lda     _temp_x
	and     #$07
	asl     a
	and     #$0F
	sta     _tmp7
;
; tmp4 = ((temp_y) & 0x0f);
;
	.dbg	line, "SAUCE/functions/collision.h", 640
	lda     _temp_y
	and     #$0F
	sta     _tmp4
;
; currplayer_slope_type = SLOPE_66DEG_DOWN;
;
	.dbg	line, "SAUCE/functions/collision.h", 642
	lda     #$03
;
; goto col_end;  
;
	.dbg	line, "SAUCE/functions/collision.h", 643
	jmp     L004B
;
; if ((uint8_t)(temp_x & 0x0f) < 0x08) return 1;
;
	.dbg	line, "SAUCE/functions/collision.h", 646
L000C:	lda     _temp_x
	and     #$0F
	cmp     #$08
	bcs     L0057
	ldx     #$00
	lda     #$01
	rts
;
; tmp7 = (((temp_x & 0x0f) << 1) & 0x0f); // = 0x0F - (temp_x & 0x0F)
;
	.dbg	line, "SAUCE/functions/collision.h", 647
L0057:	lda     _temp_x
	and     #$0F
	asl     a
	and     #$0F
	sta     _tmp7
;
; tmp4 = ((temp_y) & 0x0f);
;
	.dbg	line, "SAUCE/functions/collision.h", 648
	lda     _temp_y
	and     #$0F
	sta     _tmp4
;
; currplayer_slope_type = SLOPE_66DEG_DOWN;
;
	.dbg	line, "SAUCE/functions/collision.h", 650
	lda     #$03
;
; goto col_end; 
;
	.dbg	line, "SAUCE/functions/collision.h", 651
	jmp     L004B
;
; if ((uint8_t)(temp_x & 0x0f) < 0x08) return 0;
;
	.dbg	line, "SAUCE/functions/collision.h", 654
L0013:	lda     _temp_x
	and     #$0F
	cmp     #$08
	bcs     L0058
	ldx     #$00
	jmp     L004A
;
; tmp7 = (((temp_x & 0x07) << 1) & 0x0f) ^ 0x0f; // = 0x0F - (temp_x & 0x0F)
;
	.dbg	line, "SAUCE/functions/collision.h", 655
L0058:	lda     _temp_x
	and     #$07
	asl     a
	and     #$0F
	eor     #$0F
	sta     _tmp7
;
; tmp4 = ((temp_y) & 0x0f) ^ 0x0f;
;
	.dbg	line, "SAUCE/functions/collision.h", 656
	lda     _temp_y
	and     #$0F
	eor     #$0F
	sta     _tmp4
;
; currplayer_slope_type = SLOPE_66DEG_UP_UD;
;
	.dbg	line, "SAUCE/functions/collision.h", 658
	lda     #$0F
;
; goto col_end; 
;
	.dbg	line, "SAUCE/functions/collision.h", 659
	jmp     L004B
;
; if ((uint8_t)(temp_x & 0x0f) >= 0x08) return 1;
;
	.dbg	line, "SAUCE/functions/collision.h", 662
L0015:	lda     _temp_x
	and     #$0F
	cmp     #$08
	bcc     L0059
	ldx     #$00
	lda     #$01
	rts
;
; tmp7 = (((temp_x & 0x0f) << 1) & 0x0f) ^ 0x0f; // = 0x0F - (temp_x & 0x0F)
;
	.dbg	line, "SAUCE/functions/collision.h", 663
L0059:	lda     _temp_x
	and     #$0F
	asl     a
	and     #$0F
	eor     #$0F
	sta     _tmp7
;
; tmp4 = ((temp_y) & 0x0f) ^ 0x0f;
;
	.dbg	line, "SAUCE/functions/collision.h", 664
	lda     _temp_y
	and     #$0F
	eor     #$0F
	sta     _tmp4
;
; currplayer_slope_type = SLOPE_66DEG_UP_UD;
;
	.dbg	line, "SAUCE/functions/collision.h", 666
	lda     #$0F
;
; goto col_end; 
;
	.dbg	line, "SAUCE/functions/collision.h", 667
	jmp     L004B
;
; if ((gamemode == GAMEMODE_WAVE || gamemode == GAMEMODE_SNAKE) && currplayer_mini) {
;
	.dbg	line, "SAUCE/functions/collision.h", 670
L0014:	lda     _gamemode
	cmp     #$06
	beq     L005A
	cmp     #$0A
	bne     L005E
L005A:	lda     _currplayer_mini
	beq     L005E
;
; return 0;
;
	.dbg	line, "SAUCE/functions/collision.h", 671
	ldx     #$00
	jmp     L004A
;
; if ((uint8_t)(temp_x & 0x0f) >= 0x08) return 0;
;
	.dbg	line, "SAUCE/functions/collision.h", 674
L005E:	lda     _temp_x
	and     #$0F
	cmp     #$08
	lda     #$00
	bcc     L005F
	tax
	rts
;
; tmp7 = (((temp_x & 0x07) << 1) & 0x0f); // = 0x0F - (temp_x & 0x0F)
;
	.dbg	line, "SAUCE/functions/collision.h", 675
L005F:	lda     _temp_x
	and     #$07
;
; goto col_end;  
;
	.dbg	line, "SAUCE/functions/collision.h", 679
	jmp     L007A
;
; if ((gamemode == GAMEMODE_WAVE || gamemode == GAMEMODE_SNAKE) && currplayer_mini) {
;
	.dbg	line, "SAUCE/functions/collision.h", 682
L0016:	lda     _gamemode
	cmp     #$06
	beq     L0060
	cmp     #$0A
	bne     L0064
L0060:	lda     _currplayer_mini
	beq     L0064
;
; return 0;
;
	.dbg	line, "SAUCE/functions/collision.h", 683
	ldx     #$00
	jmp     L004A
;
; if ((uint8_t)(temp_x & 0x0f) < 0x08) return 1;
;
	.dbg	line, "SAUCE/functions/collision.h", 685
L0064:	lda     _temp_x
	and     #$0F
	cmp     #$08
	bcs     L0065
	ldx     #$00
	lda     #$01
	rts
;
; tmp7 = (((temp_x & 0x0f) << 1) & 0x0f); // = 0x0F - (temp_x & 0x0F)
;
	.dbg	line, "SAUCE/functions/collision.h", 686
L0065:	lda     _temp_x
	and     #$0F
L007A:	asl     a
	and     #$0F
	sta     _tmp7
;
; tmp4 = ((temp_y) & 0x0f) ^ 0x0f;
;
	.dbg	line, "SAUCE/functions/collision.h", 687
	lda     _temp_y
	and     #$0F
	eor     #$0F
	sta     _tmp4
;
; currplayer_slope_type = SLOPE_66DEG_DOWN_UD;
;
	.dbg	line, "SAUCE/functions/collision.h", 689
	lda     #$0B
L004B:	sta     _currplayer_slope_type
;
; if ((uint8_t)(tmp4) >= tmp7) {
;
	.dbg	line, "SAUCE/functions/collision.h", 692
	ldx     #$00
	lda     _tmp4
	cmp     _tmp7
	bcc     L0039
;
; tmp8 = tmp4 - tmp7;
;
	.dbg	line, "SAUCE/functions/collision.h", 693
	sec
	sbc     _tmp7
	sta     _tmp8
;
; if (gamemode == GAMEMODE_CUBE || gamemode == GAMEMODE_ROBOT || gamemode == GAMEMODE_NINJA) {
;
	.dbg	line, "SAUCE/functions/collision.h", 695
	lda     _gamemode
	beq     L0066
	cmp     #$04
	beq     L0066
	cmp     #$08
	beq     L0066
	txa
	jmp     L0069
;
; if (controllingplayer->hold & (PAD_A | PAD_UP)) {
;
	.dbg	line, "SAUCE/functions/collision.h", 696
L0066:	lda     (_controllingplayer,x)
	and     #$88
	beq     L006B
;
; make_cube_jump_higher = 1;
;
	.dbg	line, "SAUCE/functions/collision.h", 697
	lda     #$01
	sta     _make_cube_jump_higher
;
; } else {
;
	.dbg	line, "SAUCE/functions/collision.h", 699
	rts
;
; tmp4 = 0;
;
	.dbg	line, "SAUCE/functions/collision.h", 704
L0069:	sta     _tmp4
;
; if (currplayer_slope_type & SLOPE_RISING) {
;
	.dbg	line, "SAUCE/functions/collision.h", 705
	lda     _currplayer_slope_type
	and     #$04
	beq     L006A
;
; tmp4 |= 0b100;
;
	.dbg	line, "SAUCE/functions/collision.h", 706
	lda     _tmp4
	ora     #$04
	sta     _tmp4
;
; if (currplayer_slope_type & SLOPE_UPSIDEDOWN) {
;
	.dbg	line, "SAUCE/functions/collision.h", 708
L006A:	lda     _currplayer_slope_type
	and     #$08
	beq     L0041
;
; tmp4 |= 0b010;
;
	.dbg	line, "SAUCE/functions/collision.h", 709
	lda     _tmp4
	ora     #$02
	sta     _tmp4
;
; if (currplayer_gravity) {
;
	.dbg	line, "SAUCE/functions/collision.h", 711
L0041:	lda     _currplayer_gravity
	beq     L0042
;
; tmp4 |= 0b001;
;
	.dbg	line, "SAUCE/functions/collision.h", 712
	lda     _tmp4
	ora     #$01
	sta     _tmp4
;
; if (a_check_lookup[tmp4]) {
;
	.dbg	line, "SAUCE/functions/collision.h", 715
L0042:	ldy     _tmp4
	lda     _a_check_lookup,y
	beq     L0043
;
; if (controllingplayer->hold & (PAD_A | PAD_UP)) {
;
	.dbg	line, "SAUCE/functions/collision.h", 716
	lda     (_controllingplayer,x)
	and     #$88
	beq     L006B
;
; } else {
;
	.dbg	line, "SAUCE/functions/collision.h", 719
	jmp     L004D
;
; if (!(controllingplayer->hold & (PAD_A | PAD_UP))) {
;
	.dbg	line, "SAUCE/functions/collision.h", 720
L0043:	lda     (_controllingplayer,x)
	and     #$88
	bne     L006B
;
; unstick();
;
	.dbg	line, "SAUCE/functions/collision.h", 721
L004D:	jsr     _unstick
;
; currplayer_slope_frames = 1; //signal BG_COLL_R to not check stuff
;
	.dbg	line, "SAUCE/functions/collision.h", 725
L006B:	lda     #$01
	sta     _currplayer_slope_frames
;
; currplayer_was_on_slope_counter = 3;
;
	.dbg	line, "SAUCE/functions/collision.h", 726
	lda     #$03
	sta     _currplayer_was_on_slope_counter
;
; return 1;
;
	.dbg	line, "SAUCE/functions/collision.h", 729
	ldx     #$00
	lda     #$01
	rts
;
; } else if (!currplayer_was_on_slope_counter) {
;
	.dbg	line, "SAUCE/functions/collision.h", 730
L0039:	lda     _currplayer_was_on_slope_counter
	bne     L004A
;
; currplayer_slope_type = 0;
;
	.dbg	line, "SAUCE/functions/collision.h", 731
	sta     _currplayer_slope_type
;
; tmp8 = 0;
;
	.dbg	line, "SAUCE/functions/collision.h", 732
	sta     _tmp8
;
; return 0;
;
	.dbg	line, "SAUCE/functions/collision.h", 735
L004A:	txa
;
; }
;
	.dbg	line, "SAUCE/functions/collision.h", 736
	rts

	.dbg	line
.segment	"XCD_BANK_01"

M0001:
	.addr	L0002
	.addr	L0002
	.addr	L0002
	.addr	L0002
	.addr	L0002
	.addr	L0002
	.addr	L0002
	.addr	L0002
	.addr	L0002
	.addr	L0002
	.addr	L0002
	.addr	L0003
	.addr	L0004
	.addr	L0005
	.addr	L0006
	.addr	L0007
	.addr	L0008
	.addr	L0009
	.addr	L000A
	.addr	L000B
	.addr	L000C
	.addr	L000D
	.addr	L000E
	.addr	L000F
	.addr	L0010
	.addr	L0011
	.addr	L0012
	.addr	L0013
	.addr	L0014
	.addr	L0015
	.addr	L0016
M0023:
	.word	$0000
M0025:
	.word	$0000
M0027:
	.word	$0000
M0029:
	.word	$0000
M002B:
	.word	$0000
M002D:
	.word	$0000
M002F:
	.word	$0000
M0031:
	.word	$0000
M0033:
	.word	$0000
M0035:
	.word	$0000
M0037:
	.word	$0000
M0039:
	.word	$0000
M003B:
	.word	$0000
M003D:
	.word	$0000
M003F:
	.word	$0000
M0041:
	.word	$0000
M0043:
	.word	$0000
M0045:
	.word	$0000
M0047:
	.word	$0000

.endproc

; ---------------------------------------------------------------
; char __near__ bg_side_coll_common (void)
; ---------------------------------------------------------------

.segment	"XCD_BANK_01"

.proc	_bg_side_coll_common: near

	.dbg	func, "bg_side_coll_common", "00", static, "_bg_side_coll_common"

.segment	"XCD_BANK_01"

;
; tmp1 = Generic.y + (currplayer_mini ? (byte(0x10 - Generic.height) >> 1) : 0) + (Generic.height >> 1);
;
	.dbg	line, "SAUCE/functions/collision.h", 399
	lda     _currplayer_mini
	beq     L0003
	lda     #$10
	sec
	sbc     _Generic+3
	lsr     a
L0003:	clc
	adc     _Generic+1
	sta     ptr1
	lda     _Generic+3
	lsr     a
	clc
	adc     ptr1
	ldx     #$00
	sta     _tmp1
;
; if (currplayer_mini && (gamemode == GAMEMODE_CUBE || gamemode == GAMEMODE_ROBOT || gamemode == GAMEMODE_NINJA)) {
;
	.dbg	line, "SAUCE/functions/collision.h", 401
	lda     _currplayer_mini
	beq     L002D
	lda     _gamemode
	beq     L0029
	cmp     #$04
	beq     L0029
	cmp     #$08
	bne     L002D
;
; tmp1 += (currplayer_gravity ? 3 : -2);
;
	.dbg	line, "SAUCE/functions/collision.h", 402
L0029:	lda     _currplayer_gravity
	beq     L000A
	lda     #$03
	jmp     L002B
L000A:	lda     #$FE
L002B:	clc
	adc     _tmp1
	sta     _tmp1
;
; if (currplayer_was_on_slope_counter | currplayer_slope_frames) { // if we are on a slope, make right_col a little more upwards so it doesn't hit blocks to the side of the slope
;
	.dbg	line, "SAUCE/functions/collision.h", 405
L002D:	lda     _currplayer_slope_frames
	bpl     L000D
	dex
L000D:	ora     _currplayer_was_on_slope_counter
	stx     tmp1
	ora     tmp1
;
; return 0;
;
	.dbg	line, "SAUCE/functions/collision.h", 406
	jne     L000E
;
; storeWordSeparately(add_scroll_y(tmp1, scroll_y), temp_y, temp_room);
;
	.dbg	line, "SAUCE/functions/collision.h", 409
	lda     _tmp1
	sta     sreg+0
	lda     _scroll_y
	ldx     _scroll_y+1
	jsr     __add_scroll_y
	sta     _temp_y
	stx     _temp_room
;
; bg_collision_sub();
;
	.dbg	line, "SAUCE/functions/collision.h", 411
	jsr     _bg_collision_sub
;
; if (collision) {
;
	.dbg	line, "SAUCE/functions/collision.h", 412
	lda     _collision
	beq     L000E
;
; if (gamemode == gamemode == GAMEMODE_WAVE || gamemode == GAMEMODE_SNAKE) {
;
	.dbg	line, "SAUCE/functions/collision.h", 413
	lda     _gamemode
	cmp     _gamemode
	jsr     booleq
	cmp     #$06
	beq     L002E
	lda     _gamemode
	cmp     #$0A
	bne     L000F
L002E:	lda     #$01
;
; if (bg_coll_slope()) {
;
	.dbg	line, "SAUCE/functions/collision.h", 414
	jsr     _bg_coll_slope
	tax
	beq     L0018
;
; if (!dblocked[currplayer]) {
;
	.dbg	line, "SAUCE/functions/collision.h", 415
	ldy     _currplayer
	lda     _dblocked,y
	bne     L0018
;
; idx8_store(cube_data, currplayer, cube_data[currplayer] | 1);
;
	.dbg	line, "SAUCE/functions/collision.h", 416
	ldy     _currplayer
	lda     _cube_data,y
	ora     #$01
	sta     _cube_data,y
;
; } else {
;
	.dbg	line, "SAUCE/functions/collision.h", 419
	jmp     L0018
;
; if (!currplayer_was_on_slope_counter && bg_coll_slope()) {
;
	.dbg	line, "SAUCE/functions/collision.h", 420
L000F:	lda     _currplayer_was_on_slope_counter
	bne     L0018
	jsr     _bg_coll_slope
	tax
	beq     L0018
;
; high_byte(currplayer_y) += (currplayer_slope_type & SLOPE_UPSIDEDOWN ? 2 : -2);
;
	.dbg	line, "SAUCE/functions/collision.h", 421
	lda     _currplayer_slope_type
	and     #$08
	beq     L001C
	lda     #$02
	jmp     L0031
L001C:	lda     #$FE
L0031:	clc
	adc     _currplayer_y+1
	sta     _currplayer_y+1
;
; if (bg_coll_spikes()) return 0;
;
	.dbg	line, "SAUCE/functions/collision.h", 425
L0018:	jsr     _bg_coll_spikes
	tax
	bne     L000E
;
; return bg_coll_sides() || bg_coll_mini_blocks();
;
	.dbg	line, "SAUCE/functions/collision.h", 427
	jsr     _bg_coll_sides
	tax
	bne     L001F
	jsr     _bg_coll_mini_blocks
	tax
	beq     L0032
L001F:	lda     #$01
	ldx     #$00
L0032:	rts
;
; return 0;
;
	.dbg	line, "SAUCE/functions/collision.h", 430
L000E:	ldx     #$00
	txa
;
; }
;
	.dbg	line, "SAUCE/functions/collision.h", 431
	rts

	.dbg	line
.endproc

; ---------------------------------------------------------------
; char __near__ bg_coll_R (void)
; ---------------------------------------------------------------

.segment	"XCD_BANK_01"

.proc	_bg_coll_R: near

	.dbg	func, "bg_coll_R", "00", static, "_bg_coll_R"

.segment	"XCD_BANK_01"

;
; temp_x = Generic.x + low_word(scroll_x) + Generic.width + ((options & platformer || force_platformer) ? 3 : 0); // automatically only the low byte
;
	.dbg	line, "SAUCE/functions/collision.h", 439
	lda     _Generic
	clc
	adc     _scroll_x
	clc
	adc     _Generic+2
	sta     ptr1
	lda     _options
	and     #$04
	bne     L0008
	lda     _force_platformer
	beq     L0005
L0008:	lda     #$03
L0005:	clc
	adc     ptr1
	sta     _temp_x
;
; return bg_side_coll_common();
;
	.dbg	line, "SAUCE/functions/collision.h", 440
	jmp     _bg_side_coll_common

	.dbg	line
.endproc

; ---------------------------------------------------------------
; char __near__ bg_coll_L (void)
; ---------------------------------------------------------------

.segment	"XCD_BANK_01"

.proc	_bg_coll_L: near

	.dbg	func, "bg_coll_L", "00", static, "_bg_coll_L"

.segment	"XCD_BANK_01"

;
; temp_x = Generic.x + low_word(scroll_x) - ((options & platformer || force_platformer) ? 3 : 0); // automatically only the low byte
;
	.dbg	line, "SAUCE/functions/collision.h", 449
	lda     _Generic
	clc
	adc     _scroll_x
	pha
	lda     #$00
	adc     _scroll_x+1
	tax
	pla
	jsr     pushax
	lda     _options
	and     #$04
	bne     L0006
	lda     _force_platformer
	bne     L0006
	jmp     L0005
L0006:	lda     #$03
L0005:	jsr     tossuba0
	sta     _temp_x
;
; return bg_side_coll_common();
;
	.dbg	line, "SAUCE/functions/collision.h", 450
	jmp     _bg_side_coll_common

	.dbg	line
.endproc

; ---------------------------------------------------------------
; char __near__ bg_coll_U_D_checks (void)
; ---------------------------------------------------------------

.segment	"XCD_BANK_01"

.proc	_bg_coll_U_D_checks: near

	.dbg	func, "bg_coll_U_D_checks", "00", static, "_bg_coll_U_D_checks"

.segment	"XCD_BANK_01"

;
; switch (collision) {
;
	.dbg	line, "SAUCE/functions/collision.h", 461
	ldx     #$00
	lda     _collision
;
; }
;
	.dbg	line, "SAUCE/functions/collision.h", 476
	cmp     #$03
	beq     L0007
	cmp     #$04
	beq     L0009
	cmp     #$07
	beq     L000D
	cmp     #$09
	beq     L000A
	cmp     #$1F
	bne     L000C
;
; return 1;  
;
	.dbg	line, "SAUCE/functions/collision.h", 463
	lda     #$01
	rts
;
; if (high_byte(currplayer_x) < 0x10) return 0;
;
	.dbg	line, "SAUCE/functions/collision.h", 465
L000D:	lda     _currplayer_x+1
	cmp     #$10
	bcc     L000C
;
; else return 1;
;
	.dbg	line, "SAUCE/functions/collision.h", 466
	lda     #$01
	rts
;
; col_death_top_routine();
;
	.dbg	line, "SAUCE/functions/collision.h", 468
L0007:	jsr     _col_death_top_routine
;
; break;
;
	.dbg	line, "SAUCE/functions/collision.h", 469
	jmp     L0003
;
; col_death_bottom_routine();
;
	.dbg	line, "SAUCE/functions/collision.h", 471
L0009:	jsr     _col_death_bottom_routine
;
; break;
;
	.dbg	line, "SAUCE/functions/collision.h", 472
	jmp     L0003
;
; dblocked[currplayer] = 1;
;
	.dbg	line, "SAUCE/functions/collision.h", 474
L000A:	ldy     _currplayer
	lda     #$01
	sta     _dblocked,y
;
; return 1;
;
	.dbg	line, "SAUCE/functions/collision.h", 475
	rts
;
; return 0;
;
	.dbg	line, "SAUCE/functions/collision.h", 478
L0003:	ldx     #$00
L000C:	txa
;
; }
;
	.dbg	line, "SAUCE/functions/collision.h", 479
	rts

	.dbg	line
.endproc

; ---------------------------------------------------------------
; void __near__ unstick (void)
; ---------------------------------------------------------------

.segment	"XCD_BANK_01"

.proc	_unstick: near

	.dbg	func, "unstick", "00", static, "_unstick"

.segment	"XCD_BANK_01"

;
; tmp8 = 4;
;
	.dbg	line, "SAUCE/functions/collision.h", 481
	lda     #$04
	sta     _tmp8
;
; }
;
	.dbg	line, "SAUCE/functions/collision.h", 482
	rts

	.dbg	line
.endproc

; ---------------------------------------------------------------
; void __near__ clear_slope_vars (void)
; ---------------------------------------------------------------

.segment	"XCD_BANK_01"

.proc	_clear_slope_vars: near

	.dbg	func, "clear_slope_vars", "00", static, "_clear_slope_vars"

.segment	"XCD_BANK_01"

;
; currplayer_was_on_slope_counter = 0;
;
	.dbg	line, "SAUCE/functions/collision.h", 485
	lda     #$00
	sta     _currplayer_was_on_slope_counter
;
; currplayer_slope_frames = 0;
;
	.dbg	line, "SAUCE/functions/collision.h", 486
	sta     _currplayer_slope_frames
;
; currplayer_slope_type = 0;
;
	.dbg	line, "SAUCE/functions/collision.h", 487
	sta     _currplayer_slope_type
;
; currplayer_last_slope_type = 0;
;
	.dbg	line, "SAUCE/functions/collision.h", 488
	sta     _currplayer_last_slope_type
;
; }
;
	.dbg	line, "SAUCE/functions/collision.h", 489
	rts

	.dbg	line
.endproc

; ---------------------------------------------------------------
; char __near__ bg_coll_return_D (void)
; ---------------------------------------------------------------

.segment	"XCD_BANK_01"

.proc	_bg_coll_return_D: near

	.dbg	func, "bg_coll_return_D", "00", static, "_bg_coll_return_D"

.segment	"XCD_BANK_01"

;
; tmp1 = bg_coll_U_D_checks() || bg_coll_mini_blocks();
;
	.dbg	line, "SAUCE/functions/collision.h", 745
	jsr     _bg_coll_U_D_checks
	tax
	bne     L0002
	jsr     _bg_coll_mini_blocks
	tax
	beq     L0004
L0002:	lda     #$01
L0004:	sta     _tmp1
;
; eject_D = tmp8;
;
	.dbg	line, "SAUCE/functions/collision.h", 746
	lda     _tmp8
	sta     _eject_D
;
; return tmp1;
;
	.dbg	line, "SAUCE/functions/collision.h", 747
	ldx     #$00
	lda     _tmp1
;
; }
;
	.dbg	line, "SAUCE/functions/collision.h", 748
	rts

	.dbg	line
.endproc

; ---------------------------------------------------------------
; char __near__ bg_coll_return_U (void)
; ---------------------------------------------------------------

.segment	"XCD_BANK_01"

.proc	_bg_coll_return_U: near

	.dbg	func, "bg_coll_return_U", "00", static, "_bg_coll_return_U"

.segment	"XCD_BANK_01"

;
; tmp3 = bg_coll_U_D_checks();
;
	.dbg	line, "SAUCE/functions/collision.h", 757
	jsr     _bg_coll_U_D_checks
	sta     _tmp3
;
; tmp1 = bg_coll_mini_blocks();
;
	.dbg	line, "SAUCE/functions/collision.h", 758
	jsr     _bg_coll_mini_blocks
	sta     _tmp1
;
; eject_U = tmp8 | (tmp3 ? 0xf0 : 0xf8);
;
	.dbg	line, "SAUCE/functions/collision.h", 759
	ldx     #$00
	lda     _tmp3
	beq     L0004
	lda     #$F0
	jmp     L0003
L0004:	lda     #$F8
L0003:	ora     _tmp8
	sta     _eject_U
;
; return tmp1 | tmp3;
;
	.dbg	line, "SAUCE/functions/collision.h", 760
	lda     _tmp1
	ora     _tmp3
;
; }
;
	.dbg	line, "SAUCE/functions/collision.h", 761
	rts

	.dbg	line
.endproc

; ---------------------------------------------------------------
; char __near__ bg_coll_return_slope_D (void)
; ---------------------------------------------------------------

.segment	"XCD_BANK_01"

.proc	_bg_coll_return_slope_D: near

	.dbg	func, "bg_coll_return_slope_D", "00", static, "_bg_coll_return_slope_D"

.segment	"XCD_BANK_01"

;
; tmp1 = bg_coll_slope();
;
	.dbg	line, "SAUCE/functions/collision.h", 770
	jsr     _bg_coll_slope
	sta     _tmp1
;
; if (!tmp2) {
;
	.dbg	line, "SAUCE/functions/collision.h", 772
	lda     _tmp2
	bne     L0002
;
; if (currplayer_slope_type & SLOPE_RISING) {
;
	.dbg	line, "SAUCE/functions/collision.h", 774
	lda     _currplayer_slope_type
	ldx     #$00
	and     #$04
	beq     L0005
;
; currplayer_slope_type = currplayer_last_slope_type;
;
	.dbg	line, "SAUCE/functions/collision.h", 775
	lda     _currplayer_last_slope_type
	sta     _currplayer_slope_type
;
; return 0;
;
	.dbg	line, "SAUCE/functions/collision.h", 776
	txa
	rts
;
; if (!(currplayer_slope_type & SLOPE_RISING)) {
;
	.dbg	line, "SAUCE/functions/collision.h", 780
L0002:	lda     _currplayer_slope_type
	ldx     #$00
	and     #$04
	bne     L0005
;
; currplayer_slope_type = currplayer_last_slope_type;
;
	.dbg	line, "SAUCE/functions/collision.h", 781
	lda     _currplayer_last_slope_type
	sta     _currplayer_slope_type
;
; return 0;
;
	.dbg	line, "SAUCE/functions/collision.h", 782
	txa
	rts
;
; if (tmp1) {
;
	.dbg	line, "SAUCE/functions/collision.h", 785
L0005:	lda     _tmp1
	beq     L0018
;
; if ((currplayer_last_slope_type & SLOPE_RISING) && !(currplayer_slope_type & SLOPE_RISING)) {
;
	.dbg	line, "SAUCE/functions/collision.h", 786
	lda     _currplayer_last_slope_type
	and     #$04
	beq     L0016
	lda     _currplayer_slope_type
	and     #$04
	bne     L0016
;
; if (currplayer_last_slope_type != 0 && currplayer_slope_type != 0) {
;
	.dbg	line, "SAUCE/functions/collision.h", 787
	lda     _currplayer_last_slope_type
	beq     L0016
	lda     _currplayer_slope_type
	beq     L0016
;
; currplayer_slope_type = currplayer_last_slope_type;
;
	.dbg	line, "SAUCE/functions/collision.h", 788
	lda     _currplayer_last_slope_type
	sta     _currplayer_slope_type
;
; tmp8 = high_byte(currplayer_vel_x);
;
	.dbg	line, "SAUCE/functions/collision.h", 789
	lda     _currplayer_vel_x+1
	sta     _tmp8
;
; if (currplayer_slope_type != 0) currplayer_last_slope_type = currplayer_slope_type; 
;
	.dbg	line, "SAUCE/functions/collision.h", 792
L0016:	lda     _currplayer_slope_type
	beq     L0017
	sta     _currplayer_last_slope_type
;
; eject_D = tmp8;
;
	.dbg	line, "SAUCE/functions/collision.h", 793
L0017:	lda     _tmp8
	sta     _eject_D
;
; return tmp1;
;
	.dbg	line, "SAUCE/functions/collision.h", 795
L0018:	lda     _tmp1
;
; }
;
	.dbg	line, "SAUCE/functions/collision.h", 796
	rts

	.dbg	line
.endproc

; ---------------------------------------------------------------
; char __near__ bg_coll_return_slope_U (void)
; ---------------------------------------------------------------

.segment	"XCD_BANK_01"

.proc	_bg_coll_return_slope_U: near

	.dbg	func, "bg_coll_return_slope_U", "00", static, "_bg_coll_return_slope_U"

.segment	"XCD_BANK_01"

;
; tmp1 = bg_coll_slope();
;
	.dbg	line, "SAUCE/functions/collision.h", 805
	jsr     _bg_coll_slope
	sta     _tmp1
;
; if (!tmp2) {
;
	.dbg	line, "SAUCE/functions/collision.h", 807
	lda     _tmp2
	bne     L0002
;
; if (currplayer_slope_type & SLOPE_RISING) {
;
	.dbg	line, "SAUCE/functions/collision.h", 809
	lda     _currplayer_slope_type
	ldx     #$00
	and     #$04
	beq     L0005
;
; currplayer_slope_type = currplayer_last_slope_type;
;
	.dbg	line, "SAUCE/functions/collision.h", 810
	lda     _currplayer_last_slope_type
	sta     _currplayer_slope_type
;
; return 0;
;
	.dbg	line, "SAUCE/functions/collision.h", 811
	txa
	rts
;
; if (!(currplayer_slope_type & SLOPE_RISING)) {
;
	.dbg	line, "SAUCE/functions/collision.h", 815
L0002:	lda     _currplayer_slope_type
	ldx     #$00
	and     #$04
	bne     L0005
;
; currplayer_slope_type = currplayer_last_slope_type;
;
	.dbg	line, "SAUCE/functions/collision.h", 816
	lda     _currplayer_last_slope_type
	sta     _currplayer_slope_type
;
; return 0;
;
	.dbg	line, "SAUCE/functions/collision.h", 817
	txa
	rts
;
; if (tmp1) {
;
	.dbg	line, "SAUCE/functions/collision.h", 821
L0005:	lda     _tmp1
	beq     L0018
;
; if ((currplayer_last_slope_type & SLOPE_RISING) && !(currplayer_slope_type & SLOPE_RISING)) {
;
	.dbg	line, "SAUCE/functions/collision.h", 822
	lda     _currplayer_last_slope_type
	and     #$04
	beq     L0016
	lda     _currplayer_slope_type
	and     #$04
	bne     L0016
;
; if (currplayer_last_slope_type != 0 && currplayer_slope_type != 0) {
;
	.dbg	line, "SAUCE/functions/collision.h", 823
	lda     _currplayer_last_slope_type
	beq     L0016
	lda     _currplayer_slope_type
	beq     L0016
;
; currplayer_slope_type = currplayer_last_slope_type;
;
	.dbg	line, "SAUCE/functions/collision.h", 824
	lda     _currplayer_last_slope_type
	sta     _currplayer_slope_type
;
; tmp8 = high_byte(currplayer_vel_x);
;
	.dbg	line, "SAUCE/functions/collision.h", 825
	lda     _currplayer_vel_x+1
	sta     _tmp8
;
; if (currplayer_slope_type != 0) currplayer_last_slope_type = currplayer_slope_type; 
;
	.dbg	line, "SAUCE/functions/collision.h", 828
L0016:	lda     _currplayer_slope_type
	beq     L0017
	sta     _currplayer_last_slope_type
;
; eject_U = -tmp8;
;
	.dbg	line, "SAUCE/functions/collision.h", 829
L0017:	lda     _tmp8
	eor     #$FF
	clc
	adc     #$01
	sta     _eject_U
;
; return tmp1;
;
	.dbg	line, "SAUCE/functions/collision.h", 831
L0018:	lda     _tmp1
;
; }
;
	.dbg	line, "SAUCE/functions/collision.h", 832
	rts

	.dbg	line
.endproc

; ---------------------------------------------------------------
; char __near__ bg_coll_U_spider (void)
; ---------------------------------------------------------------

.segment	"XCD_BANK_01"

.proc	_bg_coll_U_spider: near

	.dbg	func, "bg_coll_U_spider", "00", static, "_bg_coll_U_spider"

.segment	"XCD_BANK_01"

;
; temp_x = LEFT_POS; // automatically only the low byte
;
	.dbg	line, "SAUCE/functions/collision.h", 975
	lda     _tmp7
	sta     _temp_x
;
; ), temp_y, temp_room);
;
	.dbg	line, "SAUCE/functions/collision.h", 980
	lda     _currplayer_mini
	beq     L0003
	lda     #$10
	sec
	sbc     _Generic+3
	lsr     a
L0003:	clc
	adc     _Generic+1
	sta     sreg+0
	lda     _scroll_y
	ldx     _scroll_y+1
	jsr     __add_scroll_y
	sta     _temp_y
	stx     _temp_room
;
; tmp8 = (temp_y) & 0x0f;
;
	.dbg	line, "SAUCE/functions/collision.h", 982
	lda     _temp_y
	and     #$0F
	ldx     #$00
	sta     _tmp8
;
; COLL_CHECK_TOP
;
	.dbg	line, "SAUCE/functions/collision.h", 984
	jsr     _bg_collision_sub
	lda     _collision
	beq     L0005
	jsr     _bg_coll_return_U
	tax
	beq     L000C
	ldy     _currplayer
	lda     _cube_data,y
	and     #$7E
	sta     _cube_data,y
	ldx     #$00
	lda     #$01
	rts
;
; temp_x = RIGHT_POS; // automatically only the low byte
;
	.dbg	line, "SAUCE/functions/collision.h", 986
L0005:	ldx     #$00
L000C:	lda     _tmp9
	sta     _temp_x
;
; COLL_CHECK_TOP
;
	.dbg	line, "SAUCE/functions/collision.h", 988
	jsr     _bg_collision_sub
	lda     _collision
	beq     L0008
	jsr     _bg_coll_return_U
	tax
	beq     L000E
	ldy     _currplayer
	lda     _cube_data,y
	and     #$7E
	sta     _cube_data,y
	ldx     #$00
	lda     #$01
	rts
;
; return 0;
;
	.dbg	line, "SAUCE/functions/collision.h", 990
L0008:	ldx     #$00
	txa
;
; }
;
	.dbg	line, "SAUCE/functions/collision.h", 991
L000E:	rts

	.dbg	line
.endproc

; ---------------------------------------------------------------
; char __near__ bg_coll_D_spider (void)
; ---------------------------------------------------------------

.segment	"XCD_BANK_01"

.proc	_bg_coll_D_spider: near

	.dbg	func, "bg_coll_D_spider", "00", static, "_bg_coll_D_spider"

.segment	"XCD_BANK_01"

;
; temp_x = LEFT_POS; // automatically only the low byte
;
	.dbg	line, "SAUCE/functions/collision.h", 994
	lda     _tmp7
	sta     _temp_x
;
; ), temp_y, temp_room);
;
	.dbg	line, "SAUCE/functions/collision.h", 999
	lda     _Generic+1
	clc
	adc     _Generic+3
	sta     ptr1
	lda     _currplayer_mini
	beq     L0003
	lda     #$10
	sec
	sbc     _Generic+3
	lsr     a
L0003:	clc
	adc     ptr1
	sta     sreg+0
	lda     _scroll_y
	ldx     _scroll_y+1
	jsr     __add_scroll_y
	sta     _temp_y
	stx     _temp_room
;
; tmp8 = (temp_y) & 0x0f;
;
	.dbg	line, "SAUCE/functions/collision.h", 1001
	lda     _temp_y
	and     #$0F
	ldx     #$00
	sta     _tmp8
;
; COLL_CHECK_BOTTOM
;
	.dbg	line, "SAUCE/functions/collision.h", 1003
	jsr     _bg_collision_sub
	lda     _collision
	beq     L0005
	jsr     _bg_coll_return_D
	tax
	beq     L000C
	ldy     _currplayer
	lda     _cube_data,y
	and     #$7E
	sta     _cube_data,y
	ldx     #$00
	lda     #$01
	rts
;
; temp_x = RIGHT_POS; // automatically only the low byte
;
	.dbg	line, "SAUCE/functions/collision.h", 1005
L0005:	ldx     #$00
L000C:	lda     _tmp9
	sta     _temp_x
;
; COLL_CHECK_BOTTOM
;
	.dbg	line, "SAUCE/functions/collision.h", 1007
	jsr     _bg_collision_sub
	lda     _collision
	beq     L0008
	jsr     _bg_coll_return_D
	tax
	beq     L000E
	ldy     _currplayer
	lda     _cube_data,y
	and     #$7E
	sta     _cube_data,y
	ldx     #$00
	lda     #$01
	rts
;
; return 0;
;
	.dbg	line, "SAUCE/functions/collision.h", 1009
L0008:	ldx     #$00
	txa
;
; }
;
	.dbg	line, "SAUCE/functions/collision.h", 1010
L000E:	rts

	.dbg	line
.endproc

; ---------------------------------------------------------------
; void __near__ bg_coll_death (void)
; ---------------------------------------------------------------

.segment	"XCD_BANK_01"

.proc	_bg_coll_death: near

	.dbg	func, "bg_coll_death", "00", static, "_bg_coll_death"

.segment	"XCD_BANK_01"

;
; temp_x = Generic.x + low_word(scroll_x) + (Generic.width >> 1)-1; // automatically only the low byte
;
	.dbg	line, "SAUCE/functions/collision.h", 1024
	lda     _Generic
	clc
	adc     _scroll_x
	sta     ptr1
	lda     _Generic+2
	lsr     a
	clc
	adc     ptr1
	sec
	sbc     #$01
	sta     _temp_x
;
; ), temp_y, temp_room);
;
	.dbg	line, "SAUCE/functions/collision.h", 1030
	lda     _Generic+3
	lsr     a
	clc
	adc     _Generic+1
	sta     ptr1
	lda     _currplayer_mini
	beq     L0004
	lda     #$10
	sec
	sbc     _Generic+3
	lsr     a
L0004:	clc
	adc     ptr1
	sta     sreg+0
	lda     _scroll_y
	ldx     _scroll_y+1
	jsr     __add_scroll_y
	sta     _temp_y
	stx     _temp_room
;
; bg_collision_sub();
;
	.dbg	line, "SAUCE/functions/collision.h", 1032
	jsr     _bg_collision_sub
;
; if (collision) {
;
	.dbg	line, "SAUCE/functions/collision.h", 1034
	lda     _collision
	beq     L000D
;
; if (!dblocked[currplayer] || gamemode != GAMEMODE_WAVE) {
;
	.dbg	line, "SAUCE/functions/collision.h", 1035
	ldy     _currplayer
	lda     _dblocked,y
	beq     L0013
	lda     _gamemode
	cmp     #$06
	beq     L0006
;
; if (bg_coll_U_D_checks() | bg_coll_mini_blocks() | bg_coll_spikes() | bg_coll_slope()) {
;
	.dbg	line, "SAUCE/functions/collision.h", 1036
L0013:	jsr     _bg_coll_U_D_checks
	jsr     pushax
	jsr     _bg_coll_mini_blocks
	jsr     tosorax
;
; else {
;
	.dbg	line, "SAUCE/functions/collision.h", 1040
	jmp     L001F
;
; if (bg_coll_mini_blocks() | bg_coll_spikes() | bg_coll_slope()) {
;
	.dbg	line, "SAUCE/functions/collision.h", 1041
L0006:	jsr     _bg_coll_mini_blocks
L001F:	jsr     pushax
	jsr     _bg_coll_spikes
	jsr     tosorax
	jsr     pushax
	jsr     _bg_coll_slope
	jsr     tosorax
	stx     tmp1
	ora     tmp1
	beq     L000D
;
; idx8_store(cube_data, currplayer, cube_data[currplayer] | 1);
;
	.dbg	line, "SAUCE/functions/collision.h", 1042
	ldy     _currplayer
	lda     _cube_data,y
	ora     #$01
	sta     _cube_data,y
;
; }
;
	.dbg	line, "SAUCE/functions/collision.h", 1050
L000D:	rts

	.dbg	line
.endproc

; ---------------------------------------------------------------
; void __near__ check_practice_point_deletion (void)
; ---------------------------------------------------------------

.segment	"XCD_BANK_03"

.proc	_check_practice_point_deletion: near

	.dbg	func, "check_practice_point_deletion", "00", static, "_check_practice_point_deletion"

.segment	"XCD_BANK_03"

;
; if (practicebuffer || (practice_point_count > 1 && (joypad1.press_select || (mouse.left && mouse.right_press)) && !(joypad1.hold & (PAD_UP | PAD_DOWN)))) {
;
	.dbg	line, "SAUCE/menustates/titlescreen.c", 1090
	lda     _practicebuffer
	bne     L0021
	lda     _practice_point_count
	cmp     #$02
	bcc     L001E
	lda     _joypad1+1
	and     #$20
	bne     L0019
	lda     _mouse+1
	and     #$40
	beq     L0016
	lda     _mouse
	and     #$08
	bne     L0019
	rts
L0016:	rts
L0019:	lda     _joypad1
	and     #$0C
	beq     L0021
	rts
L001E:	rts
;
; curr_practice_point--;
;
	.dbg	line, "SAUCE/menustates/titlescreen.c", 1091
L0021:	dec     _curr_practice_point
;
; practicebuffer = 0;
;
	.dbg	line, "SAUCE/menustates/titlescreen.c", 1092
	lda     #$00
	sta     _practicebuffer
;
; if (latest_practice_point) latest_practice_point--;
;
	.dbg	line, "SAUCE/menustates/titlescreen.c", 1093
	lda     _latest_practice_point
	beq     L0022
	dec     _latest_practice_point
;
; if (curr_practice_point >= practice_point_count)
;
	.dbg	line, "SAUCE/menustates/titlescreen.c", 1094
L0022:	lda     _curr_practice_point
	cmp     _practice_point_count
	bcc     L000E
;
; curr_practice_point = practice_point_count - 1;
;
	.dbg	line, "SAUCE/menustates/titlescreen.c", 1095
	lda     _practice_point_count
	sec
	sbc     #$01
	sta     _curr_practice_point
;
; }
;
	.dbg	line, "SAUCE/menustates/titlescreen.c", 1097
L000E:	rts

	.dbg	line
.endproc

; ---------------------------------------------------------------
; void __near__ death_animation (void)
; ---------------------------------------------------------------

.segment	"CODE"

.proc	_death_animation: near

	.dbg	func, "death_animation", "00", static, "_death_animation"

.segment	"CODE"

;
; nmi_fs_updates_on();
;
	.dbg	line, "SAUCE/functions/reset_level.h", 8
	ldx     #$00
	inc     _auto_fs_updates
;
; if (!practice_point_count || practice_music_sync) famistudio_music_stop();
;
	.dbg	line, "SAUCE/functions/reset_level.h", 9
	lda     _practice_point_count
	beq     L0027
	lda     _practice_music_sync
	beq     L0028
L0027:	lda     #$01
	jsr     _famistudio_music_stop
;
; tmp1 = 30;
;
	.dbg	line, "SAUCE/functions/reset_level.h", 11
	ldx     #$00
L0028:	lda     #$1E
	sta     _tmp1
;
; if (!DEBUG_MODE) {
;
	.dbg	line, "SAUCE/functions/reset_level.h", 12
	lda     _DEBUG_MODE
	jne     L003C
;
; if (cube_data[0] & 1) tmp2 = 0;
;
	.dbg	line, "SAUCE/functions/reset_level.h", 13
	lda     _cube_data
	and     #$01
	beq     L0029
	txa
;
; else if (cube_data[1] & 1) tmp2 = 1;
;
	.dbg	line, "SAUCE/functions/reset_level.h", 14
	jmp     L0026
L0029:	lda     _cube_data+1
	and     #$01
	beq     L0008
	lda     #$01
L0026:	sta     _tmp2
;
; update_level_completeness();
;
	.dbg	line, "SAUCE/functions/reset_level.h", 19
L0008:	jsr     _update_level_completeness
;
; sfx_play(sfx_death, 0);
;
	.dbg	line, "SAUCE/functions/reset_level.h", 20
	ldx     #$00
	txa
	jsr     __sfx_play
;
; while (tmp1 != 0){
;
	.dbg	line, "SAUCE/functions/reset_level.h", 21
	jmp     L000B
;
; ppu_wait_nmi();
;
	.dbg	line, "SAUCE/functions/reset_level.h", 22
L0009:	jsr     _ppu_wait_nmi
;
; crossPRGBankJump0(check_practice_point_deletion);
;
	.dbg	line, "SAUCE/functions/reset_level.h", 24
	lda     #<_check_practice_point_deletion
	ldx     #>_check_practice_point_deletion
	ldy     #<.bank(_check_practice_point_deletion)
	jsr     crossPRGBankJump
;
; dual == 1 ? oam_clear_two_players() : oam_clear_player();
;
	.dbg	line, "SAUCE/functions/reset_level.h", 26
	ldx     #$00
	lda     _dual
	cmp     #$01
	bne     L000C
	jsr     _oam_clear_two_players
	jmp     L000D
L000C:	jsr     _oam_clear_player
;
; if (robotjumpframe[0] < 20) {
;
	.dbg	line, "SAUCE/functions/reset_level.h", 28
L000D:	lda     _robotjumpframe
	cmp     #$14
	jcs     L0036
;
; if (retro_mode && !(gamemode == GAMEMODE_ROBOT || gamemode == GAMEMODE_NINJA || gamemode == GAMEMODE_UFO || gamemode == GAMEMODE_SHIP)) mmc3_set_2kb_chr_bank_0(20); //default set for explosion
;
	.dbg	line, "SAUCE/functions/reset_level.h", 29
	lda     _retro_mode
	beq     L002D
	lda     _gamemode
	cmp     #$04
	beq     L002A
	cmp     #$08
	beq     L002A
	cmp     #$03
	beq     L002A
	cmp     #$01
	beq     L0012
	lda     #$00
	jmp     L0012
L002A:	lda     #$01
L0012:	jsr     bnega
	beq     L002D
	lda     #$14
	jsr     _mmc3_set_2kb_chr_bank_0
;
; Explode_Sprites[robotjumpframe[0] & 0x7F]);
;
	.dbg	line, "SAUCE/functions/reset_level.h", 34
L002D:	lda     _tmp2
	asl     a
	tay
	lda     _player_y+1,y
	sec
	sbc     #$02
	sta     ptr1+1
	lda     _tmp2
	asl     a
	tay
	lda     _player_x+1,y
	sec
	sbc     #$02
	sta     sreg
	lda     ptr1+1
	sta     sreg+1
	lda     _retro_mode
	beq     L0035
	lda     _gamemode
	cmp     #$04
	beq     L0034
	cmp     #$08
	beq     L0034
	cmp     #$03
	beq     L0034
	cmp     #$01
	bne     L0035
L0034:	lda     _robotjumpframe
	asl     a
	tay
	lda     _ExplodeR_Sprites,y
	ldx     _ExplodeR_Sprites+1,y
	jmp     L001D
L0035:	lda     _robotjumpframe
	asl     a
	tay
	lda     _Explode_Sprites,y
	ldx     _Explode_Sprites+1,y
L001D:	jsr     __oam_meta_spr
;
; ++robotjumpframe[0];
;
	.dbg	line, "SAUCE/functions/reset_level.h", 35
	inc     _robotjumpframe
;
; if (practice_point_count > 1 && (((mouse.connected ? 0 : joypad2.press) | joypad1.press) & PAD_SELECT)) {
;
	.dbg	line, "SAUCE/functions/reset_level.h", 38
L0036:	lda     _practice_point_count
	cmp     #$02
	bcc     L003B
	lda     _mouse
	and     #$80
	beq     L0037
	lda     #$00
	jmp     L0021
L0037:	lda     _joypad2+1
L0021:	ora     _joypad1+1
	and     #$20
	beq     L003B
;
; curr_practice_point--;
;
	.dbg	line, "SAUCE/functions/reset_level.h", 39
	dec     _curr_practice_point
;
; if (curr_practice_point >= practice_point_count)
;
	.dbg	line, "SAUCE/functions/reset_level.h", 40
	lda     _curr_practice_point
	cmp     _practice_point_count
	bcc     L003B
;
; curr_practice_point = practice_point_count - 1;
;
	.dbg	line, "SAUCE/functions/reset_level.h", 41
	lda     _practice_point_count
	sec
	sbc     #$01
	sta     _curr_practice_point
;
; --tmp1;
;
	.dbg	line, "SAUCE/functions/reset_level.h", 44
L003B:	dec     _tmp1
;
; while (tmp1 != 0){
;
	.dbg	line, "SAUCE/functions/reset_level.h", 21
L000B:	ldx     #$00
	lda     _tmp1
	jne     L0009
;
; pal_fade_out();
;
	.dbg	line, "SAUCE/functions/reset_level.h", 48
L003C:	lda     #$04
	jsr     __pal_fade_to
;
; oam_clear();
;
	.dbg	line, "SAUCE/functions/reset_level.h", 49
	jsr     _oam_clear
;
; ppu_off(); // reset the level when you get to this point, and change this later
;
	.dbg	line, "SAUCE/functions/reset_level.h", 50
	jsr     _ppu_off
;
; nmi_fs_updates_off();
;
	.dbg	line, "SAUCE/functions/reset_level.h", 51
	lda     #$00
	sta     _auto_fs_updates
;
; }
;
	.dbg	line, "SAUCE/functions/reset_level.h", 52
	rts

	.dbg	line
.endproc

; ---------------------------------------------------------------
; void __near__ slope_vel (void)
; ---------------------------------------------------------------

.segment	"CODE"

.proc	_slope_vel: near

	.dbg	func, "slope_vel", "00", static, "_slope_vel"

.segment	"CODE"

;
; switch (tmp8 & SLOPE_DEGREES_MASK) {
;
	.dbg	line, "SAUCE/functions/x_movement.h", 5
	lda     _tmp8
	and     #$03
;
; }
;
	.dbg	line, "SAUCE/functions/x_movement.h", 14
	cmp     #$01
	beq     L0005
	cmp     #$02
	beq     L0004
	cmp     #$03
	beq     L0006
	rts
;
; tmp5 = currplayer_vel_x >> 1;
;
	.dbg	line, "SAUCE/functions/x_movement.h", 7
L0004:	lda     _currplayer_vel_x+1
	cmp     #$80
	ror     a
	sta     _tmp5+1
	lda     _currplayer_vel_x
	ror     a
	sta     _tmp5
;
; break;
;
	.dbg	line, "SAUCE/functions/x_movement.h", 8
	rts
;
; tmp5 = currplayer_vel_x;
;
	.dbg	line, "SAUCE/functions/x_movement.h", 10
L0005:	lda     _currplayer_vel_x+1
	sta     _tmp5+1
	lda     _currplayer_vel_x
	sta     _tmp5
;
; break;
;
	.dbg	line, "SAUCE/functions/x_movement.h", 11
	rts
;
; tmp5 = (currplayer_vel_x << 1);  
;
	.dbg	line, "SAUCE/functions/x_movement.h", 13
L0006:	lda     _currplayer_vel_x
	asl     a
	sta     _tmp5
	lda     _currplayer_vel_x+1
	rol     a
	sta     _tmp5+1
;
; }
;
	.dbg	line, "SAUCE/functions/x_movement.h", 15
	rts

	.dbg	line
.endproc

; ---------------------------------------------------------------
; void __near__ apply_slope_vel (void)
; ---------------------------------------------------------------

.segment	"CODE"

.proc	_apply_slope_vel: near

	.dbg	func, "apply_slope_vel", "00", static, "_apply_slope_vel"

.segment	"CODE"

;
; tmp8 = currplayer_slope_type;
;
	.dbg	line, "SAUCE/functions/x_movement.h", 18
	lda     _currplayer_slope_type
	sta     _tmp8
;
; slope_vel();
;
	.dbg	line, "SAUCE/functions/x_movement.h", 19
	jsr     _slope_vel
;
; if ((currplayer_slope_type & SLOPE_RISING)) {
;
	.dbg	line, "SAUCE/functions/x_movement.h", 20
	lda     _currplayer_slope_type
	and     #$04
	beq     L0009
;
; if ((currplayer_slope_type & SLOPE_UPSIDEDOWN)) {
;
	.dbg	line, "SAUCE/functions/x_movement.h", 21
	lda     _currplayer_slope_type
	and     #$08
;
; } else {
;
	.dbg	line, "SAUCE/functions/x_movement.h", 23
	bne     L0006
;
; currplayer_vel_y = -tmp5;
;
	.dbg	line, "SAUCE/functions/x_movement.h", 24
	lda     _tmp5
	ldx     _tmp5+1
	jsr     negax
	sta     _currplayer_vel_y
	stx     _currplayer_vel_y+1
;
; } else {
;
	.dbg	line, "SAUCE/functions/x_movement.h", 26
	rts
;
; if ((currplayer_slope_type & SLOPE_UPSIDEDOWN)) {
;
	.dbg	line, "SAUCE/functions/x_movement.h", 27
L0009:	lda     _currplayer_slope_type
	and     #$08
	beq     L0006
;
; currplayer_vel_y = -tmp5;
;
	.dbg	line, "SAUCE/functions/x_movement.h", 28
	lda     _tmp5
	ldx     _tmp5+1
	jsr     negax
	sta     _currplayer_vel_y
	stx     _currplayer_vel_y+1
;
; } else {
;
	.dbg	line, "SAUCE/functions/x_movement.h", 29
	rts
;
; currplayer_vel_y = tmp5;
;
	.dbg	line, "SAUCE/functions/x_movement.h", 30
L0006:	lda     _tmp5+1
	sta     _currplayer_vel_y+1
	lda     _tmp5
	sta     _currplayer_vel_y
;
; }
;
	.dbg	line, "SAUCE/functions/x_movement.h", 33
	rts

	.dbg	line
.endproc

; ---------------------------------------------------------------
; void __near__ x_movement_coll (void)
; ---------------------------------------------------------------

.segment	"CODE"

.proc	_x_movement_coll: near

	.dbg	func, "x_movement_coll", "00", static, "_x_movement_coll"

.segment	"CODE"

;
; mmc3_set_prg_bank_1(GET_BANK(bg_coll_R));
;
	.dbg	line, "SAUCE/functions/x_movement.h", 36
	lda     #<.bank(_bg_coll_R)
	jsr     _mmc3_set_prg_bank_1
;
; if (currplayer_slope_frames) {
;
	.dbg	line, "SAUCE/functions/x_movement.h", 38
	lda     _currplayer_slope_frames
	beq     L0004
;
; currplayer_slope_frames -= 1;
;
	.dbg	line, "SAUCE/functions/x_movement.h", 39
	dec     _currplayer_slope_frames
;
; if (currplayer_slope_type) {
;
	.dbg	line, "SAUCE/functions/x_movement.h", 40
	lda     _currplayer_slope_type
	beq     L0004
;
; apply_slope_vel();
;
	.dbg	line, "SAUCE/functions/x_movement.h", 42
	jsr     _apply_slope_vel
;
; Generic.x = high_byte(currplayer_x);
;
	.dbg	line, "SAUCE/functions/x_movement.h", 46
L0004:	lda     _currplayer_x+1
	sta     _Generic
;
; Generic.y = high_byte(currplayer_y);
;
	.dbg	line, "SAUCE/functions/x_movement.h", 47
	lda     _currplayer_y+1
	sta     _Generic+1
;
; if (high_byte(currplayer_x) > 0x10) {
;
	.dbg	line, "SAUCE/functions/x_movement.h", 49
	lda     _currplayer_x+1
	cmp     #$11
	bcc     L000C
;
; bg_coll_floor_spikes(); // check for spikes at the left of the player (fixes standing on spikes)
;
	.dbg	line, "SAUCE/functions/x_movement.h", 50
	jsr     _bg_coll_floor_spikes
;
; if (bg_coll_R()) {
;
	.dbg	line, "SAUCE/functions/x_movement.h", 51
	jsr     _bg_coll_R
	tax
	beq     L000C
;
; if (!(options & platformer) && !force_platformer) {idx8_store(cube_data, currplayer, cube_data[currplayer] | 0x01);}
;
	.dbg	line, "SAUCE/functions/x_movement.h", 52
	lda     _options
	and     #$04
	bne     L000D
	lda     _force_platformer
	beq     L000E
L000D:	lda     #$00
	jmp     L0010
L000E:	ldy     _currplayer
	lda     _cube_data,y
	ora     #$01
	sta     _cube_data,y
;
; else {currplayer_vel_x = 0; }
;
	.dbg	line, "SAUCE/functions/x_movement.h", 53
	rts
L0010:	sta     _currplayer_vel_x
	sta     _currplayer_vel_x+1
;
; }
;
	.dbg	line, "SAUCE/functions/x_movement.h", 57
L000C:	rts

	.dbg	line
.endproc

; ---------------------------------------------------------------
; void __near__ x_movement (void)
; ---------------------------------------------------------------

.segment	"CODE"

.proc	_x_movement: near

	.dbg	func, "x_movement", "00", static, "_x_movement"

.segment	"CODE"

;
; mmc3_set_prg_bank_1(GET_BANK(bg_coll_R));
;
	.dbg	line, "SAUCE/functions/x_movement.h", 60
	lda     #<.bank(_bg_coll_R)
	jsr     _mmc3_set_prg_bank_1
;
; old_x = currplayer_x;
;
	.dbg	line, "SAUCE/functions/x_movement.h", 63
	lda     _currplayer_x+1
	sta     _old_x+1
	lda     _currplayer_x
	sta     _old_x
;
; currplayer_vel_x = ind16BE_load_NOC(CUBE_SPEED(framerate), speed);
;
	.dbg	line, "SAUCE/functions/x_movement.h", 65
	lda     _framerate
	asl     a
	tay
	lda     _CUBE_SPEED+1,y
	sta     ptr1+1
	lda     _CUBE_SPEED,y
	sta     ptr1
	lda     _speed
	asl     a
	tay
	lda     (ptr1),y
	sta     _currplayer_vel_x+1
	iny
	lda     (ptr1),y
	sta     _currplayer_vel_x
;
; if (dashing[currplayer] == 4 || dashing[currplayer] == 5) { 
;
	.dbg	line, "SAUCE/functions/x_movement.h", 69
	ldy     _currplayer
	lda     _dashing,y
	cmp     #$04
	beq     L004D
	ldy     _currplayer
	lda     _dashing,y
	cmp     #$05
	bne     L004E
;
; if (currplayer_y < 0x0600 && scroll_y == min_scroll_y){
;
	.dbg	line, "SAUCE/functions/x_movement.h", 70
L004D:	ldx     _currplayer_y+1
	cpx     #$06
	bcs     L004E
	lda     _min_scroll_y
	ldx     _min_scroll_y+1
	cpx     _scroll_y+1
	bne     L004E
	cmp     _scroll_y
	bne     L004E
;
; idx8_store(cube_data, currplayer, cube_data[currplayer] | 0x01); //DIE if player goes too high
;
	.dbg	line, "SAUCE/functions/x_movement.h", 71
	ldy     _currplayer
	lda     _cube_data,y
	ora     #$01
	sta     _cube_data,y
;
; if (gamemode == GAMEMODE_WAVE || gamemode == GAMEMODE_SNAKE) { // wave
;
	.dbg	line, "SAUCE/functions/x_movement.h", 76
L004E:	lda     _gamemode
	cmp     #$06
	beq     L004F
	cmp     #$0A
	bne     L000C
;
; Generic.width = WAVE_WIDTH;
;
	.dbg	line, "SAUCE/functions/x_movement.h", 77
L004F:	lda     #$08
	sta     _Generic+2
;
; } else {
;
	.dbg	line, "SAUCE/functions/x_movement.h", 79
	jmp     L0049
;
; Generic.width = CUBE_WIDTH[currplayer_mini];
;
	.dbg	line, "SAUCE/functions/x_movement.h", 80
L000C:	ldy     _currplayer_mini
	lda     _CUBE_WIDTH,y
	sta     _Generic+2
;
; Generic.height = CUBE_HEIGHT[currplayer_mini];
;
	.dbg	line, "SAUCE/functions/x_movement.h", 81
	ldy     _currplayer_mini
	lda     _CUBE_HEIGHT,y
L0049:	sta     _Generic+3
;
; Generic.x = high_byte(currplayer_x); // this is much faster than passing a pointer to player
;
	.dbg	line, "SAUCE/functions/x_movement.h", 84
	lda     _currplayer_x+1
	sta     _Generic
;
; Generic.y = high_byte(currplayer_y);
;
	.dbg	line, "SAUCE/functions/x_movement.h", 85
	lda     _currplayer_y+1
	sta     _Generic+1
;
; if (!(options & platformer) && !force_platformer) {
;
	.dbg	line, "SAUCE/functions/x_movement.h", 87
	lda     _options
	and     #$04
	bne     L0012
	lda     _force_platformer
	bne     L0012
;
; currplayer_x += currplayer_vel_x;
;
	.dbg	line, "SAUCE/functions/x_movement.h", 90
	lda     _currplayer_vel_x
	clc
	adc     _currplayer_x
	sta     _currplayer_x
	lda     _currplayer_vel_x+1
;
; } else {
;
	.dbg	line, "SAUCE/functions/x_movement.h", 91
	jmp     L0062
;
; tmp7 = bg_coll_R();
;
	.dbg	line, "SAUCE/functions/x_movement.h", 93
L0012:	jsr     _bg_coll_R
	sta     _tmp7
;
; tmp8 = bg_coll_L();
;
	.dbg	line, "SAUCE/functions/x_movement.h", 94
	jsr     _bg_coll_L
	sta     _tmp8
;
; if (!tmp7 && (controllingplayer->right)) currplayer_x += currplayer_vel_x;
;
	.dbg	line, "SAUCE/functions/x_movement.h", 96
	lda     _tmp7
	bne     L0017
	tay
	lda     (_controllingplayer),y
	and     #$01
	beq     L0017
	lda     _currplayer_vel_x
	clc
	adc     _currplayer_x
	sta     _currplayer_x
	lda     _currplayer_vel_x+1
	adc     _currplayer_x+1
	sta     _currplayer_x+1
;
; else if (!tmp8 && controllingplayer->left && currplayer_x > 0x1000) currplayer_x -= currplayer_vel_x;
;
	.dbg	line, "SAUCE/functions/x_movement.h", 97
	jmp     L0020
L0017:	lda     _tmp8
	bne     L0053
	tay
	lda     (_controllingplayer),y
	and     #$02
	beq     L0057
	lda     _currplayer_x
	cmp     #$01
	lda     _currplayer_x+1
	sbc     #$10
	bcs     L0055
L0053:	lda     #$00
	jmp     L0057
L0055:	lda     _currplayer_vel_x
	eor     #$FF
	sec
	adc     _currplayer_x
	sta     _currplayer_x
	lda     _currplayer_vel_x+1
	eor     #$FF
	adc     _currplayer_x+1
	sta     _currplayer_x+1
;
; else currplayer_vel_x = 0;
;
	.dbg	line, "SAUCE/functions/x_movement.h", 98
	jmp     L0020
L0057:	sta     _currplayer_vel_x
	sta     _currplayer_vel_x+1
;
; if (tmp7 && (controllingplayer->right)) {
;
	.dbg	line, "SAUCE/functions/x_movement.h", 101
L0020:	lda     _tmp7
	beq     L0021
	ldy     #$00
	lda     (_controllingplayer),y
	and     #$01
	beq     L0021
;
; tmp7 = high_byte(currplayer_x) + low_word(scroll_x);
;
	.dbg	line, "SAUCE/functions/x_movement.h", 102
	lda     _currplayer_x+1
	clc
	adc     _scroll_x
	sta     _tmp7
;
; high_byte(currplayer_x) -= ((tmp7 + 4) & 0x07) - 4 + currplayer_mini; // if mini put it a pixel left-er
;
	.dbg	line, "SAUCE/functions/x_movement.h", 103
	clc
	adc     #$04
	and     #$07
	sec
	sbc     #$04
	clc
	adc     _currplayer_mini
;
; else if (tmp8 && (controllingplayer->left)) {
;
	.dbg	line, "SAUCE/functions/x_movement.h", 105
	jmp     L0066
L0021:	lda     _tmp8
	beq     L0028
	ldy     #$00
	lda     (_controllingplayer),y
	and     #$02
	beq     L0028
;
; tmp8 = high_byte(currplayer_x) + low_word(scroll_x);
;
	.dbg	line, "SAUCE/functions/x_movement.h", 106
	lda     _currplayer_x+1
	clc
	adc     _scroll_x
	sta     _tmp8
;
; high_byte(currplayer_x) -= ((tmp8 + 4) & 0x07) - 4;
;
	.dbg	line, "SAUCE/functions/x_movement.h", 107
	clc
	adc     #$04
	and     #$07
	sec
	sbc     #$04
L0066:	eor     #$FF
	sec
L0062:	adc     _currplayer_x+1
	sta     _currplayer_x+1
;
; if(currplayer_x > 0xf000) { // too far, don't wrap around
;
	.dbg	line, "SAUCE/functions/x_movement.h", 111
L0028:	lda     _currplayer_x
	cmp     #$01
	lda     _currplayer_x+1
	sbc     #$F0
	bcc     L002E
;
; if(old_x >= 0xf000){
;
	.dbg	line, "SAUCE/functions/x_movement.h", 112
	lda     _old_x
	cmp     #$00
	lda     _old_x+1
	sbc     #$F0
	lda     #$00
	tax
	bcc     L005D
;
; currplayer_x = 0xf000; // max right
;
	.dbg	line, "SAUCE/functions/x_movement.h", 113
	ldx     #$F0
;
; currplayer_x = 0x0000; // max left
;
	.dbg	line, "SAUCE/functions/x_movement.h", 115
L005D:	sta     _currplayer_x
	stx     _currplayer_x+1
;
; currplayer_vel_x = 0;
;
	.dbg	line, "SAUCE/functions/x_movement.h", 117
	sta     _currplayer_vel_x
	sta     _currplayer_vel_x+1
;
; if (!wrap_mode) {
;
	.dbg	line, "SAUCE/functions/x_movement.h", 121
L002E:	lda     _wrap_mode
	bne     L0031
;
; if (currplayer_y < 0x0600 && !dual && !twoplayer){
;
	.dbg	line, "SAUCE/functions/x_movement.h", 122
	ldx     _currplayer_y+1
	cpx     #$06
	bcs     L0040
	lda     _dual
	bne     L0040
	lda     _twoplayer
	bne     L0040
;
; idx8_store(cube_data, currplayer, cube_data[currplayer] | 0x01); //DIE if player goes too high
;
	.dbg	line, "SAUCE/functions/x_movement.h", 123
	ldy     _currplayer
	lda     _cube_data,y
	ora     #$01
;
; else if (!(controllingplayer->hold & (PAD_A | PAD_UP))) idx8_store(cube_data, currplayer, cube_data[currplayer] & 1);
;
	.dbg	line, "SAUCE/functions/x_movement.h", 127
	jmp     L004C
;
; if (currplayer_y < 0x0600 && !dual && !twoplayer){
;
	.dbg	line, "SAUCE/functions/x_movement.h", 130
L0031:	ldx     _currplayer_y+1
	cpx     #$06
	bcs     L003B
	lda     _dual
	bne     L003B
	lda     _twoplayer
	bne     L003B
;
; currplayer_y = 0xF900;
;
	.dbg	line, "SAUCE/functions/x_movement.h", 131
	ldx     #$F9
	sta     _currplayer_y
	stx     _currplayer_y+1
;
; else if (currplayer_y > 0xF900 && !dual && !twoplayer){
;
	.dbg	line, "SAUCE/functions/x_movement.h", 133
	rts
L003B:	lda     _currplayer_y
	cmp     #$01
	lda     _currplayer_y+1
	sbc     #$F9
	bcc     L0040
	lda     _dual
	bne     L0040
	lda     _twoplayer
	bne     L0040
;
; currplayer_y = 0x0600;
;
	.dbg	line, "SAUCE/functions/x_movement.h", 134
	ldx     #$06
	sta     _currplayer_y
	stx     _currplayer_y+1
;
; else if (!(controllingplayer->hold & (PAD_A | PAD_UP))) idx8_store(cube_data, currplayer, cube_data[currplayer] & 1);
;
	.dbg	line, "SAUCE/functions/x_movement.h", 136
	rts
L0040:	ldy     #$00
	lda     (_controllingplayer),y
	and     #$88
	bne     L0045
	ldy     _currplayer
	lda     _cube_data,y
	and     #$01
L004C:	sta     _cube_data,y
;
; }
;
	.dbg	line, "SAUCE/functions/x_movement.h", 138
L0045:	rts

	.dbg	line
.endproc

; ---------------------------------------------------------------
; void __near__ ufo_ship_eject (void)
; ---------------------------------------------------------------

.segment	"XCD_BANK_01"

.proc	_ufo_ship_eject: near

	.dbg	func, "ufo_ship_eject", "00", static, "_ufo_ship_eject"

.segment	"XCD_BANK_01"

;
; if(bg_coll_U()){ // check collision above
;
	.dbg	line, "SAUCE/gamemodes/gamemode_ship.h", 60
	jsr     _bg_coll_U
	tax
	beq     L0002
;
; high_byte(currplayer_y) = high_byte(currplayer_y) - eject_U - 1;
;
	.dbg	line, "SAUCE/gamemodes/gamemode_ship.h", 61
	lda     _currplayer_y+1
	sec
	sbc     _eject_U
	sec
	sbc     #$01
	sta     _currplayer_y+1
;
; currplayer_vel_y = 0;
;
	.dbg	line, "SAUCE/gamemodes/gamemode_ship.h", 62
	lda     #$00
	sta     _currplayer_vel_y
	sta     _currplayer_vel_y+1
;
; if(bg_coll_D()){ // check collision below
;
	.dbg	line, "SAUCE/gamemodes/gamemode_ship.h", 66
L0002:	jsr     _bg_coll_D
	tax
	beq     L0004
;
; high_byte(currplayer_y) = high_byte(currplayer_y) - eject_D;
;
	.dbg	line, "SAUCE/gamemodes/gamemode_ship.h", 67
	lda     _currplayer_y+1
	sec
	sbc     _eject_D
	sta     _currplayer_y+1
;
; currplayer_vel_y = 0;
;
	.dbg	line, "SAUCE/gamemodes/gamemode_ship.h", 68
	lda     #$00
	sta     _currplayer_vel_y
	sta     _currplayer_vel_y+1
;
; } 
;
	.dbg	line, "SAUCE/gamemodes/gamemode_ship.h", 71
L0004:	rts

	.dbg	line
.endproc

; ---------------------------------------------------------------
; void __near__ common_gravity_routine (void)
; ---------------------------------------------------------------

.segment	"XCD_BANK_01"

.proc	_common_gravity_routine: near

	.dbg	func, "common_gravity_routine", "00", static, "_common_gravity_routine"
	.dbg	sym, "tmpaccel", "00", register, "regbank", 4

.segment	"XCD_BANK_01"

;
; register int16_t tmpaccel;
;
	.dbg	line, "SAUCE/gamemodes/gamemode_cube.h", 168
	lda     regbank+4
	ldx     regbank+5
	jsr     pushax
;
; tmp1 = dashing[currplayer];
;
	.dbg	line, "SAUCE/gamemodes/gamemode_cube.h", 169
	ldy     _currplayer
	ldx     #$00
	lda     _dashing,y
	sta     _tmp1
;
; if (!tmp1) {
;
	.dbg	line, "SAUCE/gamemodes/gamemode_cube.h", 170
	lda     _tmp1
	jne     L001F
;
; tmpaccel = tmpgravity;
;
	.dbg	line, "SAUCE/gamemodes/gamemode_cube.h", 171
	lda     _tmpgravity+1
	sta     regbank+4+1
	lda     _tmpgravity
	sta     regbank+4
;
; if((!currplayer_gravity ? currplayer_vel_y > tmpfallspeed : currplayer_vel_y < tmpfallspeed)){
;
	.dbg	line, "SAUCE/gamemodes/gamemode_cube.h", 172
	lda     _currplayer_gravity
	bne     L0005
	lda     _currplayer_vel_y
	ldx     _currplayer_vel_y+1
	jsr     pushax
	lda     _tmpfallspeed
	ldx     _tmpfallspeed+1
	jsr     tosgtax
	jmp     L0006
L0005:	lda     _currplayer_vel_y
	cmp     _tmpfallspeed
	lda     _currplayer_vel_y+1
	sbc     _tmpfallspeed+1
	bvc     L001C
	eor     #$80
L001C:	asl     a
	txa
	rol     a
L0006:	cmp     #$00
	beq     L001E
;
; tmpaccel = -tmpaccel;
;
	.dbg	line, "SAUCE/gamemodes/gamemode_cube.h", 173
	lda     regbank+4
	ldx     regbank+4+1
	jsr     negax
	sta     regbank+4
	stx     regbank+4+1
;
; switch (gravity_mod) {
;
	.dbg	line, "SAUCE/gamemodes/gamemode_cube.h", 175
L001E:	lda     _gravity_mod
;
; };
;
	.dbg	line, "SAUCE/gamemodes/gamemode_cube.h", 181
	beq     L0008
	cmp     #$01
	beq     L000A
	cmp     #$02
	beq     L000B
	cmp     #$03
	beq     L000F
	cmp     #$04
	beq     L0010
	jmp     L0008
;
; case 1: tmpaccel /= 3; break;
;
	.dbg	line, "SAUCE/gamemodes/gamemode_cube.h", 177
L000A:	lda     regbank+4
	ldx     regbank+4+1
	jsr     pushax
	lda     #$03
	jsr     tosdiva0
	sta     regbank+4
	stx     regbank+4+1
	jmp     L0008
;
; case 2: tmpaccel /= 2; break;
;
	.dbg	line, "SAUCE/gamemodes/gamemode_cube.h", 178
L000B:	lda     regbank+4
	ldx     regbank+4+1
	cpx     #$00
	bpl     L000C
	sta     regsave
	stx     regsave+1
	cpx     #$FF
	bne     L000E
	cmp     #$FF
L000E:	jsr     boolult
	lsr     a
	lda     regsave
	ldx     regsave+1
	bcs     L000C
	ldx     #$00
	txa
	jmp     L000D
L000C:	jsr     asrax1
L000D:	sta     regbank+4
	stx     regbank+4+1
	jmp     L0008
;
; case 3: tmpaccel = (tmpaccel / 3 * 2); break;
;
	.dbg	line, "SAUCE/gamemodes/gamemode_cube.h", 179
L000F:	lda     regbank+4
	ldx     regbank+4+1
	jsr     pushax
	lda     #$03
	jsr     tosdiva0
	stx     tmp1
	asl     a
	rol     tmp1
	ldx     tmp1
	sta     regbank+4
	stx     regbank+4+1
	jmp     L0008
;
; case 4: tmpaccel *= 2; break;
;
	.dbg	line, "SAUCE/gamemodes/gamemode_cube.h", 180
L0010:	lda     regbank+4
	asl     a
	sta     regbank+4
	lda     regbank+4+1
	rol     a
	sta     regbank+4+1
;
; currplayer_vel_y += tmpaccel;
;
	.dbg	line, "SAUCE/gamemodes/gamemode_cube.h", 182
L0008:	lda     regbank+4
	clc
	adc     _currplayer_vel_y
	sta     _currplayer_vel_y
	lda     regbank+4+1
	adc     _currplayer_vel_y+1
	sta     _currplayer_vel_y+1
;
; } else if (tmp1 == 2) {
;
	.dbg	line, "SAUCE/gamemodes/gamemode_cube.h", 183
	jmp     L0019
L001F:	lda     _tmp1
	cmp     #$02
	bne     L0020
;
; currplayer_vel_y = -currplayer_vel_x;
;
	.dbg	line, "SAUCE/gamemodes/gamemode_cube.h", 184
	lda     _currplayer_vel_x
	ldx     _currplayer_vel_x+1
	jsr     negax
	sta     _currplayer_vel_y
	stx     _currplayer_vel_y+1
;
; } else if (tmp1 == 3) {
;
	.dbg	line, "SAUCE/gamemodes/gamemode_cube.h", 185
	jmp     L0019
L0020:	lda     _tmp1
	cmp     #$03
	bne     L0021
;
; currplayer_vel_y = currplayer_vel_x;
;
	.dbg	line, "SAUCE/gamemodes/gamemode_cube.h", 186
	lda     _currplayer_vel_x+1
	sta     _currplayer_vel_y+1
	lda     _currplayer_vel_x
	sta     _currplayer_vel_y
;
; } else if (tmp1 == 4) {
;
	.dbg	line, "SAUCE/gamemodes/gamemode_cube.h", 187
	jmp     L0019
L0021:	lda     _tmp1
	cmp     #$04
	bne     L0022
;
; currplayer_vel_y = currplayer_vel_x*2;
;
	.dbg	line, "SAUCE/gamemodes/gamemode_cube.h", 188
	lda     _currplayer_vel_x
	ldx     _currplayer_vel_x+1
	stx     tmp1
	asl     a
	rol     tmp1
	ldx     tmp1
	sta     _currplayer_vel_y
	stx     _currplayer_vel_y+1
;
; currplayer_y -= currplayer_vel_y;
;
	.dbg	line, "SAUCE/gamemodes/gamemode_cube.h", 189
	eor     #$FF
	sec
	adc     _currplayer_y
	sta     _currplayer_y
	txa
	eor     #$FF
;
; return;
;
	.dbg	line, "SAUCE/gamemodes/gamemode_cube.h", 190
	jmp     L0025
;
; } else if (tmp1 == 5) {
;
	.dbg	line, "SAUCE/gamemodes/gamemode_cube.h", 191
L0022:	lda     _tmp1
	cmp     #$05
	bne     L0018
;
; currplayer_vel_y = currplayer_vel_x*2;
;
	.dbg	line, "SAUCE/gamemodes/gamemode_cube.h", 192
	lda     _currplayer_vel_x
	asl     a
	sta     _currplayer_vel_y
	lda     _currplayer_vel_x+1
	rol     a
	sta     _currplayer_vel_y+1
;
; } else {
;
	.dbg	line, "SAUCE/gamemodes/gamemode_cube.h", 193
	jmp     L0019
;
; currplayer_vel_y = currplayer_gravity ? -1 : 1;
;
	.dbg	line, "SAUCE/gamemodes/gamemode_cube.h", 194
L0018:	lda     _currplayer_gravity
	beq     L0023
	dex
	txa
	jmp     L001B
L0023:	lda     #$01
L001B:	sta     _currplayer_vel_y
	stx     _currplayer_vel_y+1
;
; return;
;
	.dbg	line, "SAUCE/gamemodes/gamemode_cube.h", 195
	jmp     L0001
;
; currplayer_y += currplayer_vel_y;
;
	.dbg	line, "SAUCE/gamemodes/gamemode_cube.h", 197
L0019:	lda     _currplayer_vel_y
	clc
	adc     _currplayer_y
	sta     _currplayer_y
	lda     _currplayer_vel_y+1
L0025:	adc     _currplayer_y+1
	sta     _currplayer_y+1
;
; }
;
	.dbg	line, "SAUCE/gamemodes/gamemode_cube.h", 198
L0001:	ldy     #$00
	lda     (sp),y
	sta     regbank+4
	iny
	lda     (sp),y
	sta     regbank+5
	jmp     incsp2

	.dbg	line
.endproc

; ---------------------------------------------------------------
; void __near__ ufo_movement (void)
; ---------------------------------------------------------------

.segment	"XCD_BANK_01"

.proc	_ufo_movement: near

	.dbg	func, "ufo_movement", "00", static, "_ufo_movement"

.segment	"XCD_BANK_01"

;
; tmpfallspeed = UFO_MAX_FALLSPEED(currplayer_table_idx);
;
	.dbg	line, "SAUCE/gamemodes/gamemode_ufo.h", 7
	ldy     _currplayer_table_idx
	lda     _UFO_MAX_FALLSPEED_hi,y
	sta     _tmpfallspeed+1
	lda     _UFO_MAX_FALLSPEED_lo,y
	sta     _tmpfallspeed
;
; tmpgravity = UFO_GRAVITY(currplayer_table_idx);
;
	.dbg	line, "SAUCE/gamemodes/gamemode_ufo.h", 8
	ldy     _currplayer_table_idx
	lda     _UFO_GRAVITY_lo,y
	ldx     _UFO_GRAVITY_hi,y
	sta     _tmpgravity
	stx     _tmpgravity+1
;
; common_gravity_routine();
;
	.dbg	line, "SAUCE/gamemodes/gamemode_ufo.h", 9
	jsr     _common_gravity_routine
;
; Generic.x = high_byte(currplayer_x);
;
	.dbg	line, "SAUCE/gamemodes/gamemode_ufo.h", 14
	lda     _currplayer_x+1
	sta     _Generic
;
; Generic.y = high_byte(currplayer_y);
;
	.dbg	line, "SAUCE/gamemodes/gamemode_ufo.h", 15
	ldx     #$00
	lda     _currplayer_y+1
	sta     _Generic+1
;
; ufo_ship_eject();
;
	.dbg	line, "SAUCE/gamemodes/gamemode_ufo.h", 17
	jsr     _ufo_ship_eject
;
; Generic.x = high_byte(currplayer_x);
;
	.dbg	line, "SAUCE/gamemodes/gamemode_ufo.h", 20
	lda     _currplayer_x+1
	sta     _Generic
;
; Generic.y = high_byte(currplayer_y);
;
	.dbg	line, "SAUCE/gamemodes/gamemode_ufo.h", 21
	lda     _currplayer_y+1
	sta     _Generic+1
;
; if((controllingplayer->press & (PAD_A | PAD_UP)) && !ufo_orbed[currplayer]) {
;
	.dbg	line, "SAUCE/gamemodes/gamemode_ufo.h", 27
	ldy     #$01
	lda     (_controllingplayer),y
	and     #$88
	beq     L0002
	ldy     _currplayer
	lda     _ufo_orbed,y
	bne     L0002
;
; currplayer_vel_y = UFO_JUMP_VEL(currplayer_table_idx); // JUMP
;
	.dbg	line, "SAUCE/gamemodes/gamemode_ufo.h", 28
	ldy     _currplayer_table_idx
	lda     _UFO_JUMP_VEL_hi,y
	sta     _currplayer_vel_y+1
	lda     _UFO_JUMP_VEL_lo,y
	sta     _currplayer_vel_y
;
; jumps++;
;
	.dbg	line, "SAUCE/gamemodes/gamemode_ufo.h", 29
	inc     _jumps
	bne     L0002
	inc     _jumps+1
;
; ufo_orbed[currplayer] = 0;
;
	.dbg	line, "SAUCE/gamemodes/gamemode_ufo.h", 31
L0002:	ldy     _currplayer
	lda     #$00
	sta     _ufo_orbed,y
;
; } 
;
	.dbg	line, "SAUCE/gamemodes/gamemode_ufo.h", 32
	rts

	.dbg	line
.endproc

; ---------------------------------------------------------------
; void __near__ ball_eject (void)
; ---------------------------------------------------------------

.segment	"XCD_BANK_01"

.proc	_ball_eject: near

	.dbg	func, "ball_eject", "00", static, "_ball_eject"

.segment	"XCD_BANK_01"

;
; if(bg_coll_U()){ // check collision above
;
	.dbg	line, "SAUCE/gamemodes/gamemode_ball.h", 91
	jsr     _bg_coll_U
	tax
	jeq     L0002
;
; high_byte(currplayer_y) = high_byte(currplayer_y) - eject_U;
;
	.dbg	line, "SAUCE/gamemodes/gamemode_ball.h", 92
	lda     _currplayer_y+1
	sec
	sbc     _eject_U
	sta     _currplayer_y+1
;
; if (gamemode != GAMEMODE_POGO) currplayer_vel_y = 0;
;
	.dbg	line, "SAUCE/gamemodes/gamemode_ball.h", 93
	lda     _gamemode
	cmp     #$09
	beq     L0003
	lda     #$00
	sta     _currplayer_vel_y
	sta     _currplayer_vel_y+1
;
; else {
;
	.dbg	line, "SAUCE/gamemodes/gamemode_ball.h", 94
	jmp     L0017
;
; if (!currplayer_gravity) currplayer_vel_y = 0;
;
	.dbg	line, "SAUCE/gamemodes/gamemode_ball.h", 95
L0003:	lda     _currplayer_gravity
	bne     L0005
	sta     _currplayer_vel_y
	sta     _currplayer_vel_y+1
;
; else if (!orbhitonthisframe[currplayer]) {
;
	.dbg	line, "SAUCE/gamemodes/gamemode_ball.h", 96
	jmp     L0017
L0005:	ldy     _currplayer
	lda     _orbhitonthisframe,y
	bne     L0016
;
; currplayer_vel_y = (-currplayer_vel_y / 3) * 2;
;
	.dbg	line, "SAUCE/gamemodes/gamemode_ball.h", 97
	lda     _currplayer_vel_y
	ldx     _currplayer_vel_y+1
	jsr     negax
	jsr     pushax
	lda     #$03
	jsr     tosdiva0
	stx     tmp1
	asl     a
	rol     tmp1
	ldx     tmp1
	sta     _currplayer_vel_y
	stx     _currplayer_vel_y+1
;
; table_offset = yellow_pad;
;
	.dbg	line, "SAUCE/gamemodes/gamemode_ball.h", 98
	lda     #$08
	sta     _tmp3
;
; tmpA = crossPRGBankJump0(sprite_gamemode_y_adjust);
;
	.dbg	line, "SAUCE/gamemodes/gamemode_ball.h", 99
	lda     #<_sprite_gamemode_y_adjust
	ldx     #>_sprite_gamemode_y_adjust
	ldy     #<.bank(_sprite_gamemode_y_adjust)
	jsr     crossPRGBankJump
	lda     ptr3+1
	sta     _tmpA+1
	lda     ptr3
	sta     _tmpA
;
; if (currplayer_vel_y < tmpA) currplayer_vel_y = tmpA;
;
	.dbg	line, "SAUCE/gamemodes/gamemode_ball.h", 100
	lda     _currplayer_vel_y
	cmp     _tmpA
	lda     _currplayer_vel_y+1
	sbc     _tmpA+1
	bcs     L0009
	lda     _tmpA+1
	sta     _currplayer_vel_y+1
	lda     _tmpA
	sta     _currplayer_vel_y
;
; robotjumptime[currplayer] = 8;
;
	.dbg	line, "SAUCE/gamemodes/gamemode_ball.h", 101
L0009:	ldy     _currplayer
	lda     #$08
	sta     _robotjumptime,y
;
; orbactive = 0;
;
	.dbg	line, "SAUCE/gamemodes/gamemode_ball.h", 104
L0016:	lda     #$00
L0017:	sta     _orbactive
;
; idx8_store(cube_data, currplayer, cube_data[currplayer] & 1);   //fix for orb
;
	.dbg	line, "SAUCE/gamemodes/gamemode_ball.h", 105
	ldy     _currplayer
	lda     _cube_data,y
	and     #$01
	sta     _cube_data,y
;
; if(bg_coll_D()){ // check collision below
;
	.dbg	line, "SAUCE/gamemodes/gamemode_ball.h", 109
L0002:	jsr     _bg_coll_D
	tax
	bne     L001A
;
; } 
;
	.dbg	line, "SAUCE/gamemodes/gamemode_ball.h", 127
	rts
;
; high_byte(currplayer_y) = high_byte(currplayer_y) - eject_D;
;
	.dbg	line, "SAUCE/gamemodes/gamemode_ball.h", 110
L001A:	lda     _currplayer_y+1
	sec
	sbc     _eject_D
	sta     _currplayer_y+1
;
; if (gamemode != GAMEMODE_POGO) currplayer_vel_y = 0;
;
	.dbg	line, "SAUCE/gamemodes/gamemode_ball.h", 111
	lda     _gamemode
	cmp     #$09
	beq     L000D
	lda     #$00
	sta     _currplayer_vel_y
	sta     _currplayer_vel_y+1
;
; else {
;
	.dbg	line, "SAUCE/gamemodes/gamemode_ball.h", 112
	jmp     L0019
;
; if (currplayer_gravity) currplayer_vel_y = 0;
;
	.dbg	line, "SAUCE/gamemodes/gamemode_ball.h", 113
L000D:	lda     _currplayer_gravity
	beq     L000F
	lda     #$00
	sta     _currplayer_vel_y
	sta     _currplayer_vel_y+1
;
; else if (!orbhitonthisframe[currplayer]) {
;
	.dbg	line, "SAUCE/gamemodes/gamemode_ball.h", 114
	jmp     L0019
L000F:	ldy     _currplayer
	lda     _orbhitonthisframe,y
	bne     L0018
;
; currplayer_vel_y = (-currplayer_vel_y / 3) * 2;
;
	.dbg	line, "SAUCE/gamemodes/gamemode_ball.h", 115
	lda     _currplayer_vel_y
	ldx     _currplayer_vel_y+1
	jsr     negax
	jsr     pushax
	lda     #$03
	jsr     tosdiva0
	stx     tmp1
	asl     a
	rol     tmp1
	ldx     tmp1
	sta     _currplayer_vel_y
	stx     _currplayer_vel_y+1
;
; table_offset = yellow_pad;
;
	.dbg	line, "SAUCE/gamemodes/gamemode_ball.h", 116
	lda     #$08
	sta     _tmp3
;
; tmpA = crossPRGBankJump0(sprite_gamemode_y_adjust);
;
	.dbg	line, "SAUCE/gamemodes/gamemode_ball.h", 117
	lda     #<_sprite_gamemode_y_adjust
	ldx     #>_sprite_gamemode_y_adjust
	ldy     #<.bank(_sprite_gamemode_y_adjust)
	jsr     crossPRGBankJump
	lda     ptr3+1
	sta     _tmpA+1
	lda     ptr3
	sta     _tmpA
;
; if (currplayer_vel_y > tmpA) currplayer_vel_y = tmpA;
;
	.dbg	line, "SAUCE/gamemodes/gamemode_ball.h", 118
	lda     _currplayer_vel_y
	sec
	sbc     _tmpA
	sta     tmp1
	lda     _currplayer_vel_y+1
	sbc     _tmpA+1
	ora     tmp1
	bcc     L0013
	beq     L0013
	lda     _tmpA+1
	sta     _currplayer_vel_y+1
	lda     _tmpA
	sta     _currplayer_vel_y
;
; robotjumpframe[currplayer] = 8;
;
	.dbg	line, "SAUCE/gamemodes/gamemode_ball.h", 119
L0013:	ldy     _currplayer
	lda     #$08
	sta     _robotjumpframe,y
;
; orbactive = 0;
;
	.dbg	line, "SAUCE/gamemodes/gamemode_ball.h", 122
L0018:	lda     #$00
L0019:	sta     _orbactive
;
; idx8_store(cube_data, currplayer, cube_data[currplayer] & 1);      //fix for orb
;
	.dbg	line, "SAUCE/gamemodes/gamemode_ball.h", 123
	ldy     _currplayer
	lda     _cube_data,y
	and     #$01
	sta     _cube_data,y
;
; } 
;
	.dbg	line, "SAUCE/gamemodes/gamemode_ball.h", 127
	rts

	.dbg	line
.endproc

; ---------------------------------------------------------------
; void __near__ ball_movement (void)
; ---------------------------------------------------------------

.segment	"XCD_BANK_01"

.proc	_ball_movement: near

	.dbg	func, "ball_movement", "00", static, "_ball_movement"

.segment	"XCD_BANK_01"

;
; if (gamemode == GAMEMODE_SWING || gamemode == GAMEMODE_POGO) {
;
	.dbg	line, "SAUCE/gamemodes/gamemode_ball.h", 19
	lda     _gamemode
	cmp     #$07
	beq     L002E
	cmp     #$09
	bne     L002F
;
; tmpfallspeed = SWING_MAX_FALLSPEED(currplayer_table_idx);
;
	.dbg	line, "SAUCE/gamemodes/gamemode_ball.h", 20
L002E:	ldy     _currplayer_table_idx
	lda     _SWING_MAX_FALLSPEED_hi,y
	sta     _tmpfallspeed+1
	lda     _SWING_MAX_FALLSPEED_lo,y
	sta     _tmpfallspeed
;
; tmpgravity = SWING_GRAVITY(currplayer_table_idx);
;
	.dbg	line, "SAUCE/gamemodes/gamemode_ball.h", 21
	ldy     _currplayer_table_idx
	lda     _SWING_GRAVITY_lo,y
	ldx     _SWING_GRAVITY_hi,y
;
; } else {  
;
	.dbg	line, "SAUCE/gamemodes/gamemode_ball.h", 23
	jmp     L003F
;
; tmpfallspeed = BALL_MAX_FALLSPEED(currplayer_table_idx);
;
	.dbg	line, "SAUCE/gamemodes/gamemode_ball.h", 24
L002F:	ldy     _currplayer_table_idx
	lda     _BALL_MAX_FALLSPEED_hi,y
	sta     _tmpfallspeed+1
	lda     _BALL_MAX_FALLSPEED_lo,y
	sta     _tmpfallspeed
;
; tmpgravity = BALL_GRAVITY(currplayer_table_idx);
;
	.dbg	line, "SAUCE/gamemodes/gamemode_ball.h", 25
	ldy     _currplayer_table_idx
	lda     _BALL_GRAVITY_lo,y
	ldx     _BALL_GRAVITY_hi,y
L003F:	sta     _tmpgravity
	stx     _tmpgravity+1
;
; common_gravity_routine();
;
	.dbg	line, "SAUCE/gamemodes/gamemode_ball.h", 26
	jsr     _common_gravity_routine
;
; Generic.x = high_byte(currplayer_x);
;
	.dbg	line, "SAUCE/gamemodes/gamemode_ball.h", 29
	lda     _currplayer_x+1
	sta     _Generic
;
; if (currplayer_gravity) {
;
	.dbg	line, "SAUCE/gamemodes/gamemode_ball.h", 32
	lda     _currplayer_gravity
	beq     L0030
;
; Generic.y = high_byte(currplayer_y) - 1;
;
	.dbg	line, "SAUCE/gamemodes/gamemode_ball.h", 33
	lda     _currplayer_y+1
	sec
	sbc     #$01
;
; } else {
;
	.dbg	line, "SAUCE/gamemodes/gamemode_ball.h", 34
	jmp     L003E
;
; Generic.y = high_byte(currplayer_y) + 1;
;
	.dbg	line, "SAUCE/gamemodes/gamemode_ball.h", 35
L0030:	lda     _currplayer_y+1
	clc
	adc     #$01
L003E:	ldx     #$00
	sta     _Generic+1
;
; ball_eject();
;
	.dbg	line, "SAUCE/gamemodes/gamemode_ball.h", 40
	jsr     _ball_eject
;
; Generic.y = high_byte(currplayer_y);
;
	.dbg	line, "SAUCE/gamemodes/gamemode_ball.h", 43
	lda     _currplayer_y+1
	sta     _Generic+1
;
; Generic.x = high_byte(currplayer_x);
;
	.dbg	line, "SAUCE/gamemodes/gamemode_ball.h", 44
	lda     _currplayer_x+1
	sta     _Generic
;
; if (currplayer_gravity) {
;
	.dbg	line, "SAUCE/gamemodes/gamemode_ball.h", 47
	lda     _currplayer_gravity
	beq     L0031
;
; Generic.y = high_byte(currplayer_y) - 1;
;
	.dbg	line, "SAUCE/gamemodes/gamemode_ball.h", 48
	lda     _currplayer_y+1
	sec
	sbc     #$01
;
; } else {
;
	.dbg	line, "SAUCE/gamemodes/gamemode_ball.h", 49
	jmp     L002D
;
; Generic.y = high_byte(currplayer_y) + 1;
;
	.dbg	line, "SAUCE/gamemodes/gamemode_ball.h", 50
L0031:	lda     _currplayer_y+1
	clc
	adc     #$01
L002D:	sta     _Generic+1
;
; if (gamemode == GAMEMODE_BALL) {
;
	.dbg	line, "SAUCE/gamemodes/gamemode_ball.h", 53
	lda     _gamemode
	cmp     #$02
	bne     L0036
;
; if (((controllingplayer->hold & (PAD_A | PAD_UP))) && (ball_switched[currplayer] == 0) && currplayer_vel_y == 0){
;
	.dbg	line, "SAUCE/gamemodes/gamemode_ball.h", 54
	ldy     #$00
	lda     (_controllingplayer),y
	and     #$88
	beq     L000F
	ldy     _currplayer
	ldx     #$00
	lda     _ball_switched,y
	bne     L000F
	lda     _currplayer_vel_y
	ora     _currplayer_vel_y+1
	bne     L000F
;
; jumps++;
;
	.dbg	line, "SAUCE/gamemodes/gamemode_ball.h", 55
	inc     _jumps
	bne     L0035
	inc     _jumps+1
;
; invert_gravity(currplayer_gravity);
;
	.dbg	line, "SAUCE/gamemodes/gamemode_ball.h", 56
L0035:	lda     _currplayer_gravity
	eor     #$FF
	sta     _currplayer_gravity
;
; update_currplayer_table_idx();
;
	.dbg	line, "SAUCE/gamemodes/gamemode_ball.h", 57
	jsr     _update_currplayer_table_idx
;
; ball_switched[currplayer] = 1;
;
	.dbg	line, "SAUCE/gamemodes/gamemode_ball.h", 58
	ldy     _currplayer
	lda     #$01
	sta     _ball_switched,y
;
; currplayer_vel_y = BALL_SWITCH_VEL(currplayer_table_idx);
;
	.dbg	line, "SAUCE/gamemodes/gamemode_ball.h", 59
	ldy     _currplayer_table_idx
	lda     _BALL_SWITCH_VEL_hi,y
	sta     _currplayer_vel_y+1
	lda     _BALL_SWITCH_VEL_lo,y
	sta     _currplayer_vel_y
;
; bg_coll_floor_spikes();
;
	.dbg	line, "SAUCE/gamemodes/gamemode_ball.h", 60
	jsr     _bg_coll_floor_spikes
;
; if(ball_switched[currplayer]){
;
	.dbg	line, "SAUCE/gamemodes/gamemode_ball.h", 62
L000F:	ldy     _currplayer
	lda     _ball_switched,y
	beq     L001C
;
; if (!(controllingplayer->hold & (PAD_A | PAD_UP))){
;
	.dbg	line, "SAUCE/gamemodes/gamemode_ball.h", 63
	ldy     #$00
	lda     (_controllingplayer),y
	and     #$88
	bne     L001C
;
; idx8_store(cube_data, currplayer, cube_data[currplayer] & 1);
;
	.dbg	line, "SAUCE/gamemodes/gamemode_ball.h", 64
	ldy     _currplayer
	lda     _cube_data,y
	and     #$01
	sta     _cube_data,y
;
; ball_switched[currplayer] = 0;   
;
	.dbg	line, "SAUCE/gamemodes/gamemode_ball.h", 65
	ldy     _currplayer
	lda     #$00
	sta     _ball_switched,y
;
; else if (gamemode == GAMEMODE_SWING) {  //swing
;
	.dbg	line, "SAUCE/gamemodes/gamemode_ball.h", 69
	jmp     L001C
L0036:	lda     _gamemode
	cmp     #$07
	bne     L001D
;
; if ((controllingplayer->press & (PAD_A | PAD_UP)) && !ufo_orbed[currplayer]){
;
	.dbg	line, "SAUCE/gamemodes/gamemode_ball.h", 70
	ldy     #$01
	lda     (_controllingplayer),y
	and     #$88
	beq     L001C
	ldy     _currplayer
	lda     _ufo_orbed,y
	bne     L001C
;
; invert_gravity(currplayer_gravity);
;
	.dbg	line, "SAUCE/gamemodes/gamemode_ball.h", 71
	tax
	lda     _currplayer_gravity
	eor     #$FF
	sta     _currplayer_gravity
;
; update_currplayer_table_idx();
;
	.dbg	line, "SAUCE/gamemodes/gamemode_ball.h", 72
	jsr     _update_currplayer_table_idx
;
; bg_coll_floor_spikes();
;
	.dbg	line, "SAUCE/gamemodes/gamemode_ball.h", 73
	jsr     _bg_coll_floor_spikes
;
; else {   //pogo
;
	.dbg	line, "SAUCE/gamemodes/gamemode_ball.h", 76
	jmp     L001C
;
; if (controllingplayer->press & (PAD_A | PAD_UP) && !orbhitonthisframe[currplayer]) {
;
	.dbg	line, "SAUCE/gamemodes/gamemode_ball.h", 77
L001D:	ldy     #$01
	lda     (_controllingplayer),y
	and     #$88
	beq     L001C
	ldy     _currplayer
	lda     _orbhitonthisframe,y
	bne     L001C
;
; table_offset = black_orb;
;
	.dbg	line, "SAUCE/gamemodes/gamemode_ball.h", 78
	lda     #$30
	sta     _tmp3
;
; collided = BLACK_ORB;
;
	.dbg	line, "SAUCE/gamemodes/gamemode_ball.h", 79
	lda     #$44
	sta     _tmp4
;
; crossPRGBankJump0(sprite_gamemode_controller_check);
;
	.dbg	line, "SAUCE/gamemodes/gamemode_ball.h", 80
	lda     #<_sprite_gamemode_controller_check
	ldx     #>_sprite_gamemode_controller_check
	ldy     #<.bank(_sprite_gamemode_controller_check)
	jsr     crossPRGBankJump
;
; idx8_store(cube_data,currplayer,cube_data[currplayer] | 0x02);
;
	.dbg	line, "SAUCE/gamemodes/gamemode_ball.h", 81
	ldy     _currplayer
	lda     _cube_data,y
	ora     #$02
	sta     _cube_data,y
;
; ufo_orbed[currplayer] = 0;
;
	.dbg	line, "SAUCE/gamemodes/gamemode_ball.h", 85
L001C:	ldy     _currplayer
	lda     #$00
	sta     _ufo_orbed,y
;
; }
;
	.dbg	line, "SAUCE/gamemodes/gamemode_ball.h", 86
	rts

	.dbg	line
.endproc

; ---------------------------------------------------------------
; void __near__ slope_jump_check (void)
; ---------------------------------------------------------------

.segment	"XCD_BANK_01"

.proc	_slope_jump_check: near

	.dbg	func, "slope_jump_check", "00", static, "_slope_jump_check"

.segment	"XCD_BANK_01"

;
; if (make_cube_jump_higher) {
;
	.dbg	line, "SAUCE/gamemodes/gamemode_cube.h", 241
	lda     _make_cube_jump_higher
	beq     L0002
;
; if ((currplayer_slope_type & SLOPE_DEGREES_MASK) != SLOPE_22DEG) {
;
	.dbg	line, "SAUCE/gamemodes/gamemode_cube.h", 242
	lda     _currplayer_slope_type
	and     #$03
	cmp     #$02
	beq     L0005
;
; currplayer_vel_y += MAKE_CUBE_JUMP_HIGHER(currplayer_table_idx);
;
	.dbg	line, "SAUCE/gamemodes/gamemode_cube.h", 243
	ldy     _currplayer_table_idx
	lda     _MAKE_CUBE_JUMP_HIGHER_lo,y
	ldx     _MAKE_CUBE_JUMP_HIGHER_hi,y
	clc
	adc     _currplayer_vel_y
	sta     _currplayer_vel_y
	txa
	adc     _currplayer_vel_y+1
	sta     _currplayer_vel_y+1
;
; make_cube_jump_higher = 0;
;
	.dbg	line, "SAUCE/gamemodes/gamemode_cube.h", 245
L0005:	lda     #$00
	sta     _make_cube_jump_higher
;
; }
;
	.dbg	line, "SAUCE/gamemodes/gamemode_cube.h", 247
L0002:	rts

	.dbg	line
.endproc

; ---------------------------------------------------------------
; void __near__ cube_eject (void)
; ---------------------------------------------------------------

.segment	"XCD_BANK_01"

.proc	_cube_eject: near

	.dbg	func, "cube_eject", "00", static, "_cube_eject"

.segment	"XCD_BANK_01"

;
; if(!currplayer_gravity || (currplayer_gravity && (hblocked[currplayer] | fblocked[currplayer]))){
;
	.dbg	line, "SAUCE/gamemodes/gamemode_cube.h", 203
	lda     _currplayer_gravity
	beq     L0026
	lda     _currplayer_gravity
	beq     L000E
	ldy     _currplayer
	lda     _hblocked,y
	ldy     _currplayer
	ora     _fblocked,y
	beq     L000E
;
; if(bg_coll_D()){ // check collision below
;
	.dbg	line, "SAUCE/gamemodes/gamemode_cube.h", 204
L0026:	jsr     _bg_coll_D
	tax
	beq     L000E
;
; high_byte(currplayer_y) -= eject_D;
;
	.dbg	line, "SAUCE/gamemodes/gamemode_cube.h", 205
	lda     _eject_D
	eor     #$FF
	sec
	adc     _currplayer_y+1
	sta     _currplayer_y+1
;
; low_byte(currplayer_y) = 0;
;
	.dbg	line, "SAUCE/gamemodes/gamemode_cube.h", 206
	lda     #$00
	sta     _currplayer_y
;
; if (!hblocked[currplayer]) {
;
	.dbg	line, "SAUCE/gamemodes/gamemode_cube.h", 207
	ldy     _currplayer
	lda     _hblocked,y
	bne     L000B
;
; currplayer_vel_y = 0;
;
	.dbg	line, "SAUCE/gamemodes/gamemode_cube.h", 208
	tax
;
; } else {
;
	.dbg	line, "SAUCE/gamemodes/gamemode_cube.h", 209
	jmp     L002D
;
; currplayer_vel_y = 0xffff;
;
	.dbg	line, "SAUCE/gamemodes/gamemode_cube.h", 210
L000B:	ldx     #$FF
	txa
L002D:	sta     _currplayer_vel_y
	stx     _currplayer_vel_y+1
;
; orbactive = 0;
;
	.dbg	line, "SAUCE/gamemodes/gamemode_cube.h", 212
	lda     #$00
	sta     _orbactive
;
; if (fblocked[currplayer]) {
;
	.dbg	line, "SAUCE/gamemodes/gamemode_cube.h", 213
	ldy     _currplayer
	lda     _fblocked,y
	beq     L000E
;
; currplayer_gravity = GRAVITY_DOWN;
;
	.dbg	line, "SAUCE/gamemodes/gamemode_cube.h", 214
	ldx     #$00
	txa
	sta     _currplayer_gravity
;
; update_currplayer_table_idx();
;
	.dbg	line, "SAUCE/gamemodes/gamemode_cube.h", 215
	jsr     _update_currplayer_table_idx
;
; if (currplayer_gravity || (!currplayer_gravity && (hblocked[currplayer] | fblocked[currplayer]))) {
;
	.dbg	line, "SAUCE/gamemodes/gamemode_cube.h", 221
L000E:	lda     _currplayer_gravity
	bne     L002B
	lda     _currplayer_gravity
	bne     L0029
	ldy     _currplayer
	lda     _hblocked,y
	ldy     _currplayer
	ora     _fblocked,y
	bne     L002B
	rts
L0029:	rts
;
; if(bg_coll_U()){ // check collision above
;
	.dbg	line, "SAUCE/gamemodes/gamemode_cube.h", 222
L002B:	jsr     _bg_coll_U
	tax
	beq     L001C
;
; high_byte(currplayer_y) -= eject_U;
;
	.dbg	line, "SAUCE/gamemodes/gamemode_cube.h", 223
	lda     _eject_U
	eor     #$FF
	sec
	adc     _currplayer_y+1
	sta     _currplayer_y+1
;
; low_byte(currplayer_y) = 0;
;
	.dbg	line, "SAUCE/gamemodes/gamemode_cube.h", 224
	ldx     #$00
	stx     _currplayer_y
;
; if (!hblocked[currplayer]) {
;
	.dbg	line, "SAUCE/gamemodes/gamemode_cube.h", 225
	ldy     _currplayer
	lda     _hblocked,y
;
; } else {
;
	.dbg	line, "SAUCE/gamemodes/gamemode_cube.h", 227
	beq     L002E
;
; currplayer_vel_y = 1;
;
	.dbg	line, "SAUCE/gamemodes/gamemode_cube.h", 228
	lda     #$01
L002E:	sta     _currplayer_vel_y
	stx     _currplayer_vel_y+1
;
; orbactive = 0;
;
	.dbg	line, "SAUCE/gamemodes/gamemode_cube.h", 230
	stx     _orbactive
;
; if (fblocked[currplayer]) {
;
	.dbg	line, "SAUCE/gamemodes/gamemode_cube.h", 231
	ldy     _currplayer
	lda     _fblocked,y
	beq     L001C
;
; currplayer_gravity = GRAVITY_UP;
;
	.dbg	line, "SAUCE/gamemodes/gamemode_cube.h", 232
	lda     #$FF
	sta     _currplayer_gravity
;
; update_currplayer_table_idx();
;
	.dbg	line, "SAUCE/gamemodes/gamemode_cube.h", 233
	jmp     _update_currplayer_table_idx
;
; }  
;
	.dbg	line, "SAUCE/gamemodes/gamemode_cube.h", 238
L001C:	rts

	.dbg	line
.endproc

; ---------------------------------------------------------------
; void __near__ cube_movement (void)
; ---------------------------------------------------------------

.segment	"XCD_BANK_01"

.proc	_cube_movement: near

	.dbg	func, "cube_movement", "00", static, "_cube_movement"

.segment	"XCD_BANK_01"

;
; tmpfallspeed = CUBE_MAX_FALLSPEED(currplayer_table_idx);
;
	.dbg	line, "SAUCE/gamemodes/gamemode_cube.h", 16
	ldy     _currplayer_table_idx
	lda     _CUBE_MAX_FALLSPEED_hi,y
	sta     _tmpfallspeed+1
	lda     _CUBE_MAX_FALLSPEED_lo,y
	sta     _tmpfallspeed
;
; tmpgravity = CUBE_GRAVITY(currplayer_table_idx);
;
	.dbg	line, "SAUCE/gamemodes/gamemode_cube.h", 17
	ldy     _currplayer_table_idx
	lda     _CUBE_GRAVITY_hi,y
	sta     _tmpgravity+1
	lda     _CUBE_GRAVITY_lo,y
	sta     _tmpgravity
;
; if (max_fallspeed == 0x07) {
;
	.dbg	line, "SAUCE/gamemodes/gamemode_cube.h", 19
	ldx     #$00
	lda     _max_fallspeed
	cmp     #$07
	bne     L0002
;
; tmpfallspeed += DASH_END_VEL_RESET(currplayer_table_idx);
;
	.dbg	line, "SAUCE/gamemodes/gamemode_cube.h", 20
	ldy     _currplayer_table_idx
	lda     _DASH_END_VEL_RESET_lo,y
	ldx     _DASH_END_VEL_RESET_hi,y
	clc
	adc     _tmpfallspeed
	sta     _tmpfallspeed
	txa
	adc     _tmpfallspeed+1
	sta     _tmpfallspeed+1
	tax
	lda     _tmpfallspeed
;
; common_gravity_routine();
;
	.dbg	line, "SAUCE/gamemodes/gamemode_cube.h", 23
L0002:	jsr     _common_gravity_routine
;
; Generic.x = high_byte(currplayer_x);
;
	.dbg	line, "SAUCE/gamemodes/gamemode_cube.h", 25
	lda     _currplayer_x+1
	sta     _Generic
;
; Generic.y = high_byte(currplayer_y);
;
	.dbg	line, "SAUCE/gamemodes/gamemode_cube.h", 26
	ldx     #$00
	lda     _currplayer_y+1
	sta     _Generic+1
;
; cube_eject();
;
	.dbg	line, "SAUCE/gamemodes/gamemode_cube.h", 29
	jsr     _cube_eject
;
; Generic.x = high_byte(currplayer_x); // the rest should be the same
;
	.dbg	line, "SAUCE/gamemodes/gamemode_cube.h", 33
	lda     _currplayer_x+1
	sta     _Generic
;
; Generic.y = high_byte(currplayer_y); // the rest should be the same
;
	.dbg	line, "SAUCE/gamemodes/gamemode_cube.h", 34
	ldx     #$00
	lda     _currplayer_y+1
	sta     _Generic+1
;
; update_currplayer_table_idx();
;
	.dbg	line, "SAUCE/gamemodes/gamemode_cube.h", 36
	jsr     _update_currplayer_table_idx
;
; if ((gamemode == GAMEMODE_CUBE && currplayer_vel_y == 0 && dashing[currplayer] == 0) || (gamemode == GAMEMODE_CUBE && (kandokidshack == 9 && dashing[currplayer] == 0)) || (gamemode == GAMEMODE_NINJA && !retro_mode)){  //cube
;
	.dbg	line, "SAUCE/gamemodes/gamemode_cube.h", 39
	lda     _gamemode
	bne     L00DD
	lda     _currplayer_vel_y
	ora     _currplayer_vel_y+1
	bne     L00DD
	ldy     _currplayer
	lda     _dashing,y
	beq     L00EB
L00DD:	lda     _gamemode
	bne     L00E4
	lda     _kandokidshack
	cmp     #$09
	bne     L00E4
	ldy     _currplayer
	lda     _dashing,y
	beq     L00EB
L00E4:	lda     _gamemode
	cmp     #$08
	jne     L0102
	lda     _retro_mode
	jne     L0102
;
; if (gamemode == GAMEMODE_NINJA && currplayer_vel_y == 0) ninjajumps[currplayer] = 3; //ninja jump reset
;
	.dbg	line, "SAUCE/gamemodes/gamemode_cube.h", 42
L00EB:	lda     _gamemode
	cmp     #$08
	bne     L00EE
	lda     _currplayer_vel_y
	ora     _currplayer_vel_y+1
	bne     L00EE
	ldy     _currplayer
	lda     #$03
	sta     _ninjajumps,y
;
; if (gamemode != GAMEMODE_NINJA) idx8_store(cube_data, currplayer, cube_data[currplayer] & 1);    
;
	.dbg	line, "SAUCE/gamemodes/gamemode_cube.h", 44
L00EE:	lda     _gamemode
	cmp     #$08
;
; else {
;
	.dbg	line, "SAUCE/gamemodes/gamemode_cube.h", 46
	bne     L0148
;
; if (ninjajumps[currplayer]) idx8_store(cube_data, currplayer, cube_data[currplayer] & 1);
;
	.dbg	line, "SAUCE/gamemodes/gamemode_cube.h", 47
	ldy     _currplayer
	lda     _ninjajumps,y
	beq     L001E
L0148:	ldy     _currplayer
	lda     _cube_data,y
	and     #$01
	sta     _cube_data,y
;
; if((controllingplayer->hold & (PAD_A | PAD_UP)) && (!jblocked[currplayer] && !fblocked[currplayer] && !kandokidshack && gamemode == GAMEMODE_CUBE)) {   //no jblock - hold A to buffer jump
;
	.dbg	line, "SAUCE/gamemodes/gamemode_cube.h", 50
L001E:	ldy     #$00
	lda     (_controllingplayer),y
	and     #$88
	beq     L0021
	ldy     _currplayer
	lda     _jblocked,y
	bne     L0021
	ldy     _currplayer
	lda     _fblocked,y
	bne     L0021
	lda     _kandokidshack
	bne     L0021
	lda     _gamemode
	bne     L0021
;
; if (!orbed[currplayer]) {
;
	.dbg	line, "SAUCE/gamemodes/gamemode_cube.h", 51
	ldy     _currplayer
	lda     _orbed,y
	jne     L013F
;
; jumps++;
;
	.dbg	line, "SAUCE/gamemodes/gamemode_cube.h", 52
	inc     _jumps
	bne     L00F5
	inc     _jumps+1
;
; currplayer_vel_y = JUMP_VEL(currplayer_table_idx); // JUMP
;
	.dbg	line, "SAUCE/gamemodes/gamemode_cube.h", 54
L00F5:	ldy     _currplayer_table_idx
	lda     _JUMP_VEL_lo,y
	ldx     _JUMP_VEL_hi,y
	sta     _currplayer_vel_y
	stx     _currplayer_vel_y+1
;
; slope_jump_check();
;
	.dbg	line, "SAUCE/gamemodes/gamemode_cube.h", 56
	jsr     _slope_jump_check
;
; else if((controllingplayer->press & (PAD_A | PAD_UP)) && (jblocked[currplayer] || fblocked[currplayer] || kandokidshack || (gamemode == GAMEMODE_NINJA && ninjajumps[currplayer] && !orbhitonthisframe[currplayer] && !orbed[currplayer]))) {  //jblock making you release and press A again to jump
;
	.dbg	line, "SAUCE/gamemodes/gamemode_cube.h", 61
	jmp     L013F
L0021:	ldy     #$01
	lda     (_controllingplayer),y
	and     #$88
	jeq     L013F
	ldy     _currplayer
	lda     _jblocked,y
	bne     L0100
	ldy     _currplayer
	lda     _fblocked,y
	bne     L0100
	lda     _kandokidshack
	bne     L0100
	lda     _gamemode
	cmp     #$08
	jne     L013F
	ldy     _currplayer
	lda     _ninjajumps,y
	jeq     L013F
	ldy     _currplayer
	lda     _orbhitonthisframe,y
	jne     L013F
	ldy     _currplayer
	lda     _orbed,y
	jne     L013F
;
; jumps++;
;
	.dbg	line, "SAUCE/gamemodes/gamemode_cube.h", 62
L0100:	inc     _jumps
	bne     L0101
	inc     _jumps+1
;
; currplayer_vel_y = JUMP_VEL(currplayer_table_idx); // JUMP
;
	.dbg	line, "SAUCE/gamemodes/gamemode_cube.h", 63
L0101:	ldy     _currplayer_table_idx
	lda     _JUMP_VEL_lo,y
	ldx     _JUMP_VEL_hi,y
	sta     _currplayer_vel_y
	stx     _currplayer_vel_y+1
;
; slope_jump_check();
;
	.dbg	line, "SAUCE/gamemodes/gamemode_cube.h", 65
	jsr     _slope_jump_check
;
; if (gamemode == GAMEMODE_NINJA) { idx8_dec(ninjajumps, currplayer); orbhitonthisframe[currplayer] = 1; }
;
	.dbg	line, "SAUCE/gamemodes/gamemode_cube.h", 67
	lda     _gamemode
	cmp     #$08
	jne     L013F
	ldx     _currplayer
	dec     _ninjajumps,x
	ldy     _currplayer
	lda     #$01
	sta     _orbhitonthisframe,y
;
; else if (gamemode == GAMEMODE_ROBOT || (retro_mode && gamemode == GAMEMODE_NINJA)) {
;
	.dbg	line, "SAUCE/gamemodes/gamemode_cube.h", 72
	jmp     L013F
L0102:	lda     _gamemode
	cmp     #$04
	beq     L010A
	lda     _retro_mode
	jeq     L013B
	lda     _gamemode
	cmp     #$08
	jne     L013B
;
; if (gamemode == GAMEMODE_NINJA && currplayer_vel_y == 0) ninjajumps[currplayer] = 3; //ninja jump reset
;
	.dbg	line, "SAUCE/gamemodes/gamemode_cube.h", 74
L010A:	lda     _gamemode
	cmp     #$08
	bne     L010D
	lda     _currplayer_vel_y
	ora     _currplayer_vel_y+1
	bne     L010D
	ldy     _currplayer
	lda     #$03
	sta     _ninjajumps,y
;
; else if (gamemode == GAMEMODE_NINJA && currplayer_vel_y != 0) {
;
	.dbg	line, "SAUCE/gamemodes/gamemode_cube.h", 76
	jmp     L0052
L010D:	lda     _gamemode
	cmp     #$08
	bne     L0052
	lda     _currplayer_vel_y
	ora     _currplayer_vel_y+1
	beq     L0052
;
; if (ninjajumps[currplayer]) idx8_store(cube_data, currplayer, cube_data[currplayer] & 1);
;
	.dbg	line, "SAUCE/gamemodes/gamemode_cube.h", 77
	ldy     _currplayer
	lda     _ninjajumps,y
	beq     L0052
	ldy     _currplayer
	lda     _cube_data,y
	and     #$01
	sta     _cube_data,y
;
; if (controllingplayer->press & (PAD_A | PAD_UP)) {
;
	.dbg	line, "SAUCE/gamemodes/gamemode_cube.h", 81
L0052:	ldy     #$01
	lda     (_controllingplayer),y
	and     #$88
	beq     L0055
;
; idx8_store(cube_data, currplayer, cube_data[currplayer] | 0b100); 
;
	.dbg	line, "SAUCE/gamemodes/gamemode_cube.h", 82
	ldy     _currplayer
	lda     _cube_data,y
	ora     #$04
	sta     _cube_data,y
;
; if ((!retro_mode && (currplayer_vel_y == 0) && !hblocked[currplayer] && dashing[currplayer] == 0 && cube_data[currplayer] & 4) || (dashing[currplayer] == 0 && kandokidshack == 9)){  //robot
;
	.dbg	line, "SAUCE/gamemodes/gamemode_cube.h", 86
L0055:	lda     _retro_mode
	bne     L00D6
	lda     _currplayer_vel_y
	ora     _currplayer_vel_y+1
	bne     L00D6
	ldy     _currplayer
	lda     _hblocked,y
	bne     L00D6
	ldy     _currplayer
	lda     _dashing,y
	bne     L00D6
	ldy     _currplayer
	lda     _cube_data,y
	and     #$04
	bne     L0118
L00D6:	ldy     _currplayer
	lda     _dashing,y
	bne     L011D
	lda     _kandokidshack
	cmp     #$09
	bne     L011D
;
; idx8_store(cube_data, currplayer, cube_data[currplayer] & 1);   
;
	.dbg	line, "SAUCE/gamemodes/gamemode_cube.h", 87
L0118:	ldy     _currplayer
	lda     _cube_data,y
	and     #$01
	sta     _cube_data,y
;
; if((controllingplayer->hold & (PAD_A | PAD_UP)) && !orbed[currplayer]) {
;
	.dbg	line, "SAUCE/gamemodes/gamemode_cube.h", 88
	ldy     #$00
	lda     (_controllingplayer),y
	and     #$88
	jeq     L013F
	ldy     _currplayer
	lda     _orbed,y
	jne     L013F
;
; if((controllingplayer->press & (PAD_A | PAD_UP))) jumps++;
;
	.dbg	line, "SAUCE/gamemodes/gamemode_cube.h", 89
	ldy     #$01
	lda     (_controllingplayer),y
	and     #$88
	beq     L011C
	inc     _jumps
	bne     L011C
	inc     _jumps+1
;
; currplayer_vel_y = ROBOT_JUMP_VEL(currplayer_table_idx); // JUMP
;
	.dbg	line, "SAUCE/gamemodes/gamemode_cube.h", 90
L011C:	ldy     _currplayer_table_idx
	lda     _ROBOT_JUMP_VEL_hi,y
	sta     _currplayer_vel_y+1
	lda     _ROBOT_JUMP_VEL_lo,y
	sta     _currplayer_vel_y
;
; __A__ = ROBOT_JUMP_TIME[framerate], __asm__("pha");
;
	.dbg	line, "SAUCE/gamemodes/gamemode_cube.h", 93
	ldy     _framerate
	lda     _ROBOT_JUMP_TIME,y
;
; idx8_store(robotjumptime, currplayer, (__asm__("pla"), __A__));
;
	.dbg	line, "SAUCE/gamemodes/gamemode_cube.h", 94
	ldy     _currplayer
	sta     _robotjumptime,y
;
; robotjumpframe[0] = 1;
;
	.dbg	line, "SAUCE/gamemodes/gamemode_cube.h", 95
	lda     #$01
	sta     _robotjumpframe
;
; else if ((gamemode == GAMEMODE_ROBOT && retro_mode && (currplayer_vel_y == 0) && !hblocked[currplayer] && dashing[currplayer] == 0 && cube_data[currplayer] & 4) || (gamemode == GAMEMODE_NINJA && retro_mode && !orbhitonthisframe[currplayer]  && ninjajumps[currplayer] && !hblocked[currplayer] && dashing[currplayer] == 0 && cube_data[currplayer] & 4)) {  //jim
;
	.dbg	line, "SAUCE/gamemodes/gamemode_cube.h", 99
	jmp     L013F
L011D:	lda     _gamemode
	cmp     #$04
	bne     L0121
	lda     _retro_mode
	beq     L0121
	lda     _currplayer_vel_y
	ora     _currplayer_vel_y+1
	bne     L0121
	ldy     _currplayer
	lda     _hblocked,y
	bne     L0121
	ldy     _currplayer
	lda     _dashing,y
	bne     L0121
	ldy     _currplayer
	lda     _cube_data,y
	and     #$04
	bne     L0129
L0121:	lda     _gamemode
	cmp     #$08
	jne     L006F
	lda     _retro_mode
	jeq     L006F
	ldy     _currplayer
	lda     _orbhitonthisframe,y
	jne     L006F
	ldy     _currplayer
	lda     _ninjajumps,y
	jeq     L006F
	ldy     _currplayer
	lda     _hblocked,y
	bne     L006F
	ldy     _currplayer
	lda     _dashing,y
	bne     L006F
	ldy     _currplayer
	lda     _cube_data,y
	and     #$04
	beq     L006F
;
; idx8_store(cube_data, currplayer, cube_data[currplayer] & 1);  
;
	.dbg	line, "SAUCE/gamemodes/gamemode_cube.h", 100
L0129:	ldy     _currplayer
	lda     _cube_data,y
	and     #$01
	sta     _cube_data,y
;
; if((controllingplayer->hold & (PAD_A | PAD_UP)) && !orbed[currplayer]) {
;
	.dbg	line, "SAUCE/gamemodes/gamemode_cube.h", 101
	ldy     #$00
	lda     (_controllingplayer),y
	and     #$88
	jeq     L013F
	ldy     _currplayer
	lda     _orbed,y
	jne     L013F
;
; if((controllingplayer->press & (PAD_A | PAD_UP))) jumps++;
;
	.dbg	line, "SAUCE/gamemodes/gamemode_cube.h", 102
	ldy     #$01
	lda     (_controllingplayer),y
	and     #$88
	beq     L012D
	inc     _jumps
	bne     L012D
	inc     _jumps+1
;
; currplayer_vel_y = ROBOT_JUMP_VEL(currplayer_table_idx); // JUMP
;
	.dbg	line, "SAUCE/gamemodes/gamemode_cube.h", 103
L012D:	ldy     _currplayer_table_idx
	lda     _ROBOT_JUMP_VEL_hi,y
	sta     _currplayer_vel_y+1
	lda     _ROBOT_JUMP_VEL_lo,y
	sta     _currplayer_vel_y
;
; if (gamemode == GAMEMODE_NINJA) { idx8_dec(ninjajumps, currplayer); orbhitonthisframe[currplayer] = 1; }
;
	.dbg	line, "SAUCE/gamemodes/gamemode_cube.h", 105
	lda     _gamemode
	cmp     #$08
	bne     L0089
	ldx     _currplayer
	dec     _ninjajumps,x
	ldy     _currplayer
	lda     #$01
	sta     _orbhitonthisframe,y
;
; __A__ = ROBOT_JUMP_TIME[framerate], __asm__("pha");
;
	.dbg	line, "SAUCE/gamemodes/gamemode_cube.h", 108
L0089:	ldy     _framerate
	lda     _ROBOT_JUMP_TIME,y
;
; idx8_store(robotjumptime, currplayer, (__asm__("pla"), __A__));
;
	.dbg	line, "SAUCE/gamemodes/gamemode_cube.h", 109
	ldy     _currplayer
	sta     _robotjumptime,y
;
; robotjumpframe[0] = 1;
;
	.dbg	line, "SAUCE/gamemodes/gamemode_cube.h", 110
	lda     #$01
	sta     _robotjumpframe
;
; else if (robotjumptime[currplayer] && !hblocked[currplayer]) {
;
	.dbg	line, "SAUCE/gamemodes/gamemode_cube.h", 114
	jmp     L013F
L006F:	ldy     _currplayer
	lda     _robotjumptime,y
	jeq     L008D
	ldy     _currplayer
	lda     _hblocked,y
	jne     L008D
;
; idx8_store(cube_data, currplayer, cube_data[currplayer] & 0b11111011); 
;
	.dbg	line, "SAUCE/gamemodes/gamemode_cube.h", 116
	ldy     _currplayer
	lda     _cube_data,y
	and     #$FB
	sta     _cube_data,y
;
; cube_data[currplayer] = 0;
;
	.dbg	line, "SAUCE/gamemodes/gamemode_cube.h", 117
	ldy     _currplayer
	lda     #$00
	sta     _cube_data,y
;
; if (robotjumptime[currplayer]) idx8_dec(robotjumptime, currplayer); 
;
	.dbg	line, "SAUCE/gamemodes/gamemode_cube.h", 118
	ldy     _currplayer
	lda     _robotjumptime,y
	beq     L0095
	ldx     _currplayer
	dec     _robotjumptime,x
;
; if((controllingplayer->hold & (PAD_A | PAD_UP)) && !jblocked[currplayer] && !orbed[currplayer]) { 
;
	.dbg	line, "SAUCE/gamemodes/gamemode_cube.h", 119
L0095:	ldy     #$00
	lda     (_controllingplayer),y
	and     #$88
	beq     L0097
	ldy     _currplayer
	lda     _jblocked,y
	bne     L0097
	ldy     _currplayer
	lda     _orbed,y
	bne     L0097
;
; if((controllingplayer->press & (PAD_A | PAD_UP))) jumps++;
;
	.dbg	line, "SAUCE/gamemodes/gamemode_cube.h", 120
	ldy     #$01
	lda     (_controllingplayer),y
	and     #$88
	beq     L009E
	inc     _jumps
	bne     L009E
	inc     _jumps+1
;
; if (robotjumpframe[0]) robotjumpframe[0]++;
;
	.dbg	line, "SAUCE/gamemodes/gamemode_cube.h", 121
L009E:	lda     _robotjumpframe
	beq     L0134
	inc     _robotjumpframe
;
; if ( robotjumpframe[0] > 3 ) robotjumpframe[0] = 3;
;
	.dbg	line, "SAUCE/gamemodes/gamemode_cube.h", 122
L0134:	lda     _robotjumpframe
	cmp     #$04
	bcc     L0135
	lda     #$03
	sta     _robotjumpframe
;
; currplayer_vel_y = ROBOT_JUMP_VEL(currplayer_table_idx); // JUMP
;
	.dbg	line, "SAUCE/gamemodes/gamemode_cube.h", 123
L0135:	ldy     _currplayer_table_idx
	lda     _ROBOT_JUMP_VEL_hi,y
	sta     _currplayer_vel_y+1
	lda     _ROBOT_JUMP_VEL_lo,y
	sta     _currplayer_vel_y
;
; else if((controllingplayer->press & (PAD_A | PAD_UP)) && jblocked[currplayer] && !orbed[currplayer]) { 
;
	.dbg	line, "SAUCE/gamemodes/gamemode_cube.h", 125
	jmp     L013F
L0097:	ldy     #$01
	lda     (_controllingplayer),y
	and     #$88
	beq     L00A2
	ldy     _currplayer
	lda     _jblocked,y
	beq     L00A2
	ldy     _currplayer
	lda     _orbed,y
	bne     L00A2
;
; jumps++;
;
	.dbg	line, "SAUCE/gamemodes/gamemode_cube.h", 126
	inc     _jumps
	bne     L00A8
	inc     _jumps+1
;
; if (robotjumpframe[0]) robotjumpframe[0]++;
;
	.dbg	line, "SAUCE/gamemodes/gamemode_cube.h", 127
L00A8:	lda     _robotjumpframe
	beq     L0139
	inc     _robotjumpframe
;
; if ( robotjumpframe[0] > 3 ) robotjumpframe[0] = 3;
;
	.dbg	line, "SAUCE/gamemodes/gamemode_cube.h", 128
L0139:	lda     _robotjumpframe
	cmp     #$04
	bcc     L013A
	lda     #$03
	sta     _robotjumpframe
;
; currplayer_vel_y = ROBOT_JUMP_VEL(currplayer_table_idx); // JUMP
;
	.dbg	line, "SAUCE/gamemodes/gamemode_cube.h", 129
L013A:	ldy     _currplayer_table_idx
	lda     _ROBOT_JUMP_VEL_hi,y
	sta     _currplayer_vel_y+1
	lda     _ROBOT_JUMP_VEL_lo,y
	sta     _currplayer_vel_y
;
; else { 
;
	.dbg	line, "SAUCE/gamemodes/gamemode_cube.h", 131
	jmp     L013F
;
; robotjumptime[currplayer] = 0; robotjumpframe[0] = 0; 
;
	.dbg	line, "SAUCE/gamemodes/gamemode_cube.h", 132
L00A2:	ldy     _currplayer
	lda     #$00
	sta     _robotjumptime,y
	sta     _robotjumpframe
;
; else if (currplayer_vel_y != 0){  
;
	.dbg	line, "SAUCE/gamemodes/gamemode_cube.h", 135
	jmp     L013F
L008D:	lda     _currplayer_vel_y
	ora     _currplayer_vel_y+1
	beq     L013F
;
; robotjumpframe[0] = 3;
;
	.dbg	line, "SAUCE/gamemodes/gamemode_cube.h", 136
	lda     #$03
	sta     _robotjumpframe
;
; else if (gamemode == GAMEMODE_FOOTBALL) {
;
	.dbg	line, "SAUCE/gamemodes/gamemode_cube.h", 140
	jmp     L013F
L013B:	lda     _gamemode
	cmp     #$0B
	bne     L013F
;
; if (controllingplayer->hold & (PAD_A | PAD_UP) && !orbed[currplayer]) { chargepower[currplayer]++; }
;
	.dbg	line, "SAUCE/gamemodes/gamemode_cube.h", 142
	ldy     #$00
	lda     (_controllingplayer),y
	and     #$88
	beq     L00B2
	ldy     _currplayer
	lda     _orbed,y
	bne     L00B2
	lda     #<(_chargepower)
	ldx     #>(_chargepower)
	clc
	adc     _currplayer
	bcc     L00B7
	inx
L00B7:	sta     sreg
	stx     sreg+1
	sta     ptr1
	stx     ptr1+1
	ldy     #$00
	lda     (ptr1),y
	clc
	adc     #$01
	sta     (sreg),y
;
; if (chargepower[currplayer] >= 50) { chargepower[currplayer] = 0; orbed[currplayer] = 1; }
;
	.dbg	line, "SAUCE/gamemodes/gamemode_cube.h", 143
L00B2:	ldy     _currplayer
	lda     _chargepower,y
	cmp     #$32
	bcc     L013F
	ldy     _currplayer
	lda     #$00
	sta     _chargepower,y
	ldy     _currplayer
	lda     #$01
	sta     _orbed,y
;
; if (gamemode == GAMEMODE_FOOTBALL && !(controllingplayer->hold & (PAD_A | PAD_UP))) {
;
	.dbg	line, "SAUCE/gamemodes/gamemode_cube.h", 147
L013F:	lda     _gamemode
	cmp     #$0B
	bne     L00BC
	ldy     #$00
	lda     (_controllingplayer),y
	and     #$88
	bne     L00BC
;
; orbed[currplayer] = 0;
;
	.dbg	line, "SAUCE/gamemodes/gamemode_cube.h", 149
	ldy     _currplayer
	sta     _orbed,y
;
; tmp3 = (chargepower[currplayer] > 45 ? 45 : chargepower[currplayer]);
;
	.dbg	line, "SAUCE/gamemodes/gamemode_cube.h", 151
	lda     _chargepower,y
	cmp     #$2E
	bcc     L00C2
	lda     #$2D
	jmp     L0142
L00C2:	ldy     _currplayer
	lda     _chargepower,y
L0142:	sta     _tmp3
;
; tmpA = (tmp3 * (currplayer_gravity ? 0x004C : -0x004C));
;
	.dbg	line, "SAUCE/gamemodes/gamemode_cube.h", 153
	lda     _tmp3
	jsr     pusha0
	lda     _currplayer_gravity
	beq     L00C5
	lda     #$4C
	jmp     L00C6
L00C5:	ldx     #$FF
	lda     #$B4
L00C6:	jsr     tosmulax
	sta     _tmpA
	stx     _tmpA+1
;
; if (chargepower[currplayer] && currplayer_vel_y == 0) { currplayer_vel_y = tmpA; }
;
	.dbg	line, "SAUCE/gamemodes/gamemode_cube.h", 155
	ldy     _currplayer
	lda     _chargepower,y
	beq     L00C7
	lda     _currplayer_vel_y
	ora     _currplayer_vel_y+1
	bne     L00C7
	lda     _tmpA+1
	sta     _currplayer_vel_y+1
	lda     _tmpA
	sta     _currplayer_vel_y
;
; chargepower[currplayer] = 0;
;
	.dbg	line, "SAUCE/gamemodes/gamemode_cube.h", 157
L00C7:	ldy     _currplayer
	lda     #$00
	sta     _chargepower,y
;
; fblocked[currplayer] = 0;
;
	.dbg	line, "SAUCE/gamemodes/gamemode_cube.h", 160
L00BC:	ldy     _currplayer
	lda     #$00
	sta     _fblocked,y
;
; hblocked[currplayer] = 0;
;
	.dbg	line, "SAUCE/gamemodes/gamemode_cube.h", 161
	ldy     _currplayer
	sta     _hblocked,y
;
; jblocked[currplayer] = 0;
;
	.dbg	line, "SAUCE/gamemodes/gamemode_cube.h", 162
	sta     _jblocked,y
;
; } 
;
	.dbg	line, "SAUCE/gamemodes/gamemode_cube.h", 164
	rts

	.dbg	line
.endproc

; ---------------------------------------------------------------
; void __near__ is_player_falling (void)
; ---------------------------------------------------------------

.segment	"XCD_BANK_01"

.proc	_is_player_falling: near

	.dbg	func, "is_player_falling", "00", static, "_is_player_falling"

.segment	"XCD_BANK_01"

;
; tmp1 = (currplayer_gravity ? (currplayer_vel_y < 0) : (currplayer_vel_y > 0));
;
	.dbg	line, "SAUCE/gamemodes/gamemode_ship.h", 7
	lda     _currplayer_gravity
	beq     L0002
	ldx     _currplayer_vel_y+1
	cpx     #$80
	jmp     L0006
L0002:	lda     _currplayer_vel_y
	cmp     #$01
	lda     _currplayer_vel_y+1
	sbc     #$00
	bvs     L0004
	eor     #$80
L0004:	asl     a
L0006:	lda     #$00
	rol     a
	sta     _tmp1
;
; }
;
	.dbg	line, "SAUCE/gamemodes/gamemode_ship.h", 8
	rts

	.dbg	line
.endproc

; ---------------------------------------------------------------
; void __near__ ship_movement (void)
; ---------------------------------------------------------------

.segment	"XCD_BANK_01"

.proc	_ship_movement: near

	.dbg	func, "ship_movement", "00", static, "_ship_movement"

.segment	"XCD_BANK_01"

;
; is_player_falling();
;
	.dbg	line, "SAUCE/gamemodes/gamemode_ship.h", 11
	jsr     _is_player_falling
;
; tmp2 = (controllingplayer->hold & (PAD_A | PAD_UP)) != 0; // input
;
	.dbg	line, "SAUCE/gamemodes/gamemode_ship.h", 13
	ldy     #$00
	lda     (_controllingplayer),y
	and     #$88
	jsr     boolne
	sta     _tmp2
;
; if (tmp2) { // holding
;
	.dbg	line, "SAUCE/gamemodes/gamemode_ship.h", 15
	lda     _tmp2
	beq     L0003
;
; tmpgravity = SHIP_GRAVITY_BASE(currplayer_table_idx);
;
	.dbg	line, "SAUCE/gamemodes/gamemode_ship.h", 16
	ldy     _currplayer_table_idx
	lda     _SHIP_GRAVITY_BASE_hi,y
	sta     _tmpgravity+1
	lda     _SHIP_GRAVITY_BASE_lo,y
;
; } else if (
;
	.dbg	line, "SAUCE/gamemodes/gamemode_ship.h", 17
	jmp     L001B
;
; !tmp2 && // not holding
;
	.dbg	line, "SAUCE/gamemodes/gamemode_ship.h", 18
L0003:	lda     _tmp2
	bne     L001F
;
; ){
;
	.dbg	line, "SAUCE/gamemodes/gamemode_ship.h", 20
	lda     _tmp1
	bne     L001F
;
; tmpgravity = SHIP_GRAVITY_AFTER_HOLD(currplayer_table_idx);
;
	.dbg	line, "SAUCE/gamemodes/gamemode_ship.h", 21
	ldy     _currplayer_table_idx
	lda     _SHIP_GRAVITY_AFTER_HOLD_hi,y
	sta     _tmpgravity+1
	lda     _SHIP_GRAVITY_AFTER_HOLD_lo,y
;
; } else {
;
	.dbg	line, "SAUCE/gamemodes/gamemode_ship.h", 22
	jmp     L001B
;
; tmpgravity = SHIP_GRAVITY(currplayer_table_idx);
;
	.dbg	line, "SAUCE/gamemodes/gamemode_ship.h", 23
L001F:	ldy     _currplayer_table_idx
	lda     _SHIP_GRAVITY_hi,y
	sta     _tmpgravity+1
	lda     _SHIP_GRAVITY_lo,y
L001B:	sta     _tmpgravity
;
; if (tmp2 && // holding
;
	.dbg	line, "SAUCE/gamemodes/gamemode_ship.h", 26
	lda     _tmp2
	beq     L0023
;
; ){
;
	.dbg	line, "SAUCE/gamemodes/gamemode_ship.h", 28
	lda     _tmp1
	beq     L0023
;
; tmpgravity = SHIP_GRAVITY_HOLD_FALL(currplayer_table_idx);
;
	.dbg	line, "SAUCE/gamemodes/gamemode_ship.h", 29
	ldy     _currplayer_table_idx
	lda     _SHIP_GRAVITY_HOLD_FALL_hi,y
	sta     _tmpgravity+1
	lda     _SHIP_GRAVITY_HOLD_FALL_lo,y
	sta     _tmpgravity
;
; if (tmp2 ^ (currplayer_gravity ? 1 : 0)) {
;
	.dbg	line, "SAUCE/gamemodes/gamemode_ship.h", 32
L0023:	lda     _currplayer_gravity
	beq     L0010
	lda     #$01
L0010:	eor     _tmp2
	beq     L000E
;
; tmpgravity = -tmpgravity;
;
	.dbg	line, "SAUCE/gamemodes/gamemode_ship.h", 33
	lda     _tmpgravity
	ldx     _tmpgravity+1
	jsr     negax
	sta     _tmpgravity
	stx     _tmpgravity+1
;
; tmpfallspeed = 0x4443;
;
	.dbg	line, "SAUCE/gamemodes/gamemode_ship.h", 37
L000E:	ldx     #$44
	lda     #$43
	sta     _tmpfallspeed
	stx     _tmpfallspeed+1
;
; common_gravity_routine();
;
	.dbg	line, "SAUCE/gamemodes/gamemode_ship.h", 39
	jsr     _common_gravity_routine
;
; if (currplayer_gravity) {
;
	.dbg	line, "SAUCE/gamemodes/gamemode_ship.h", 42
	lda     _currplayer_gravity
	beq     L0011
;
; if(currplayer_vel_y < -0x0369) currplayer_vel_y = -0x0369;
;
	.dbg	line, "SAUCE/gamemodes/gamemode_ship.h", 43
	lda     _currplayer_vel_y
	cmp     #$97
	lda     _currplayer_vel_y+1
	sbc     #$FC
	bvc     L0013
	eor     #$80
L0013:	bpl     L0012
	ldx     #$FC
	lda     #$97
	sta     _currplayer_vel_y
	stx     _currplayer_vel_y+1
;
; if(currplayer_vel_y > 0x0443) currplayer_vel_y = 0x0443;
;
	.dbg	line, "SAUCE/gamemodes/gamemode_ship.h", 44
L0012:	lda     _currplayer_vel_y
	cmp     #$44
	lda     _currplayer_vel_y+1
	sbc     #$04
	bvs     L0015
	eor     #$80
L0015:	bpl     L0025
	ldx     #$04
	lda     #$43
;
; } else {
;
	.dbg	line, "SAUCE/gamemodes/gamemode_ship.h", 45
	jmp     L0026
;
; if(currplayer_vel_y < -0x0443) currplayer_vel_y = -0x0443;
;
	.dbg	line, "SAUCE/gamemodes/gamemode_ship.h", 46
L0011:	lda     _currplayer_vel_y
	cmp     #$BD
	lda     _currplayer_vel_y+1
	sbc     #$FB
	bvc     L0018
	eor     #$80
L0018:	bpl     L0017
	ldx     #$FB
	lda     #$BD
	sta     _currplayer_vel_y
	stx     _currplayer_vel_y+1
;
; if(currplayer_vel_y > 0x0369) currplayer_vel_y = 0x0369;
;
	.dbg	line, "SAUCE/gamemodes/gamemode_ship.h", 47
L0017:	lda     _currplayer_vel_y
	cmp     #$6A
	lda     _currplayer_vel_y+1
	sbc     #$03
	bvs     L001A
	eor     #$80
L001A:	bpl     L0025
	ldx     #$03
	lda     #$69
L0026:	sta     _currplayer_vel_y
	stx     _currplayer_vel_y+1
;
; Generic.x = high_byte(currplayer_x);
;
	.dbg	line, "SAUCE/gamemodes/gamemode_ship.h", 50
L0025:	lda     _currplayer_x+1
	sta     _Generic
;
; Generic.y = high_byte(currplayer_y);
;
	.dbg	line, "SAUCE/gamemodes/gamemode_ship.h", 51
	ldx     #$00
	lda     _currplayer_y+1
	sta     _Generic+1
;
; ufo_ship_eject();
;
	.dbg	line, "SAUCE/gamemodes/gamemode_ship.h", 54
	jmp     _ufo_ship_eject

	.dbg	line
.endproc

; ---------------------------------------------------------------
; void __near__ spider_eject (void)
; ---------------------------------------------------------------

.segment	"XCD_BANK_01"

.proc	_spider_eject: near

	.dbg	func, "spider_eject", "00", static, "_spider_eject"

.segment	"XCD_BANK_01"

;
; if(!currplayer_gravity){
;
	.dbg	line, "SAUCE/gamemodes/gamemode_spider.h", 74
	lda     _currplayer_gravity
	bne     L0002
;
; if(bg_coll_D()){ // check collision below
;
	.dbg	line, "SAUCE/gamemodes/gamemode_spider.h", 75
	jsr     _bg_coll_D
	tax
	beq     L0005
;
; high_byte(currplayer_y) -= eject_D;
;
	.dbg	line, "SAUCE/gamemodes/gamemode_spider.h", 76
	lda     _eject_D
;
; } else {
;
	.dbg	line, "SAUCE/gamemodes/gamemode_spider.h", 81
	jmp     L000D
;
; if(bg_coll_U()){ // check collision above
;
	.dbg	line, "SAUCE/gamemodes/gamemode_spider.h", 82
L0002:	jsr     _bg_coll_U
	tax
	beq     L0005
;
; high_byte(currplayer_y) -= eject_U + 1;
;
	.dbg	line, "SAUCE/gamemodes/gamemode_spider.h", 83
	lda     _eject_U
	clc
	adc     #$01
L000D:	eor     #$FF
	sec
	adc     _currplayer_y+1
	sta     _currplayer_y+1
;
; currplayer_vel_y = 0;
;
	.dbg	line, "SAUCE/gamemodes/gamemode_spider.h", 84
	lda     #$00
	sta     _currplayer_vel_y
	sta     _currplayer_vel_y+1
;
; }
;
	.dbg	line, "SAUCE/gamemodes/gamemode_spider.h", 88
L0005:	rts

	.dbg	line
.endproc

; ---------------------------------------------------------------
; void __near__ spider_movement (void)
; ---------------------------------------------------------------

.segment	"XCD_BANK_01"

.proc	_spider_movement: near

	.dbg	func, "spider_movement", "00", static, "_spider_movement"

.segment	"XCD_BANK_01"

;
; tmpfallspeed = SPIDER_MAX_FALLSPEED(currplayer_table_idx);
;
	.dbg	line, "SAUCE/gamemodes/gamemode_spider.h", 9
	ldy     _currplayer_table_idx
	lda     _SPIDER_MAX_FALLSPEED_hi,y
	sta     _tmpfallspeed+1
	lda     _SPIDER_MAX_FALLSPEED_lo,y
	sta     _tmpfallspeed
;
; tmpgravity = SPIDER_GRAVITY(currplayer_table_idx);
;
	.dbg	line, "SAUCE/gamemodes/gamemode_spider.h", 10
	ldy     _currplayer_table_idx
	lda     _SPIDER_GRAVITY_hi,y
	sta     _tmpgravity+1
	lda     _SPIDER_GRAVITY_lo,y
	sta     _tmpgravity
;
; common_gravity_routine();
;
	.dbg	line, "SAUCE/gamemodes/gamemode_spider.h", 12
	jsr     _common_gravity_routine
;
; Generic.x = high_byte(currplayer_x);
;
	.dbg	line, "SAUCE/gamemodes/gamemode_spider.h", 14
	lda     _currplayer_x+1
	sta     _Generic
;
; if (currplayer_gravity) {
;
	.dbg	line, "SAUCE/gamemodes/gamemode_spider.h", 17
	lda     _currplayer_gravity
	beq     L0034
;
; Generic.y = high_byte(currplayer_y) - 2;
;
	.dbg	line, "SAUCE/gamemodes/gamemode_spider.h", 18
	lda     _currplayer_y+1
	sec
	sbc     #$02
;
; } else {
;
	.dbg	line, "SAUCE/gamemodes/gamemode_spider.h", 19
	jmp     L0048
;
; Generic.y = high_byte(currplayer_y) + 1;
;
	.dbg	line, "SAUCE/gamemodes/gamemode_spider.h", 20
L0034:	lda     _currplayer_y+1
	clc
	adc     #$01
L0048:	ldx     #$00
	sta     _Generic+1
;
; spider_eject();
;
	.dbg	line, "SAUCE/gamemodes/gamemode_spider.h", 23
	jsr     _spider_eject
;
; if (!currplayer_gravity) {
;
	.dbg	line, "SAUCE/gamemodes/gamemode_spider.h", 25
	lda     _currplayer_gravity
	bne     L0006
;
; if(((controllingplayer->press & (PAD_A | PAD_UP)) ||
;
	.dbg	line, "SAUCE/gamemodes/gamemode_spider.h", 26
	ldy     #$01
	lda     (_controllingplayer),y
	and     #$88
	bne     L0039
;
; ((controllingplayer->hold & (PAD_A | PAD_UP)) && black_orbed[currplayer]) ||
;
	.dbg	line, "SAUCE/gamemodes/gamemode_spider.h", 27
	dey
	lda     (_controllingplayer),y
	and     #$88
	beq     L0030
	ldy     _currplayer
	lda     _black_orbed,y
	bne     L0039
;
; cube_data[currplayer] & 2) && currplayer_vel_y == 0 && !orbed[currplayer] && !dashing[currplayer]) {
;
	.dbg	line, "SAUCE/gamemodes/gamemode_spider.h", 28
L0030:	ldy     _currplayer
	lda     _cube_data,y
	and     #$02
	jeq     L001C
L0039:	lda     _currplayer_vel_y
	ora     _currplayer_vel_y+1
	jne     L001C
	ldy     _currplayer
	lda     _orbed,y
	jne     L001C
	ldy     _currplayer
	lda     _dashing,y
	jne     L001C
;
; idx8_store(cube_data, currplayer, cube_data[currplayer] & 0b11111101); 
;
	.dbg	line, "SAUCE/gamemodes/gamemode_spider.h", 29
	ldy     _currplayer
	lda     _cube_data,y
	and     #$FD
	ldx     #$00
	sta     _cube_data,y
;
; jumps++;
;
	.dbg	line, "SAUCE/gamemodes/gamemode_spider.h", 30
	inc     _jumps
	bne     L003D
	inc     _jumps+1
;
; currplayer_gravity = GRAVITY_UP;
;
	.dbg	line, "SAUCE/gamemodes/gamemode_spider.h", 31
L003D:	lda     #$FF
	sta     _currplayer_gravity
;
; update_currplayer_table_idx();
;
	.dbg	line, "SAUCE/gamemodes/gamemode_spider.h", 32
	jsr     _update_currplayer_table_idx
;
; spider_up_wait();
;
	.dbg	line, "SAUCE/gamemodes/gamemode_spider.h", 33
	jsr     _spider_up_wait
;
; high_byte(currplayer_y) -= eject_U;
;
	.dbg	line, "SAUCE/gamemodes/gamemode_spider.h", 34
	lda     _eject_U
	eor     #$FF
	sec
	adc     _currplayer_y+1
	sta     _currplayer_y+1
;
; currplayer_vel_y = 0;
;
	.dbg	line, "SAUCE/gamemodes/gamemode_spider.h", 35
	lda     #$00
	sta     _currplayer_vel_y
	sta     _currplayer_vel_y+1
;
; else if (!(controllingplayer->hold & (PAD_A | PAD_UP))) black_orbed[currplayer] = 0;
;
	.dbg	line, "SAUCE/gamemodes/gamemode_spider.h", 38
	jmp     L0049
;
; if(((controllingplayer->press & (PAD_A | PAD_UP)) ||
;
	.dbg	line, "SAUCE/gamemodes/gamemode_spider.h", 41
L0006:	ldy     #$01
	lda     (_controllingplayer),y
	and     #$88
	bne     L0042
;
; ((controllingplayer->hold & (PAD_A | PAD_UP)) && black_orbed[currplayer]) ||
;
	.dbg	line, "SAUCE/gamemodes/gamemode_spider.h", 42
	dey
	lda     (_controllingplayer),y
	and     #$88
	beq     L0031
	ldy     _currplayer
	lda     _black_orbed,y
	bne     L0042
;
; cube_data[currplayer] & 2) && currplayer_vel_y == 0 && !orbed[currplayer] && !dashing[currplayer]) {
;
	.dbg	line, "SAUCE/gamemodes/gamemode_spider.h", 43
L0031:	ldy     _currplayer
	lda     _cube_data,y
	and     #$02
	beq     L001C
L0042:	lda     _currplayer_vel_y
	ora     _currplayer_vel_y+1
	bne     L001C
	ldy     _currplayer
	lda     _orbed,y
	bne     L001C
	ldy     _currplayer
	lda     _dashing,y
	bne     L001C
;
; idx8_store(cube_data, currplayer, cube_data[currplayer] & 0b11111101);
;
	.dbg	line, "SAUCE/gamemodes/gamemode_spider.h", 44
	ldy     _currplayer
	lda     _cube_data,y
	and     #$FD
	ldx     #$00
	sta     _cube_data,y
;
; jumps++;
;
	.dbg	line, "SAUCE/gamemodes/gamemode_spider.h", 45
	inc     _jumps
	bne     L0046
	inc     _jumps+1
;
; currplayer_gravity = GRAVITY_DOWN;
;
	.dbg	line, "SAUCE/gamemodes/gamemode_spider.h", 46
L0046:	txa
	sta     _currplayer_gravity
;
; update_currplayer_table_idx();
;
	.dbg	line, "SAUCE/gamemodes/gamemode_spider.h", 47
	jsr     _update_currplayer_table_idx
;
; spider_down_wait();
;
	.dbg	line, "SAUCE/gamemodes/gamemode_spider.h", 48
	jsr     _spider_down_wait
;
; high_byte(currplayer_y) -= eject_D;
;
	.dbg	line, "SAUCE/gamemodes/gamemode_spider.h", 49
	lda     _eject_D
	eor     #$FF
	sec
	adc     _currplayer_y+1
	sta     _currplayer_y+1
;
; currplayer_vel_y = 0;
;
	.dbg	line, "SAUCE/gamemodes/gamemode_spider.h", 50
	lda     #$00
	sta     _currplayer_vel_y
	sta     _currplayer_vel_y+1
;
; else if (!(controllingplayer->hold & (PAD_A | PAD_UP))) black_orbed[currplayer] = 0;
;
	.dbg	line, "SAUCE/gamemodes/gamemode_spider.h", 53
	jmp     L0049
L001C:	ldy     #$00
	lda     (_controllingplayer),y
	and     #$88
	bne     L0047
L0049:	ldy     _currplayer
	sta     _black_orbed,y
;
; Generic.y = high_byte(currplayer_y); // the rest should be the same
;
	.dbg	line, "SAUCE/gamemodes/gamemode_spider.h", 66
L0047:	lda     _currplayer_y+1
	sta     _Generic+1
;
; } 
;
	.dbg	line, "SAUCE/gamemodes/gamemode_spider.h", 69
	rts

	.dbg	line
.endproc

; ---------------------------------------------------------------
; void __near__ wave_eject (void)
; ---------------------------------------------------------------

.segment	"XCD_BANK_01"

.proc	_wave_eject: near

	.dbg	func, "wave_eject", "00", static, "_wave_eject"

.segment	"XCD_BANK_01"

;
; if(high_byte(currplayer_vel_y) & 0x80){
;
	.dbg	line, "SAUCE/gamemodes/gamemode_wave.h", 63
	lda     _currplayer_vel_y+1
	and     #$80
	beq     L0002
;
; if (bg_coll_U()) {
;
	.dbg	line, "SAUCE/gamemodes/gamemode_wave.h", 64
	jsr     _bg_coll_U
	tax
	beq     L000E
;
; if(dblocked[currplayer]){ // check collision above
;
	.dbg	line, "SAUCE/gamemodes/gamemode_wave.h", 65
	ldy     _currplayer
	lda     _dblocked,y
	beq     L0012
;
; high_byte(currplayer_y) = high_byte(currplayer_y) - eject_U;
;
	.dbg	line, "SAUCE/gamemodes/gamemode_wave.h", 66
	lda     _currplayer_y+1
	sec
	sbc     _eject_U
	sta     _currplayer_y+1
;
; currplayer_vel_y = 0;
;
	.dbg	line, "SAUCE/gamemodes/gamemode_wave.h", 67
	lda     #$00
	sta     _currplayer_vel_y
	sta     _currplayer_vel_y+1
;
; idx8_store(cube_data, currplayer, cube_data[currplayer] & 1);   
;
	.dbg	line, "SAUCE/gamemodes/gamemode_wave.h", 68
	ldy     _currplayer
	lda     _cube_data,y
	and     #$01
;
; } else {
;
	.dbg	line, "SAUCE/gamemodes/gamemode_wave.h", 69
	jmp     L0010
;
; if(bg_coll_D()){ // check collision below
;
	.dbg	line, "SAUCE/gamemodes/gamemode_wave.h", 75
L0002:	jsr     _bg_coll_D
	tax
	beq     L000E
;
; if (dblocked[currplayer]) {
;
	.dbg	line, "SAUCE/gamemodes/gamemode_wave.h", 76
	ldy     _currplayer
	lda     _dblocked,y
	beq     L0012
;
; high_byte(currplayer_y) = high_byte(currplayer_y) - eject_D;
;
	.dbg	line, "SAUCE/gamemodes/gamemode_wave.h", 77
	lda     _currplayer_y+1
	sec
	sbc     _eject_D
	sta     _currplayer_y+1
;
; currplayer_vel_y = 0;
;
	.dbg	line, "SAUCE/gamemodes/gamemode_wave.h", 78
	lda     #$00
	sta     _currplayer_vel_y
	sta     _currplayer_vel_y+1
;
; idx8_store(cube_data, currplayer, cube_data[currplayer] & 1);      
;
	.dbg	line, "SAUCE/gamemodes/gamemode_wave.h", 79
	ldy     _currplayer
	lda     _cube_data,y
	and     #$01
;
; } else {
;
	.dbg	line, "SAUCE/gamemodes/gamemode_wave.h", 80
	jmp     L0010
;
; idx8_store(cube_data, currplayer, cube_data[currplayer] | 1);  
;
	.dbg	line, "SAUCE/gamemodes/gamemode_wave.h", 81
L0012:	ldy     _currplayer
	lda     _cube_data,y
	ora     #$01
L0010:	sta     _cube_data,y
;
; }
;
	.dbg	line, "SAUCE/gamemodes/gamemode_wave.h", 85
L000E:	rts

	.dbg	line
.endproc

; ---------------------------------------------------------------
; void __near__ wave_movement (void)
; ---------------------------------------------------------------

.segment	"XCD_BANK_01"

.proc	_wave_movement: near

	.dbg	func, "wave_movement", "00", static, "_wave_movement"

.segment	"XCD_BANK_01"

;
; tmp1 = dashing[currplayer];
;
	.dbg	line, "SAUCE/gamemodes/gamemode_wave.h", 9
	ldy     _currplayer
	lda     _dashing,y
	sta     _tmp1
;
; switch (tmp1) {
;
	.dbg	line, "SAUCE/gamemodes/gamemode_wave.h", 11
	ldx     #$00
	lda     _tmp1
;
; };
;
	.dbg	line, "SAUCE/gamemodes/gamemode_wave.h", 37
	beq     L0005
	cmp     #$01
	jeq     L002B
	cmp     #$02
	jeq     L0019
	cmp     #$03
	jeq     L001C
	cmp     #$04
	jeq     L001B
	cmp     #$05
	jeq     L001C
	jmp     L002C
;
; currplayer_vel_y = !currplayer_mini ? 
;
	.dbg	line, "SAUCE/gamemodes/gamemode_wave.h", 14
L0005:	lda     _currplayer_mini
	bne     L0006
;
; (currplayer_gravity ? -currplayer_vel_x : currplayer_vel_x) :
;
	.dbg	line, "SAUCE/gamemodes/gamemode_wave.h", 15
	lda     _currplayer_gravity
	beq     L0007
	lda     _currplayer_vel_x
	ldx     _currplayer_vel_x+1
	jsr     negax
	jmp     L000B
L0007:	lda     _currplayer_vel_x
	ldx     _currplayer_vel_x+1
	jmp     L000B
;
; (currplayer_gravity ? -(currplayer_vel_x << 1) : (currplayer_vel_x << 1));
;
	.dbg	line, "SAUCE/gamemodes/gamemode_wave.h", 16
L0006:	lda     _currplayer_gravity
	beq     L000A
	lda     _currplayer_vel_x
	ldx     _currplayer_vel_x+1
	stx     tmp1
	asl     a
	rol     tmp1
	ldx     tmp1
	jsr     negax
	jmp     L000B
L000A:	lda     _currplayer_vel_x
	ldx     _currplayer_vel_x+1
	stx     tmp1
	asl     a
	rol     tmp1
	ldx     tmp1
L000B:	sta     _currplayer_vel_y
	stx     _currplayer_vel_y+1
;
; if (controllingplayer->hold & (PAD_A | PAD_UP) && gamemode != GAMEMODE_SNAKE) currplayer_vel_y = -currplayer_vel_y;
;
	.dbg	line, "SAUCE/gamemodes/gamemode_wave.h", 18
	ldy     #$00
	lda     (_controllingplayer),y
	and     #$88
	beq     L0026
	lda     _gamemode
	cmp     #$0A
	beq     L0026
	lda     _currplayer_vel_y
	ldx     _currplayer_vel_y+1
	jsr     negax
	sta     _currplayer_vel_y
	stx     _currplayer_vel_y+1
;
; else if (controllingplayer->hold & (PAD_A | PAD_UP)) {
;
	.dbg	line, "SAUCE/gamemodes/gamemode_wave.h", 20
	jmp     L0027
L0026:	lda     (_controllingplayer),y
	and     #$88
	beq     L0027
;
; collided = DASH_GRAVITY_ORB;
;
	.dbg	line, "SAUCE/gamemodes/gamemode_wave.h", 21
	lda     #$46
	sta     _tmp4
;
; crossPRGBankJump0(sprite_gamemode_controller_check);
;
	.dbg	line, "SAUCE/gamemodes/gamemode_wave.h", 22
	lda     #<_sprite_gamemode_controller_check
	ldx     #>_sprite_gamemode_controller_check
	ldy     #<.bank(_sprite_gamemode_controller_check)
	jsr     crossPRGBankJump
;
; if (!currplayer_slope_frames && !currplayer_was_on_slope_counter) {
;
	.dbg	line, "SAUCE/gamemodes/gamemode_wave.h", 25
L0027:	lda     _currplayer_slope_frames
	bne     L0014
	lda     _currplayer_was_on_slope_counter
	beq     L0015
L0014:	lda     #$00
	jmp     L0029
;
; currplayer_y += currplayer_vel_y;
;
	.dbg	line, "SAUCE/gamemodes/gamemode_wave.h", 26
L0015:	lda     _currplayer_vel_y
	clc
	adc     _currplayer_y
	sta     _currplayer_y
	lda     _currplayer_vel_y+1
;
; } else {
;
	.dbg	line, "SAUCE/gamemodes/gamemode_wave.h", 27
	jmp     L002E
;
; currplayer_vel_y = 0;
;
	.dbg	line, "SAUCE/gamemodes/gamemode_wave.h", 28
L0029:	sta     _currplayer_vel_y
	sta     _currplayer_vel_y+1
;
; break;
;
	.dbg	line, "SAUCE/gamemodes/gamemode_wave.h", 30
	jmp     L002C
;
; case 1: currplayer_vel_y = 1; break;
;
	.dbg	line, "SAUCE/gamemodes/gamemode_wave.h", 31
L002B:	sta     _currplayer_vel_y
	stx     _currplayer_vel_y+1
	jmp     L002C
;
; case 2: currplayer_vel_y = -currplayer_vel_x; currplayer_y += currplayer_vel_y; break;
;
	.dbg	line, "SAUCE/gamemodes/gamemode_wave.h", 32
L0019:	lda     _currplayer_vel_x
	ldx     _currplayer_vel_x+1
	jsr     negax
	jmp     L0034
;
; case 4: currplayer_vel_y = currplayer_vel_x; currplayer_y -= currplayer_vel_y; break;
;
	.dbg	line, "SAUCE/gamemodes/gamemode_wave.h", 34
L001B:	lda     _currplayer_vel_x
	ldx     _currplayer_vel_x+1
	sta     _currplayer_vel_y
	stx     _currplayer_vel_y+1
	eor     #$FF
	sec
	adc     _currplayer_y
	sta     _currplayer_y
	txa
	eor     #$FF
	jmp     L002E
;
; case 5: currplayer_vel_y = currplayer_vel_x; currplayer_y += currplayer_vel_y; break;
;
	.dbg	line, "SAUCE/gamemodes/gamemode_wave.h", 35
L001C:	lda     _currplayer_vel_x
	ldx     _currplayer_vel_x+1
L0034:	sta     _currplayer_vel_y
	stx     _currplayer_vel_y+1
	clc
	adc     _currplayer_y
	sta     _currplayer_y
	txa
L002E:	adc     _currplayer_y+1
	sta     _currplayer_y+1
;
; Generic.x = high_byte(currplayer_x) + 4;
;
	.dbg	line, "SAUCE/gamemodes/gamemode_wave.h", 38
L002C:	lda     _currplayer_x+1
	clc
	adc     #$04
	sta     _Generic
;
; Generic.y = high_byte(currplayer_y) + ((high_byte(currplayer_vel_y) & 0x80) ? 2 : -2);
;
	.dbg	line, "SAUCE/gamemodes/gamemode_wave.h", 41
	lda     _currplayer_vel_y+1
	and     #$80
	beq     L001E
	lda     #$02
	jmp     L001F
L001E:	lda     #$FE
L001F:	clc
	adc     _currplayer_y+1
	ldx     #$00
	sta     _Generic+1
;
; wave_eject();
;
	.dbg	line, "SAUCE/gamemodes/gamemode_wave.h", 45
	jsr     _wave_eject
;
; Generic.x = high_byte(currplayer_x);
;
	.dbg	line, "SAUCE/gamemodes/gamemode_wave.h", 49
	lda     _currplayer_x+1
	sta     _Generic
;
; Generic.y = high_byte(currplayer_y);
;
	.dbg	line, "SAUCE/gamemodes/gamemode_wave.h", 50
	lda     _currplayer_y+1
	sta     _Generic+1
;
; } 
;
	.dbg	line, "SAUCE/gamemodes/gamemode_wave.h", 58
	rts

	.dbg	line
.endproc

; ---------------------------------------------------------------
; void __near__ mouse_and_cursor (void)
; ---------------------------------------------------------------

.segment	"CODE"

.proc	_mouse_and_cursor: near

	.dbg	func, "mouse_and_cursor", "00", static, "_mouse_and_cursor"

.segment	"CODE"

;
; if (mouse.connected) {
;
	.dbg	line, "SAUCE/gamestates/state_game.h", 308
	lda     _mouse
	and     #$80
	bne     L0016
;
; }
;
	.dbg	line, "SAUCE/gamestates/state_game.h", 319
	rts
;
; if ((mouse.status_raw & (MOUSE_LEFT | MOUSE_RIGHT)) || mouse.x != prev_mouse_x || mouse.y != prev_mouse_y) mouse_timer = 120;
;
	.dbg	line, "SAUCE/gamestates/state_game.h", 309
L0016:	lda     _mouse+1
	and     #$C0
	bne     L0010
	lda     _mouse+3
	cmp     _prev_mouse_x
	bne     L0010
	lda     _mouse+2
	cmp     _prev_mouse_y
	beq     L0003
L0010:	lda     #$78
	sta     _mouse_timer
;
; if (mouse.right_press) joypad1.press_b = true;
;
	.dbg	line, "SAUCE/gamestates/state_game.h", 310
L0003:	lda     _mouse
	and     #$08
	beq     L0006
	lda     _joypad1+1
	ora     #$40
	sta     _joypad1+1
;
; if (mouse.right) joypad1.b = true;
;
	.dbg	line, "SAUCE/gamestates/state_game.h", 311
L0006:	lda     _mouse+1
	and     #$80
	beq     L0011
	lda     _joypad1
	ora     #$40
	sta     _joypad1
;
; if (!(kandoframecnt & 0x07)) mouseframe += mouseframe == 7 ? -7 : 1;
;
	.dbg	line, "SAUCE/gamestates/state_game.h", 312
L0011:	lda     _kandoframecnt
	and     #$07
	bne     L0013
	lda     _mouseframe
	cmp     #$07
	bne     L0012
	lda     #$F9
	jmp     L000A
L0012:	lda     #$01
L000A:	clc
	adc     _mouseframe
	sta     _mouseframe
;
; if (kandoframecnt > 0xFC) kandoframecnt = 0;
;
	.dbg	line, "SAUCE/gamestates/state_game.h", 313
L0013:	lda     _kandoframecnt
	cmp     #$FD
	bcc     L0014
	lda     #$00
	sta     _kandoframecnt
;
; if (gameState != STATE_GAME) { if (mouse_timer) oam_spr(mouse.x, mouse.y - 1, (0xA1 + (2*mouseframe)), 2); }
;
	.dbg	line, "SAUCE/gamestates/state_game.h", 314
L0014:	lda     _gameState
	cmp     #$02
	beq     L0015
	lda     _mouse_timer
	beq     L0015
	lda     _mouse+2
	sec
	sbc     #$01
	sta     ptr1+1
	lda     _mouse+3
	sta     sreg
	lda     ptr1+1
	sta     sreg+1
	lda     _mouseframe
	asl     a
	clc
	adc     #$A1
	tax
	lda     #$02
	jsr     __oam_spr
;
; prev_mouse_x = mouse.x;
;
	.dbg	line, "SAUCE/gamestates/state_game.h", 316
L0015:	lda     _mouse+3
	sta     _prev_mouse_x
;
; prev_mouse_y = mouse.y;
;
	.dbg	line, "SAUCE/gamestates/state_game.h", 317
	lda     _mouse+2
	sta     _prev_mouse_y
;
; }
;
	.dbg	line, "SAUCE/gamestates/state_game.h", 319
	rts

	.dbg	line
.endproc

; ---------------------------------------------------------------
; void __near__ dec_mouse_timer (void)
; ---------------------------------------------------------------

.segment	"XCD_BANK_03"

.proc	_dec_mouse_timer: near

	.dbg	func, "dec_mouse_timer", "00", static, "_dec_mouse_timer"

.segment	"XCD_BANK_03"

;
; kandoframecnt++;
;
	.dbg	line, "SAUCE/menustates/common_xcd_bank_03.c", 7
	inc     _kandoframecnt
;
; if (kandoframecnt & 1 && mouse_timer) mouse_timer--; 
;
	.dbg	line, "SAUCE/menustates/common_xcd_bank_03.c", 8
	lda     _kandoframecnt
	and     #$01
	beq     L0007
	lda     _mouse_timer
	bne     L0008
L0007:	rts
L0008:	dec     _mouse_timer
;
; }  
;
	.dbg	line, "SAUCE/menustates/common_xcd_bank_03.c", 9
	rts

	.dbg	line
.endproc

; ---------------------------------------------------------------
; void __near__ check_if_music_stopped (void)
; ---------------------------------------------------------------

.segment	"XCD_BANK_03"

.proc	_check_if_music_stopped: near

	.dbg	func, "check_if_music_stopped", "00", static, "_check_if_music_stopped"

.segment	"XCD_BANK_03"

;
; if (songplaying && famistudio_song_speed == 0x80) { music_play(xbgmlookuptable[song]); }
;
	.dbg	line, "SAUCE/menustates/common_xcd_bank_03.c", 17
	lda     _songplaying
	beq     L000C
	lda     _famistudio_song_speed
	cmp     #$80
	bne     L000C
	ldy     _song
;
; else if (famistudio_song_speed == 0x80) { music_play(xbgmlookuptable[menu_music]); }
;
	.dbg	line, "SAUCE/menustates/common_xcd_bank_03.c", 18
	jmp     L000D
L000C:	lda     _famistudio_song_speed
	cmp     #$80
	bne     L0008
	ldy     _menu_music
L000D:	lda     _xbgmlookuptable,y
	jmp     _music_play
;
; }
;
	.dbg	line, "SAUCE/menustates/common_xcd_bank_03.c", 31
L0008:	rts

	.dbg	line
.endproc

; ---------------------------------------------------------------
; void __near__ loop_routine_update (void)
; ---------------------------------------------------------------

.segment	"XCD_BANK_03"

.proc	_loop_routine_update: near

	.dbg	func, "loop_routine_update", "00", static, "_loop_routine_update"

.segment	"XCD_BANK_03"

;
; newrand();
;
	.dbg	line, "SAUCE/menustates/common_xcd_bank_03.c", 34
	jsr     _newrand
;
; ppu_wait_nmi();
;
	.dbg	line, "SAUCE/menustates/common_xcd_bank_03.c", 35
	jsr     _ppu_wait_nmi
;
; oam_clear();
;
	.dbg	line, "SAUCE/menustates/common_xcd_bank_03.c", 39
	jsr     _oam_clear
;
; mouse_and_cursor();
;
	.dbg	line, "SAUCE/menustates/common_xcd_bank_03.c", 40
	jmp     _mouse_and_cursor

	.dbg	line
.endproc

; ---------------------------------------------------------------
; void __near__ draw_both_progress_bars (void)
; ---------------------------------------------------------------

.segment	"XCD_BANK_03"

.proc	_draw_both_progress_bars: near

	.dbg	func, "draw_both_progress_bars", "00", static, "_draw_both_progress_bars"

.segment	"XCD_BANK_03"

;
; tmp7 = level_completeness_normal[level];
;
	.dbg	line, "SAUCE/menustates/progressbar.c", 23
	ldy     _level
	lda     _level_completeness_normal,y
	sta     _tmp7
;
; hexToDec(tmp7);
;
	.dbg	line, "SAUCE/menustates/progressbar.c", 24
	ldx     #$00
	lda     _tmp7
	jsr     _hexToDec
;
; tmp1 = 112;  // x
;
	.dbg	line, "SAUCE/menustates/progressbar.c", 25
	lda     #$70
	sta     _tmp1
;
; if (tmp4) {
;
	.dbg	line, "SAUCE/menustates/progressbar.c", 26
	lda     _tmp4
	beq     L000C
;
; tmp1 += tmp8 + 1;
;
	.dbg	line, "SAUCE/menustates/progressbar.c", 27
	lda     _tmp8
	clc
	adc     #$01
	clc
;
; } else {
;
	.dbg	line, "SAUCE/menustates/progressbar.c", 28
	jmp     L000E
;
; tmp1 -= tmp8;
;
	.dbg	line, "SAUCE/menustates/progressbar.c", 29
L000C:	lda     _tmp8
	eor     #$FF
	sec
L000E:	adc     _tmp1
	sta     _tmp1
;
; tmp2 = 127;  // y
;
	.dbg	line, "SAUCE/menustates/progressbar.c", 32
	lda     #$7F
	sta     _tmp2
;
; tmp3 = 0;  // offset
;
	.dbg	line, "SAUCE/menustates/progressbar.c", 33
	ldx     #$00
	txa
	sta     _tmp3
;
; draw_percentage(); 
;
	.dbg	line, "SAUCE/menustates/progressbar.c", 34
	jsr     _draw_percentage
;
; tmp1 = 6;   // x
;
	.dbg	line, "SAUCE/menustates/progressbar.c", 36
	lda     #$06
	sta     _tmp1
;
; tmp2 = 16;  // y
;
	.dbg	line, "SAUCE/menustates/progressbar.c", 37
	lda     #$10
	sta     _tmp2
;
; low_byte(tmp6) = 1;   // index
;
	.dbg	line, "SAUCE/menustates/progressbar.c", 38
	ldx     #$00
	lda     #$01
	sta     _tmp6
;
; draw_full_progress_bar();
;
	.dbg	line, "SAUCE/menustates/progressbar.c", 39
	jsr     _draw_full_progress_bar
;
; tmp7 = level_completeness_practice[level];
;
	.dbg	line, "SAUCE/menustates/progressbar.c", 43
	ldy     _level
	lda     _level_completeness_normal+128,y
	sta     _tmp7
;
; hexToDec(tmp7);
;
	.dbg	line, "SAUCE/menustates/progressbar.c", 44
	ldx     #$00
	lda     _tmp7
	jsr     _hexToDec
;
; tmp1 = 112;  // x
;
	.dbg	line, "SAUCE/menustates/progressbar.c", 45
	lda     #$70
	sta     _tmp1
;
; if (tmp4) {
;
	.dbg	line, "SAUCE/menustates/progressbar.c", 46
	lda     _tmp4
	beq     L000D
;
; tmp1 += tmp8 + 1;
;
	.dbg	line, "SAUCE/menustates/progressbar.c", 47
	lda     _tmp8
	clc
	adc     #$01
	clc
;
; } else {
;
	.dbg	line, "SAUCE/menustates/progressbar.c", 48
	jmp     L000F
;
; tmp1 -= tmp8;
;
	.dbg	line, "SAUCE/menustates/progressbar.c", 49
L000D:	lda     _tmp8
	eor     #$FF
	sec
L000F:	adc     _tmp1
	sta     _tmp1
;
; tmp2 = 151;  // y
;
	.dbg	line, "SAUCE/menustates/progressbar.c", 51
	lda     #$97
	sta     _tmp2
;
; tmp3 = 0;  // offset
;
	.dbg	line, "SAUCE/menustates/progressbar.c", 52
	ldx     #$00
	txa
	sta     _tmp3
;
; draw_percentage(); 
;
	.dbg	line, "SAUCE/menustates/progressbar.c", 53
	jsr     _draw_percentage
;
; tmp1 = 6;   // x
;
	.dbg	line, "SAUCE/menustates/progressbar.c", 55
	lda     #$06
	sta     _tmp1
;
; tmp2 = 19;  // y
;
	.dbg	line, "SAUCE/menustates/progressbar.c", 56
	lda     #$13
	sta     _tmp2
;
; low_byte(tmp6) = 2;   // index
;
	.dbg	line, "SAUCE/menustates/progressbar.c", 57
	ldx     #$00
	lda     #$02
	sta     _tmp6
;
; draw_full_progress_bar();
;
	.dbg	line, "SAUCE/menustates/progressbar.c", 58
	jmp     _draw_full_progress_bar

	.dbg	line
.endproc

; ---------------------------------------------------------------
; void __near__ leveldec (void)
; ---------------------------------------------------------------

.segment	"XCD_BANK_03"

.proc	_leveldec: near

	.dbg	func, "leveldec", "00", static, "_leveldec"

.segment	"XCD_BANK_03"

;
; --level;
;
	.dbg	line, "SAUCE/menustates/levelselection.c", 178
	dec     _level
;
; low_byte(tmp8) = 0xff;
;
	.dbg	line, "SAUCE/menustates/levelselection.c", 179
	lda     #$FF
	sta     _tmp8
;
; tmp4 = 0;
;
	.dbg	line, "SAUCE/menustates/levelselection.c", 180
	lda     #$00
	sta     _tmp4
;
; if (!normalorcommlevels) {
;
	.dbg	line, "SAUCE/menustates/levelselection.c", 181
	lda     _normalorcommlevels
	bne     L0007
;
; if (level == 0xFF) level = LEVEL_COUNT - 1;
;
	.dbg	line, "SAUCE/menustates/levelselection.c", 182
	lda     _level
	cmp     #$FF
	bne     L0005
	lda     #$18
;
; } else {
;
	.dbg	line, "SAUCE/menustates/levelselection.c", 183
	jmp     L0006
;
; if (level < LEVEL_COUNT)
;
	.dbg	line, "SAUCE/menustates/levelselection.c", 185
L0007:	lda     _level
	cmp     #$19
	bcs     L0005
;
; level = LEVEL_COUNT2 - 1;
;
	.dbg	line, "SAUCE/menustates/levelselection.c", 189
	lda     #$2B
L0006:	sta     _level
;
; crossPRGBankJump0(refreshmenu);
;
	.dbg	line, "SAUCE/menustates/levelselection.c", 191
L0005:	lda     #<_refreshmenu
	ldx     #>_refreshmenu
	ldy     #<.bank(_refreshmenu)
	jmp     crossPRGBankJump

	.dbg	line
.endproc

; ---------------------------------------------------------------
; void __near__ levelinc (void)
; ---------------------------------------------------------------

.segment	"XCD_BANK_03"

.proc	_levelinc: near

	.dbg	func, "levelinc", "00", static, "_levelinc"

.segment	"XCD_BANK_03"

;
; ++level;
;
	.dbg	line, "SAUCE/menustates/levelselection.c", 195
	inc     _level
;
; low_byte(tmp8) = 0xff;
;
	.dbg	line, "SAUCE/menustates/levelselection.c", 196
	lda     #$FF
	sta     _tmp8
;
; tmp4 = 1;
;
	.dbg	line, "SAUCE/menustates/levelselection.c", 197
	lda     #$01
	sta     _tmp4
;
; if (!normalorcommlevels) {
;
	.dbg	line, "SAUCE/menustates/levelselection.c", 198
	lda     _normalorcommlevels
	bne     L0007
;
; if (level >= LEVEL_COUNT)
;
	.dbg	line, "SAUCE/menustates/levelselection.c", 200
	lda     _level
	cmp     #$19
	bcc     L0005
;
; level = 0x00;
;
	.dbg	line, "SAUCE/menustates/levelselection.c", 202
	lda     #$00
;
; } else {
;
	.dbg	line, "SAUCE/menustates/levelselection.c", 203
	jmp     L0006
;
; if (level >= LEVEL_COUNT2) level = LEVEL_COUNT;
;
	.dbg	line, "SAUCE/menustates/levelselection.c", 204
L0007:	lda     _level
	cmp     #$2C
	bcc     L0005
	lda     #$19
L0006:	sta     _level
;
; crossPRGBankJump0(refreshmenu);
;
	.dbg	line, "SAUCE/menustates/levelselection.c", 206
L0005:	lda     #<_refreshmenu
	ldx     #>_refreshmenu
	ldy     #<.bank(_refreshmenu)
	jmp     crossPRGBankJump

	.dbg	line
.endproc

; ---------------------------------------------------------------
; void __near__ refreshmenu (void)
; ---------------------------------------------------------------

.segment	"XCD_BANK_06"

.proc	_refreshmenu: near

	.dbg	func, "refreshmenu", "00", static, "_refreshmenu"

.segment	"XCD_BANK_06"

;
; tmp5 = ((level&1)<<2)<<8; // Which nametable to put the data into
;
	.dbg	line, "SAUCE/menustates/refreshmenu.c", 15
	lda     _level
	and     #$01
	asl     a
	asl     a
	sta     _tmp5+1
	lda     #$00
	sta     _tmp5
;
; set_scroll_x(((level-tmp4)&1)<<8);
;
	.dbg	line, "SAUCE/menustates/refreshmenu.c", 16
	lda     _level
	sec
	sbc     _tmp4
	and     #$01
	tax
	lda     #$00
	jsr     _set_scroll_x
;
; __A__ = idx16_load_hi_NOC(levelTextsUpper, level);
;
	.dbg	line, "SAUCE/menustates/refreshmenu.c", 18
	lda     _level
	asl     a
	tay
;
; if (__A__) draw_padded_text(levelTextsUpper[level & 0x7F], levelTextsUpperSize[level], 17, NTADR_A(8, 10)|(tmp5 & 0xFF00));
;
	.dbg	line, "SAUCE/menustates/refreshmenu.c", 19
	ldx     _levelTextsUpper+1,y
	beq     L0002
	lda     _level
	asl     a
	tay
	lda     _levelTextsUpper+1,y
	sta     _xargs+1
	lda     _levelTextsUpper,y
	sta     _xargs
	ldy     _level
	lda     _levelTextsUpperSize,y
	sta     sreg+1
	lda     #$11
	sta     sreg
	lda     _tmp5+1
	ora     #$21
	ora     #$40
	tax
	lda     #$48
	jsr     __draw_padded_text
;
; else one_vram_buffer_horz_repeat(' ', 17, NTADR_A(8, 10)|(tmp5 & 0xFF00));
;
	.dbg	line, "SAUCE/menustates/refreshmenu.c", 20
	jmp     L0004
L0002:	ldx     #$11
	lda     #$FE
	stx     sreg+1
	sta     sreg
	lda     _tmp5+1
	ora     #$21
	ora     #$40
	tax
	lda     #$48
	jsr     __one_vram_buffer_repeat
;
; draw_padded_text(levelTextsLower[level & 0x7F], levelTextsLowerSize[level], 17, NTADR_A(8, 11)|(tmp5 & 0xFF00));
;
	.dbg	line, "SAUCE/menustates/refreshmenu.c", 22
L0004:	lda     _level
	asl     a
	tay
	lda     _levelTextsLower+1,y
	sta     _xargs+1
	lda     _levelTextsLower,y
	sta     _xargs
	ldy     _level
	lda     _levelTextsLowerSize,y
	sta     sreg+1
	lda     #$11
	sta     sreg
	lda     _tmp5+1
	ora     #$21
	ora     #$40
	tax
	lda     #$68
	jsr     __draw_padded_text
;
; if (LEVELCOMPLETE[level]) { one_vram_buffer('y', NTADR_A(7, 9)|(tmp5 & 0xFF00));
;
	.dbg	line, "SAUCE/menustates/refreshmenu.c", 24
	ldy     _level
	lda     _LEVELCOMPLETE,y
	beq     L0006
	lda     #$4E
	sta     sreg+0
	lda     _tmp5+1
	ora     #$21
	tax
	lda     #$27
	jsr     __one_vram_buffer
;
; one_vram_buffer('z', NTADR_A(8, 9)|(tmp5 & 0xFF00)); }
;
	.dbg	line, "SAUCE/menustates/refreshmenu.c", 25
	lda     #$4F
	sta     sreg+0
	lda     _tmp5+1
	ora     #$21
	tax
	lda     #$28
	jsr     __one_vram_buffer
;
; else one_vram_buffer_horz_repeat(' ', 2, NTADR_A(7, 9)|(tmp5 & 0xFF00));
;
	.dbg	line, "SAUCE/menustates/refreshmenu.c", 26
	jmp     L0008
L0006:	ldx     #$02
	lda     #$FE
	stx     sreg+1
	sta     sreg
	lda     _tmp5+1
	ora     #$21
	ora     #$40
	tax
	lda     #$27
	jsr     __one_vram_buffer_repeat
;
; tmp1 = difficulty_list[level];
;
	.dbg	line, "SAUCE/menustates/refreshmenu.c", 29
L0008:	ldy     _level
	lda     _difficulty_list,y
	sta     _tmp1
;
; pal_col(0x0a, difficulty_pal_A[tmp1]);
;
	.dbg	line, "SAUCE/menustates/refreshmenu.c", 30
	ldy     _tmp1
	lda     _difficulty_pal_A,y
	sta     _PAL_BUF_RAW+10
	ldy     _tmp1
	lda     _difficulty_pal_A,y
	tay
	lda     (_PAL_PTR),y
	sta     _PAL_BUF+10
;
; pal_col(0x0b, difficulty_pal_B[tmp1]);
;
	.dbg	line, "SAUCE/menustates/refreshmenu.c", 31
	ldy     _tmp1
	lda     _difficulty_pal_B,y
	sta     _PAL_BUF_RAW+11
	ldy     _tmp1
	lda     _difficulty_pal_B,y
	tay
	lda     (_PAL_PTR),y
	sta     _PAL_BUF+11
;
; pal_set_update();
;
	.dbg	line, "SAUCE/menustates/refreshmenu.c", 32
	inc     _PAL_UPDATE
;
; tmp1 = (tmp1 << 1) + 'a';
;
	.dbg	line, "SAUCE/menustates/refreshmenu.c", 34
	lda     _tmp1
	asl     a
	clc
	adc     #$90
	sta     _tmp1
;
; one_vram_buffer(tmp1, NTADR_A(7, 10)|(tmp5 & 0xFF00));
;
	.dbg	line, "SAUCE/menustates/refreshmenu.c", 35
	sta     sreg+0
	lda     _tmp5+1
	ora     #$21
	tax
	lda     #$47
	jsr     __one_vram_buffer
;
; one_vram_buffer(++tmp1, NTADR_A(8, 10)|(tmp5 & 0xFF00));
;
	.dbg	line, "SAUCE/menustates/refreshmenu.c", 36
	inc     _tmp1
	lda     _tmp1
	sta     sreg+0
	lda     _tmp5+1
	ora     #$21
	tax
	lda     #$48
	jsr     __one_vram_buffer
;
; one_vram_buffer((tmp1 += ('c'-'b')), NTADR_A(7, 11)|(tmp5 & 0xFF00));
;
	.dbg	line, "SAUCE/menustates/refreshmenu.c", 37
	lda     #$0F
	clc
	adc     _tmp1
	sta     _tmp1
	sta     sreg+0
	lda     _tmp5+1
	ora     #$21
	tax
	lda     #$67
	jsr     __one_vram_buffer
;
; one_vram_buffer(++tmp1, NTADR_A(8, 11)|(tmp5 & 0xFF00));
;
	.dbg	line, "SAUCE/menustates/refreshmenu.c", 38
	inc     _tmp1
	lda     _tmp1
	sta     sreg+0
	lda     _tmp5+1
	ora     #$21
	tax
	lda     #$68
	jsr     __one_vram_buffer
;
; printDecimal(stars_list[level], 2, '0', ' ', NTADR_A(22, 9)|(tmp5 & 0xFF00));
;
	.dbg	line, "SAUCE/menustates/refreshmenu.c", 43
	ldy     _level
	ldx     #$00
	lda     _stars_list,y
	stx     sreg+1
	sta     sreg
	lda     #$02
	sta     _xargs
	lda     #$B0
	sta     _xargs+1
	lda     #$FE
	sta     _xargs+2
	lda     _tmp5+1
	ora     #$21
	ora     #$40
	tax
	lda     #$36
	jsr     __printDecimal
;
; tmp3 = level % 9;
;
	.dbg	line, "SAUCE/menustates/refreshmenu.c", 52
	lda     _level
	jsr     pusha0
	lda     #$09
	jsr     tosumoda0
	sta     _tmp3
;
; pal_col(0,colors_list[tmp3]);
;
	.dbg	line, "SAUCE/menustates/refreshmenu.c", 53
	ldy     _tmp3
	lda     _colors_list,y
	sta     _PAL_BUF_RAW
	ldy     _tmp3
	lda     _colors_list,y
	tay
	lda     (_PAL_PTR),y
	sta     _PAL_BUF
;
; pal_col(0xE,colors_list[tmp3]);
;
	.dbg	line, "SAUCE/menustates/refreshmenu.c", 54
	ldy     _tmp3
	lda     _colors_list,y
	sta     _PAL_BUF_RAW+14
	ldy     _tmp3
	lda     _colors_list,y
	tay
	lda     (_PAL_PTR),y
	sta     _PAL_BUF+14
;
; pal_spr(paletteLVLSelectSP);
;
	.dbg	line, "SAUCE/menustates/refreshmenu.c", 56
	lda     #<(_paletteLVLSelectSP)
	ldx     #>(_paletteLVLSelectSP)
	jsr     _pal_spr
;
; pal_col(0x10,colors_list[tmp3]);
;
	.dbg	line, "SAUCE/menustates/refreshmenu.c", 57
	ldy     _tmp3
	lda     _colors_list,y
	sta     _PAL_BUF_RAW+16
	ldy     _tmp3
	lda     _colors_list,y
	tay
	lda     (_PAL_PTR),y
	sta     _PAL_BUF+16
;
; pal_col(0x1E,colors_list[tmp3]);
;
	.dbg	line, "SAUCE/menustates/refreshmenu.c", 58
	ldy     _tmp3
	lda     _colors_list,y
	sta     _PAL_BUF_RAW+30
	ldy     _tmp3
	lda     _colors_list,y
	tay
	lda     (_PAL_PTR),y
	sta     _PAL_BUF+30
;
; pal_set_update();
;
	.dbg	line, "SAUCE/menustates/refreshmenu.c", 59
	inc     _PAL_UPDATE
;
; coins = 0;
;
	.dbg	line, "SAUCE/menustates/refreshmenu.c", 61
	lda     #$00
	sta     _coins
;
; tmp7 = byte((byte(coin3_obtained[level] << 1) | coin2_obtained[level]) << 1) | coin1_obtained[level];
;
	.dbg	line, "SAUCE/menustates/refreshmenu.c", 65
	ldy     _level
	lda     _coin3_obtained,y
	asl     a
	ldy     _level
	ora     _coin2_obtained,y
	asl     a
	ldy     _level
	ora     _coin1_obtained,y
	sta     _tmp7
;
; tmp7 = byte(tmp7<<1) + tmp7;
;
	.dbg	line, "SAUCE/menustates/refreshmenu.c", 66
	asl     a
	clc
	adc     _tmp7
	sta     _tmp7
;
; multi_vram_buffer_horz((const char * const)coin_counter+tmp7, 3, NTADR_A(22, 12)|(tmp5 & 0xFF00));
;
	.dbg	line, "SAUCE/menustates/refreshmenu.c", 68
	lda     #<(_coin_counter)
	ldx     #>(_coin_counter)
	clc
	adc     _tmp7
	bcc     L001B
	inx
L001B:	stx     sreg+1
	sta     sreg
	lda     #$03
	sta     _xargs
	lda     _tmp5+1
	ora     #$21
	ora     #$40
	tax
	lda     #$96
	jmp     __multi_vram_buffer

	.dbg	line
.endproc

; ---------------------------------------------------------------
; void __near__ start_the_level (void)
; ---------------------------------------------------------------

.segment	"XCD_BANK_03"

.proc	_start_the_level: near

	.dbg	func, "start_the_level", "00", static, "_start_the_level"

.segment	"XCD_BANK_03"

;
; sfx_play(sfx_start_level, 0);
;
	.dbg	line, "SAUCE/menustates/levelselection.c", 210
	ldx     #$00
	lda     #$08
	jsr     __sfx_play
;
; famistudio_music_stop();
;
	.dbg	line, "SAUCE/menustates/levelselection.c", 211
	jsr     _famistudio_music_stop
;
; if (tmp4) edit_irq_table(high_byte(tmp8),2);
;
	.dbg	line, "SAUCE/menustates/levelselection.c", 212
	lda     _tmp4
	beq     L0002
	lda     _tmp8+1
;
; else edit_irq_table(low_byte(tmp8),2);
;
	.dbg	line, "SAUCE/menustates/levelselection.c", 213
	jmp     L000C
L0002:	lda     _tmp8
L000C:	ldx     #$02
	jsr     __edit_irq_table
;
; tmpA = 0;
;
	.dbg	line, "SAUCE/menustates/levelselection.c", 214
	ldx     #$00
	txa
	sta     _tmpA
	sta     _tmpA+1
;
; oam_clear();
;
	.dbg	line, "SAUCE/menustates/levelselection.c", 216
L0004:	jsr     _oam_clear
;
; draw_both_progress_bars();
;
	.dbg	line, "SAUCE/menustates/levelselection.c", 217
	jsr     _draw_both_progress_bars
;
; ppu_wait_nmi();
;
	.dbg	line, "SAUCE/menustates/levelselection.c", 218
	jsr     _ppu_wait_nmi
;
; } while (++tmpA < 30);
;
	.dbg	line, "SAUCE/menustates/levelselection.c", 219
	inc     _tmpA
	bne     L0007
	inc     _tmpA+1
L0007:	lda     _tmpA+1
	cmp     #$00
	bne     L0008
	lda     _tmpA
	cmp     #$1E
L0008:	bcc     L0004
;
; gameState = STATE_GAME;
;
	.dbg	line, "SAUCE/menustates/levelselection.c", 220
	lda     #$02
	sta     _gameState
;
; menuMusicCurrentlyPlaying = 0;
;
	.dbg	line, "SAUCE/menustates/levelselection.c", 221
	lda     #$00
	sta     _menuMusicCurrentlyPlaying
;
; }
;
	.dbg	line, "SAUCE/menustates/levelselection.c", 222
	rts

	.dbg	line
.endproc

; ---------------------------------------------------------------
; void __near__ state_levelselect (void)
; ---------------------------------------------------------------

.segment	"XCD_BANK_03"

.proc	_state_levelselect: near

	.dbg	func, "state_levelselect", "00", static, "_state_levelselect"

.segment	"XCD_BANK_03"

;
; oam_clear();
;
	.dbg	line, "SAUCE/menustates/levelselection.c", 18
	jsr     _oam_clear
;
; mmc3_set_8kb_chr(MENUBANK);
;
	.dbg	line, "SAUCE/menustates/levelselection.c", 20
	lda     #$62
	sta     _xargs
	jsr     __mmc3_set_8kb_chr
;
; mmc3_set_2kb_chr_bank_0(0xFF);
;
	.dbg	line, "SAUCE/menustates/levelselection.c", 21
	lda     #$FF
	jsr     _mmc3_set_2kb_chr_bank_0
;
; mmc3_set_2kb_chr_bank_1(MOUSEBANK);
;
	.dbg	line, "SAUCE/menustates/levelselection.c", 22
	lda     #$60
	jsr     _mmc3_set_2kb_chr_bank_1
;
; pal_bg(oldsplashMenu);
;
	.dbg	line, "SAUCE/menustates/levelselection.c", 27
	lda     #<(_oldsplashMenu)
	ldx     #>(_oldsplashMenu)
	jsr     _pal_bg
;
; if (tempplat == 1) { tempplat = 0; options |= platformer; }
;
	.dbg	line, "SAUCE/menustates/levelselection.c", 29
	lda     _tempplat
	cmp     #$01
	bne     L003D
	lda     #$00
	sta     _tempplat
	lda     _options
	ora     #$04
	sta     _options
;
; slowmode = 0;
;
	.dbg	line, "SAUCE/menustates/levelselection.c", 30
L003D:	lda     #$00
	sta     _slowmode
;
; disco_sprites = 0;
;
	.dbg	line, "SAUCE/menustates/levelselection.c", 31
	sta     _disco_sprites
;
; cheated = 0;
;
	.dbg	line, "SAUCE/menustates/levelselection.c", 32
	sta     _cheated
;
; vram_adr(NAMETABLE_A);
;
	.dbg	line, "SAUCE/menustates/levelselection.c", 34
	lda     #$20
	sta     $2006
	lda     #$00
	sta     $2006
;
; vram_unrle(level_select_screen); 
;
	.dbg	line, "SAUCE/menustates/levelselection.c", 35
	lda     #<(_level_select_screen)
	ldx     #>(_level_select_screen)
	jsr     _vram_unrle
;
; vram_adr(NAMETABLE_B);
;
	.dbg	line, "SAUCE/menustates/levelselection.c", 36
	lda     #$24
	sta     $2006
	lda     #$00
	sta     $2006
;
; vram_unrle(level_select_screen);
;
	.dbg	line, "SAUCE/menustates/levelselection.c", 37
	lda     #<(_level_select_screen)
	ldx     #>(_level_select_screen)
	jsr     _vram_unrle
;
; write_irq_table(lvlselect_irq_table);
;
	.dbg	line, "SAUCE/menustates/levelselection.c", 39
	lda     #<(_lvlselect_irq_table)
	ldx     #>(_lvlselect_irq_table)
	jsr     _write_irq_table
;
; set_irq_ptr(irqTable);
;
	.dbg	line, "SAUCE/menustates/levelselection.c", 40
	lda     #<(_irqTable)
	ldx     #>(_irqTable)
	jsr     _set_irq_ptr
;
; edit_irq_table(high_byte(tmp8),2);
;
	.dbg	line, "SAUCE/menustates/levelselection.c", 41
	lda     _tmp8+1
	ldx     #$02
	jsr     __edit_irq_table
;
; set_scroll_x(0);
;
	.dbg	line, "SAUCE/menustates/levelselection.c", 43
	ldx     #$00
	txa
	jsr     _set_scroll_x
;
; set_scroll_y(0);  
;
	.dbg	line, "SAUCE/menustates/levelselection.c", 44
	ldx     #$00
	txa
	jsr     _set_scroll_y
;
; tmp8 = 0xff00;
;
	.dbg	line, "SAUCE/menustates/levelselection.c", 46
	lda     #$00
	sta     _tmp8
;
; tmp4 = 1;
;
	.dbg	line, "SAUCE/menustates/levelselection.c", 47
	lda     #$01
	sta     _tmp4
;
; crossPRGBankJump0(refreshmenu);
;
	.dbg	line, "SAUCE/menustates/levelselection.c", 48
	lda     #<_refreshmenu
	ldx     #>_refreshmenu
	ldy     #<.bank(_refreshmenu)
	jsr     crossPRGBankJump
;
; top_triggers = 0;
;
	.dbg	line, "SAUCE/menustates/levelselection.c", 49
	ldx     #$00
	txa
	sta     _top_triggers
	sta     _top_triggers+1
;
; triggers = 0;
;
	.dbg	line, "SAUCE/menustates/levelselection.c", 50
	sta     _triggers
	sta     _triggers+1
;
; triggers_hit[0] = 0;
;
	.dbg	line, "SAUCE/menustates/levelselection.c", 51
	sta     _triggers_hit
;
; triggers_hit[1] = 0;
;
	.dbg	line, "SAUCE/menustates/levelselection.c", 52
	sta     _triggers_hit+1
;
; triggers_hit[2] = 0;
;
	.dbg	line, "SAUCE/menustates/levelselection.c", 53
	sta     _triggers_hit+2
;
; drawBarFlag = 2;
;
	.dbg	line, "SAUCE/menustates/levelselection.c", 55
	lda     #$02
	sta     _drawBarFlag
;
; low_byte(tmpA) = 1;
;
	.dbg	line, "SAUCE/menustates/levelselection.c", 56
	lda     #$01
	sta     _tmpA
;
; draw_both_progress_bars();
;
	.dbg	line, "SAUCE/menustates/levelselection.c", 57
	jsr     _draw_both_progress_bars
;
; practice_point_count = 0;
;
	.dbg	line, "SAUCE/menustates/levelselection.c", 59
	lda     #$00
	sta     _practice_point_count
;
; cube_rotate[0] = 0;
;
	.dbg	line, "SAUCE/menustates/levelselection.c", 64
	tax
	sta     _cube_rotate
	sta     _cube_rotate+1
;
; cube_rotate[1] = 0;
;
	.dbg	line, "SAUCE/menustates/levelselection.c", 65
	sta     _cube_rotate+2
	sta     _cube_rotate+2+1
;
; if (menuMusicCurrentlyPlaying == 0 && !nestopia) music_play(xbgmlookuptable[menu_music]);
;
	.dbg	line, "SAUCE/menustates/levelselection.c", 72
	lda     _menuMusicCurrentlyPlaying
	bne     L0040
	lda     _nestopia
	bne     L0040
	ldy     _menu_music
	lda     _xbgmlookuptable,y
	jsr     _music_play
;
; menuMusicCurrentlyPlaying = 1;
;
	.dbg	line, "SAUCE/menustates/levelselection.c", 78
	ldx     #$00
L0040:	lda     #$01
	sta     _menuMusicCurrentlyPlaying
;
; ppu_on_all();
;
	.dbg	line, "SAUCE/menustates/levelselection.c", 80
	jsr     _ppu_on_all
;
; pal_fade_in();
;
	.dbg	line, "SAUCE/menustates/levelselection.c", 82
	ldx     #$04
	lda     #$00
	jsr     __pal_fade_to
;
; loop_routine_update();
;
	.dbg	line, "SAUCE/menustates/levelselection.c", 85
L0008:	jsr     _loop_routine_update
;
; check_if_music_stopped();
;
	.dbg	line, "SAUCE/menustates/levelselection.c", 87
	jsr     _check_if_music_stopped
;
; if (tmp4) edit_irq_table(high_byte(tmp8),2);
;
	.dbg	line, "SAUCE/menustates/levelselection.c", 89
	lda     _tmp4
	beq     L000B
	lda     _tmp8+1
;
; else edit_irq_table(low_byte(tmp8),2);
;
	.dbg	line, "SAUCE/menustates/levelselection.c", 90
	jmp     L006B
L000B:	lda     _tmp8
L006B:	ldx     #$02
	jsr     __edit_irq_table
;
; if (low_byte(tmp8) > 0) {
;
	.dbg	line, "SAUCE/menustates/levelselection.c", 92
	lda     _tmp8
	beq     L0041
;
; low_byte(tmp8) -= (low_byte(tmp8) >> 2) + 1;
;
	.dbg	line, "SAUCE/menustates/levelselection.c", 93
	lsr     a
	lsr     a
	clc
	adc     #$01
	eor     #$FF
	sec
	adc     _tmp8
	sta     _tmp8
;
; high_byte(tmp8) = low_byte(tmp8)^0xff;
;
	.dbg	line, "SAUCE/menustates/levelselection.c", 96
L0041:	lda     _tmp8
	eor     #$FF
	sta     _tmp8+1
;
; if (mouse.left_press) {
;
	.dbg	line, "SAUCE/menustates/levelselection.c", 98
	lda     _mouse
	and     #$10
	beq     L0057
;
; if (mouse.y >= 0x6E && mouse.y <= 0x7B) {
;
	.dbg	line, "SAUCE/menustates/levelselection.c", 99
	lda     _mouse+2
	cmp     #$6E
	bcc     L004C
	cmp     #$7C
	bcs     L004C
;
; if (mouse.x >= 0x09 && mouse.x <= 0x15) {
;
	.dbg	line, "SAUCE/menustates/levelselection.c", 100
	lda     _mouse+3
	cmp     #$09
	bcc     L0048
	cmp     #$16
	bcs     L0048
;
; drawBarFlag = 2;
;
	.dbg	line, "SAUCE/menustates/levelselection.c", 101
	ldx     #$00
	lda     #$02
	sta     _drawBarFlag
;
; leveldec();
;
	.dbg	line, "SAUCE/menustates/levelselection.c", 102
	jsr     _leveldec
;
; else if (mouse.x >= 0xE5 && mouse.x <= 0xEF) {
;
	.dbg	line, "SAUCE/menustates/levelselection.c", 104
	jmp     L004C
L0048:	lda     _mouse+3
	cmp     #$E5
	bcc     L004C
	cmp     #$F0
	bcs     L004C
;
; drawBarFlag = 2;
;
	.dbg	line, "SAUCE/menustates/levelselection.c", 105
	ldx     #$00
	lda     #$02
	sta     _drawBarFlag
;
; levelinc();    
;
	.dbg	line, "SAUCE/menustates/levelselection.c", 106
	jsr     _levelinc
;
; if (((mouse.y >= 0x3D && mouse.y <= 0x6C) && (mouse.x >= 0x2D && mouse.x <= 0xCC))) {
;
	.dbg	line, "SAUCE/menustates/levelselection.c", 109
L004C:	lda     _mouse+2
	cmp     #$3D
	bcc     L0057
	cmp     #$6D
	bcs     L0057
	lda     _mouse+3
	cmp     #$2D
	bcc     L0057
	ldx     #$00
	lda     _mouse+3
	cmp     #$CD
	bcs     L0057
	lda     #$01
;
; start_the_level();
;
	.dbg	line, "SAUCE/menustates/levelselection.c", 110
	jmp     _start_the_level
;
; if (joypad1.press & (PAD_START | PAD_A)){
;
	.dbg	line, "SAUCE/menustates/levelselection.c", 130
L0057:	lda     _joypad1+1
	ldx     #$00
	and     #$90
	beq     L0027
;
; start_the_level();
;
	.dbg	line, "SAUCE/menustates/levelselection.c", 131
	jmp     _start_the_level
;
; if (joypad1.press_b){
;
	.dbg	line, "SAUCE/menustates/levelselection.c", 138
L0027:	lda     _joypad1+1
	and     #$40
	beq     L0028
;
; gameState = STATE_MENU;
;
	.dbg	line, "SAUCE/menustates/levelselection.c", 139
	ldx     #$00
	lda     #$01
	sta     _gameState
;
; draw_both_progress_bars();
;
	.dbg	line, "SAUCE/menustates/levelselection.c", 143
	jmp     _draw_both_progress_bars
;
; if (joypad1.press_left || joypad1.press_right) hold_timer = 0;
;
	.dbg	line, "SAUCE/menustates/levelselection.c", 146
L0028:	lda     _joypad1+1
	and     #$02
	bne     L002A
	lda     _joypad1+1
	and     #$01
	bne     L002A
	tax
	jmp     L0029
L002A:	ldx     #$00
	stx     _hold_timer
;
; if (joypad1.press_right || (joypad1.right && hold_timer >= 15)){
;
	.dbg	line, "SAUCE/menustates/levelselection.c", 147
L0029:	lda     _joypad1+1
	and     #$01
	bne     L005F
	lda     _joypad1
	and     #$01
	beq     L002C
	lda     _hold_timer
	cmp     #$0F
	bcc     L002C
;
; drawBarFlag = 2;
;
	.dbg	line, "SAUCE/menustates/levelselection.c", 148
L005F:	lda     #$02
	sta     _drawBarFlag
;
; levelinc();
;
	.dbg	line, "SAUCE/menustates/levelselection.c", 149
	jsr     _levelinc
;
; hold_timer = 0;
;
	.dbg	line, "SAUCE/menustates/levelselection.c", 153
	ldx     #$00
	stx     _hold_timer
;
; if (joypad1.press_left || (joypad1.left && hold_timer >= 15)){
;
	.dbg	line, "SAUCE/menustates/levelselection.c", 155
L002C:	lda     _joypad1+1
	and     #$02
	bne     L0067
	lda     _joypad1
	and     #$02
	beq     L0068
	lda     _hold_timer
	cmp     #$0F
	bcc     L0068
;
; drawBarFlag = 2;
;
	.dbg	line, "SAUCE/menustates/levelselection.c", 156
L0067:	lda     #$02
	sta     _drawBarFlag
;
; leveldec();
;
	.dbg	line, "SAUCE/menustates/levelselection.c", 157
	jsr     _leveldec
;
; hold_timer = 0;
;
	.dbg	line, "SAUCE/menustates/levelselection.c", 161
	lda     #$00
	sta     _hold_timer
;
; if (tmp8 == 0x3B) {
;
	.dbg	line, "SAUCE/menustates/levelselection.c", 165
	tax
L0068:	lda     _tmp8
	cmp     #$3B
	bne     L0038
;
; crossPRGBankJump0(refreshmenu);
;
	.dbg	line, "SAUCE/menustates/levelselection.c", 166
	lda     #<_refreshmenu
	ldx     #>_refreshmenu
	ldy     #<.bank(_refreshmenu)
	jsr     crossPRGBankJump
	lda     ptr3
	ldx     ptr3+1
;
; draw_both_progress_bars();
;
	.dbg	line, "SAUCE/menustates/levelselection.c", 169
L0038:	jsr     _draw_both_progress_bars
;
; dec_mouse_timer();
;
	.dbg	line, "SAUCE/menustates/levelselection.c", 171
	jsr     _dec_mouse_timer
;
; if (hold_timer < 15) hold_timer++;
;
	.dbg	line, "SAUCE/menustates/levelselection.c", 172
	lda     _hold_timer
	cmp     #$0F
	jcs     L0008
	inc     _hold_timer
;
; while (1){
;
	.dbg	line, "SAUCE/menustates/levelselection.c", 84
	jmp     L0008

	.dbg	line
.endproc

; ---------------------------------------------------------------
; void __near__ draw_full_progress_bar (void)
; ---------------------------------------------------------------

.segment	"XCD_BANK_03"

.proc	_draw_full_progress_bar: near

	.dbg	func, "draw_full_progress_bar", "00", static, "_draw_full_progress_bar"

.segment	"XCD_BANK_03"

;
; if (drawBarFlag) crossPRGBankJump0(draw_progress_bar);
;
	.dbg	line, "SAUCE/menustates/progressbar.c", 106
	lda     _drawBarFlag
	beq     L0002
	lda     #<_draw_progress_bar
	ldx     #>_draw_progress_bar
	ldy     #<.bank(_draw_progress_bar)
	jsr     crossPRGBankJump
;
; draw_bar_sprites();
;
	.dbg	line, "SAUCE/menustates/progressbar.c", 110
L0002:	jmp     _draw_bar_sprites

	.dbg	line
.endproc

; ---------------------------------------------------------------
; void __near__ draw_percentage (void)
; ---------------------------------------------------------------

.segment	"XCD_BANK_03"

.proc	_draw_percentage: near

	.dbg	func, "draw_percentage", "00", static, "_draw_percentage"

.segment	"XCD_BANK_03"

;
; if (hexToDecOutputBuffer[2]) {       
;
	.dbg	line, "SAUCE/menustates/progressbar.c", 124
	lda     _hexToDecOutputBuffer+2
	beq     L0002
;
; high_byte(tmp6) = hexToDecOutputBuffer[2]; // number
;
	.dbg	line, "SAUCE/menustates/progressbar.c", 125
	sta     _tmp6+1
;
; crossPRGBankJump0(put_number);
;
	.dbg	line, "SAUCE/menustates/progressbar.c", 126
	lda     #<_put_number
	ldx     #>_put_number
	ldy     #<.bank(_put_number)
	jsr     crossPRGBankJump
;
; if (hexToDecOutputBuffer[2] | hexToDecOutputBuffer[1]) {
;
	.dbg	line, "SAUCE/menustates/progressbar.c", 129
L0002:	lda     _hexToDecOutputBuffer+2
	jsr     pusha0
	lda     _hexToDecOutputBuffer+1
	jsr     tosora0
	stx     tmp1
	ora     tmp1
	beq     L0003
;
; tmp1 += 8;              // x
;
	.dbg	line, "SAUCE/menustates/progressbar.c", 130
	lda     #$08
	clc
	adc     _tmp1
	sta     _tmp1
;
; high_byte(tmp6) = hexToDecOutputBuffer[1]; // number
;
	.dbg	line, "SAUCE/menustates/progressbar.c", 131
	lda     _hexToDecOutputBuffer+1
	sta     _tmp6+1
;
; crossPRGBankJump0(put_number);
;
	.dbg	line, "SAUCE/menustates/progressbar.c", 132
	lda     #<_put_number
	ldx     #>_put_number
	ldy     #<.bank(_put_number)
	jsr     crossPRGBankJump
;
; tmp1 += 8;              // x
;
	.dbg	line, "SAUCE/menustates/progressbar.c", 135
L0003:	lda     #$08
	clc
	adc     _tmp1
	sta     _tmp1
;
; high_byte(tmp6) = hexToDecOutputBuffer[0]; // number
;
	.dbg	line, "SAUCE/menustates/progressbar.c", 136
	lda     _hexToDecOutputBuffer
	sta     _tmp6+1
;
; crossPRGBankJump0(put_number);
;
	.dbg	line, "SAUCE/menustates/progressbar.c", 137
	lda     #<_put_number
	ldx     #>_put_number
	ldy     #<.bank(_put_number)
	jsr     crossPRGBankJump
;
; tmp1 += 8;         // x
;
	.dbg	line, "SAUCE/menustates/progressbar.c", 139
	lda     #$08
	clc
	adc     _tmp1
	sta     _tmp1
;
; high_byte(tmp6) = 10;    // percentage
;
	.dbg	line, "SAUCE/menustates/progressbar.c", 140
	lda     #$0A
	sta     _tmp6+1
;
; crossPRGBankJump0(put_number);
;
	.dbg	line, "SAUCE/menustates/progressbar.c", 141
	lda     #<_put_number
	ldx     #>_put_number
	ldy     #<.bank(_put_number)
	jmp     crossPRGBankJump

	.dbg	line
.endproc

; ---------------------------------------------------------------
; void __near__ draw_progress_bar (void)
; ---------------------------------------------------------------

.segment	"XCD_BANK_06"

.proc	_draw_progress_bar: near

	.dbg	func, "draw_progress_bar", "00", static, "_draw_progress_bar"

.segment	"XCD_BANK_06"

;
; drawBarFlag--;
;
	.dbg	line, "SAUCE/menustates/progressbar_pt2.c", 10
	dec     _drawBarFlag
;
; if (tmp7 >= NUMBER_PER_TILES) {
;
	.dbg	line, "SAUCE/menustates/progressbar_pt2.c", 12
	lda     _tmp7
	cmp     #$05
	jcc     L0027
;
; if (nametable_A) {
;
	.dbg	line, "SAUCE/menustates/progressbar_pt2.c", 13
	lda     _level
	and     #$01
	bne     L0022
;
; one_vram_buffer(0x8c, NTADR_A(tmp1, tmp2));
;
	.dbg	line, "SAUCE/menustates/progressbar_pt2.c", 14
	lda     #$8C
	sta     sreg+0
	ldx     #$00
	lda     _tmp2
	jsr     aslax4
	stx     tmp1
	asl     a
	rol     tmp1
	sta     ptr1
	lda     _tmp1
	ora     ptr1
	pha
	lda     tmp1
	ora     #$20
;
; } else {
;
	.dbg	line, "SAUCE/menustates/progressbar_pt2.c", 15
	jmp     L002F
;
; one_vram_buffer(0x8c, NTADR_B(tmp1, tmp2));
;
	.dbg	line, "SAUCE/menustates/progressbar_pt2.c", 16
L0022:	lda     #$8C
	sta     sreg+0
	ldx     #$00
	lda     _tmp2
	jsr     aslax4
	stx     tmp1
	asl     a
	rol     tmp1
	sta     ptr1
	lda     _tmp1
	ora     ptr1
	pha
	lda     tmp1
	ora     #$24
L002F:	tax
	pla
	jsr     __one_vram_buffer
;
; high_byte(tmp6) = (tmp7 >= BAR_MAX ? BAR_MAX - NUMBER_PER_TILES : tmp7);
;
	.dbg	line, "SAUCE/menustates/progressbar_pt2.c", 18
	lda     _tmp7
	cmp     #$64
	bcc     L0023
	lda     #$5F
	jmp     L0024
L0023:	lda     _tmp7
L0024:	sta     _tmp6+1
;
; high_byte(tmpA) = 0;
;
	.dbg	line, "SAUCE/menustates/progressbar_pt2.c", 21
	lda     #$00
	sta     _tmpA+1
;
; high_byte(tmp6) -= NUMBER_PER_TILES;
;
	.dbg	line, "SAUCE/menustates/progressbar_pt2.c", 23
L0025:	lda     _tmp6+1
	sec
	sbc     #$05
	sta     _tmp6+1
;
; high_byte(tmpA) += 1;
;
	.dbg	line, "SAUCE/menustates/progressbar_pt2.c", 24
	inc     _tmpA+1
;
; } while (high_byte(tmp6) >= NUMBER_PER_TILES);
;
	.dbg	line, "SAUCE/menustates/progressbar_pt2.c", 25
	lda     _tmp6+1
	cmp     #$05
	bcs     L0025
;
; if (nametable_A) {
;
	.dbg	line, "SAUCE/menustates/progressbar_pt2.c", 27
	lda     _level
	and     #$01
	bne     L0026
;
; one_vram_buffer_horz_repeat(0x6b, high_byte(tmpA), NTADR_A(tmp1 + 1, tmp2));
;
	.dbg	line, "SAUCE/menustates/progressbar_pt2.c", 28
	lda     _tmpA+1
	sta     sreg+1
	lda     #$6B
	sta     sreg
	ldx     #$00
	lda     _tmp2
	jsr     aslax4
	stx     tmp1
	asl     a
	rol     tmp1
	sta     ptr1
	ldx     #$00
	lda     _tmp1
	clc
	adc     #$01
	bcc     L000B
	inx
L000B:	ora     ptr1
	pha
	txa
	ora     tmp1
	tax
	pla
	pha
	txa
	ora     #$20
	tax
	pla
	pha
	txa
	ora     #$40
	tax
	pla
	jsr     __one_vram_buffer_repeat
;
; one_vram_buffer_horz_repeat(0x02, BAR_TILES - high_byte(tmpA), NTADR_A(tmp1 + high_byte(tmpA), tmp2));
;
	.dbg	line, "SAUCE/menustates/progressbar_pt2.c", 29
	lda     #$14
	sec
	sbc     _tmpA+1
	sta     sreg+1
	lda     #$02
	sta     sreg
	ldx     #$00
	lda     _tmp2
	jsr     aslax4
	stx     tmp1
	asl     a
	rol     tmp1
	sta     ptr1
	ldx     #$00
	lda     _tmp1
	clc
	adc     _tmpA+1
	bcc     L001D
	inx
L001D:	ora     ptr1
	pha
	txa
	ora     tmp1
	tax
	pla
	pha
	txa
	ora     #$20
;
; } else {
;
	.dbg	line, "SAUCE/menustates/progressbar_pt2.c", 30
	jmp     L003A
;
; one_vram_buffer_horz_repeat(0x6b, high_byte(tmpA), NTADR_B(tmp1 + 1, tmp2));
;
	.dbg	line, "SAUCE/menustates/progressbar_pt2.c", 31
L0026:	lda     _tmpA+1
	sta     sreg+1
	lda     #$6B
	sta     sreg
	ldx     #$00
	lda     _tmp2
	jsr     aslax4
	stx     tmp1
	asl     a
	rol     tmp1
	sta     ptr1
	ldx     #$00
	lda     _tmp1
	clc
	adc     #$01
	bcc     L000D
	inx
L000D:	ora     ptr1
	pha
	txa
	ora     tmp1
	tax
	pla
	pha
	txa
	ora     #$24
	tax
	pla
	pha
	txa
	ora     #$40
	tax
	pla
	jsr     __one_vram_buffer_repeat
;
; one_vram_buffer_horz_repeat(0x02, BAR_TILES - high_byte(tmpA), NTADR_B(tmp1 + high_byte(tmpA), tmp2));
;
	.dbg	line, "SAUCE/menustates/progressbar_pt2.c", 32
	lda     #$14
	sec
	sbc     _tmpA+1
	sta     sreg+1
	lda     #$02
	sta     sreg
	ldx     #$00
	lda     _tmp2
	jsr     aslax4
	stx     tmp1
	asl     a
	rol     tmp1
	sta     ptr1
	ldx     #$00
	lda     _tmp1
	clc
	adc     _tmpA+1
;
; } else {
;
	.dbg	line, "SAUCE/menustates/progressbar_pt2.c", 34
	jmp     L004E
;
; if (nametable_A) {
;
	.dbg	line, "SAUCE/menustates/progressbar_pt2.c", 35
L0027:	lda     _level
	and     #$01
	bne     L0028
;
; one_vram_buffer(0x7c, NTADR_A(tmp1, tmp2));
;
	.dbg	line, "SAUCE/menustates/progressbar_pt2.c", 36
	lda     #$7C
	sta     sreg+0
	ldx     #$00
	lda     _tmp2
	jsr     aslax4
	stx     tmp1
	asl     a
	rol     tmp1
	sta     ptr1
	lda     _tmp1
	ora     ptr1
	pha
	lda     tmp1
	ora     #$20
	tax
	pla
	jsr     __one_vram_buffer
;
; one_vram_buffer_horz_repeat(0x02, CENTER_TILES, NTADR_A(tmp1 + 1, tmp2));
;
	.dbg	line, "SAUCE/menustates/progressbar_pt2.c", 37
	ldx     #$12
	lda     #$02
	stx     sreg+1
	sta     sreg
	ldx     #$00
	lda     _tmp2
	jsr     aslax4
	stx     tmp1
	asl     a
	rol     tmp1
	sta     ptr1
	ldx     #$00
	lda     _tmp1
	clc
	adc     #$01
	bcc     L0010
	inx
L0010:	ora     ptr1
	pha
	txa
	ora     tmp1
	tax
	pla
	pha
	txa
	ora     #$20
;
; } else {
;
	.dbg	line, "SAUCE/menustates/progressbar_pt2.c", 38
	jmp     L003A
;
; one_vram_buffer(0x7c, NTADR_B(tmp1, tmp2));
;
	.dbg	line, "SAUCE/menustates/progressbar_pt2.c", 39
L0028:	lda     #$7C
	sta     sreg+0
	ldx     #$00
	lda     _tmp2
	jsr     aslax4
	stx     tmp1
	asl     a
	rol     tmp1
	sta     ptr1
	lda     _tmp1
	ora     ptr1
	pha
	lda     tmp1
	ora     #$24
	tax
	pla
	jsr     __one_vram_buffer
;
; one_vram_buffer_horz_repeat(0x02, CENTER_TILES, NTADR_B(tmp1 + 1, tmp2));
;
	.dbg	line, "SAUCE/menustates/progressbar_pt2.c", 40
	ldx     #$12
	lda     #$02
	stx     sreg+1
	sta     sreg
	ldx     #$00
	lda     _tmp2
	jsr     aslax4
	stx     tmp1
	asl     a
	rol     tmp1
	sta     ptr1
	ldx     #$00
	lda     _tmp1
	clc
	adc     #$01
L004E:	bcc     L0012
	inx
L0012:	ora     ptr1
	pha
	txa
	ora     tmp1
	tax
	pla
	pha
	txa
	ora     #$24
L003A:	tax
	pla
	pha
	txa
	ora     #$40
	tax
	pla
	jsr     __one_vram_buffer_repeat
;
; if (tmp7 >= BAR_MAX) {
;
	.dbg	line, "SAUCE/menustates/progressbar_pt2.c", 44
	lda     _tmp7
	cmp     #$64
	bcc     L002A
;
; if (nametable_A) {
;
	.dbg	line, "SAUCE/menustates/progressbar_pt2.c", 45
	lda     _level
	and     #$01
	bne     L0029
;
; one_vram_buffer(0x8d, NTADR_A(tmp1 + (BAR_TILES - 1), tmp2));
;
	.dbg	line, "SAUCE/menustates/progressbar_pt2.c", 46
	lda     #$8D
	sta     sreg+0
	ldx     #$00
	lda     _tmp2
	jsr     aslax4
	stx     tmp1
	asl     a
	rol     tmp1
	sta     ptr1
	ldx     #$00
	lda     _tmp1
	clc
	adc     #$13
	bcc     L0015
	inx
L0015:	ora     ptr1
	pha
	txa
	ora     tmp1
	tax
	pla
	pha
	txa
	ora     #$20
;
; } else {
;
	.dbg	line, "SAUCE/menustates/progressbar_pt2.c", 47
	jmp     L0031
;
; one_vram_buffer(0x8d, NTADR_B(tmp1 + (BAR_TILES - 1), tmp2));
;
	.dbg	line, "SAUCE/menustates/progressbar_pt2.c", 48
L0029:	lda     #$8D
;
; } else {
;
	.dbg	line, "SAUCE/menustates/progressbar_pt2.c", 50
	jmp     L0056
;
; if (nametable_A) {
;
	.dbg	line, "SAUCE/menustates/progressbar_pt2.c", 51
L002A:	lda     _level
	and     #$01
	bne     L002B
;
; one_vram_buffer(0x7d, NTADR_A(tmp1 + (BAR_TILES - 1), tmp2));
;
	.dbg	line, "SAUCE/menustates/progressbar_pt2.c", 52
	lda     #$7D
	sta     sreg+0
	ldx     #$00
	lda     _tmp2
	jsr     aslax4
	stx     tmp1
	asl     a
	rol     tmp1
	sta     ptr1
	ldx     #$00
	lda     _tmp1
	clc
	adc     #$13
	bcc     L001A
	inx
L001A:	ora     ptr1
	pha
	txa
	ora     tmp1
	tax
	pla
	pha
	txa
	ora     #$20
;
; } else {
;
	.dbg	line, "SAUCE/menustates/progressbar_pt2.c", 53
	jmp     L0031
;
; one_vram_buffer(0x7d, NTADR_B(tmp1 + (BAR_TILES - 1), tmp2));
;
	.dbg	line, "SAUCE/menustates/progressbar_pt2.c", 54
L002B:	lda     #$7D
L0056:	sta     sreg+0
	ldx     #$00
	lda     _tmp2
	jsr     aslax4
	stx     tmp1
	asl     a
	rol     tmp1
	sta     ptr1
	ldx     #$00
	lda     _tmp1
	clc
	adc     #$13
	bcc     L001C
	inx
L001C:	ora     ptr1
	pha
	txa
	ora     tmp1
	tax
	pla
	pha
	txa
	ora     #$24
L0031:	tax
	pla
	jmp     __one_vram_buffer

	.dbg	line
.endproc

; ---------------------------------------------------------------
; void __near__ calculate_sprite_pos (void)
; ---------------------------------------------------------------

.segment	"XCD_BANK_06"

.proc	_calculate_sprite_pos: near

	.dbg	func, "calculate_sprite_pos", "00", static, "_calculate_sprite_pos"

.segment	"XCD_BANK_06"

;
; high_byte(tmp5) = tmp1;
;
	.dbg	line, "SAUCE/menustates/progressbar_pt2.c", 65
	lda     _tmp1
	sta     _tmp5+1
;
; low_byte(tmp5) = 0;
;
	.dbg	line, "SAUCE/menustates/progressbar_pt2.c", 66
	lda     #$00
	sta     _tmp5
;
; tmp3 = 1;
;
	.dbg	line, "SAUCE/menustates/progressbar_pt2.c", 67
	lda     #$01
	sta     _tmp3
;
; if (tmp7 != 0) {
;
	.dbg	line, "SAUCE/menustates/progressbar_pt2.c", 69
	lda     _tmp7
	beq     L0007
;
; tmp3++;
;
	.dbg	line, "SAUCE/menustates/progressbar_pt2.c", 71
L0006:	inc     _tmp3
;
; tmp5 += PIXELS_PER_PERCENTAGE;
;
	.dbg	line, "SAUCE/menustates/progressbar_pt2.c", 72
	lda     #$99
	clc
	adc     _tmp5
	sta     _tmp5
	lda     #$01
	adc     _tmp5+1
	sta     _tmp5+1
;
; } while (tmp3 < tmp7);
;
	.dbg	line, "SAUCE/menustates/progressbar_pt2.c", 73
	lda     _tmp3
	cmp     _tmp7
	bcc     L0006
;
; tmp1 = high_byte(tmp5);
;
	.dbg	line, "SAUCE/menustates/progressbar_pt2.c", 76
L0007:	lda     _tmp5+1
	sta     _tmp1
;
; }
;
	.dbg	line, "SAUCE/menustates/progressbar_pt2.c", 77
	rts

	.dbg	line
.endproc

; ---------------------------------------------------------------
; void __near__ draw_bar_sprites (void)
; ---------------------------------------------------------------

.segment	"XCD_BANK_03"

.proc	_draw_bar_sprites: near

	.dbg	func, "draw_bar_sprites", "00", static, "_draw_bar_sprites"

.segment	"XCD_BANK_03"

;
; tmp3 = 0;
;
	.dbg	line, "SAUCE/menustates/progressbar.c", 66
	lda     #$00
	sta     _tmp3
;
; tmp1--; // left 1 tile
;
	.dbg	line, "SAUCE/menustates/progressbar.c", 67
	dec     _tmp1
;
; tmp1 = (tmp1 << 3) + 1;
;
	.dbg	line, "SAUCE/menustates/progressbar.c", 70
	lda     _tmp1
	asl     a
	asl     a
	asl     a
	clc
	adc     #$01
	sta     _tmp1
;
; temp_save = tmp1;
;
	.dbg	line, "SAUCE/menustates/progressbar.c", 71
	sta     _animating
;
; tmp2 = (tmp2 << 3) - 1;
;
	.dbg	line, "SAUCE/menustates/progressbar.c", 72
	lda     _tmp2
	asl     a
	asl     a
	asl     a
	sec
	sbc     #$01
	sta     _tmp2
;
; if (tmp4) {
;
	.dbg	line, "SAUCE/menustates/progressbar.c", 73
	lda     _tmp4
	beq     L0010
;
; tmp1 += tmp8 + 1;
;
	.dbg	line, "SAUCE/menustates/progressbar.c", 74
	lda     _tmp8
	clc
	adc     #$01
	clc
;
; } else {
;
	.dbg	line, "SAUCE/menustates/progressbar.c", 75
	jmp     L0012
;
; tmp1 -= tmp8;
;
	.dbg	line, "SAUCE/menustates/progressbar.c", 76
L0010:	lda     _tmp8
	eor     #$FF
	sec
L0012:	adc     _tmp1
	sta     _tmp1
;
; crossPRGBankJump0(put_progress_bar_sprite);
;
	.dbg	line, "SAUCE/menustates/progressbar.c", 78
	lda     #<_put_progress_bar_sprite
	ldx     #>_put_progress_bar_sprite
	ldy     #<.bank(_put_progress_bar_sprite)
	jsr     crossPRGBankJump
;
; tmp1++;
;
	.dbg	line, "SAUCE/menustates/progressbar.c", 79
	inc     _tmp1
;
; tmp3 = 3;
;
	.dbg	line, "SAUCE/menustates/progressbar.c", 80
	lda     #$03
	sta     _tmp3
;
; crossPRGBankJump0(put_progress_bar_sprite);
;
	.dbg	line, "SAUCE/menustates/progressbar.c", 81
	lda     #<_put_progress_bar_sprite
	ldx     #>_put_progress_bar_sprite
	ldy     #<.bank(_put_progress_bar_sprite)
	jsr     crossPRGBankJump
;
; tmp1 = 206;
;
	.dbg	line, "SAUCE/menustates/progressbar.c", 83
	lda     #$CE
	sta     _tmp1
;
; if (tmp4) {
;
	.dbg	line, "SAUCE/menustates/progressbar.c", 84
	lda     _tmp4
	beq     L0011
;
; tmp1 += tmp8 + 1;
;
	.dbg	line, "SAUCE/menustates/progressbar.c", 85
	lda     _tmp8
	clc
	adc     #$01
	clc
;
; } else {
;
	.dbg	line, "SAUCE/menustates/progressbar.c", 86
	jmp     L0013
;
; tmp1 -= tmp8;
;
	.dbg	line, "SAUCE/menustates/progressbar.c", 87
L0011:	lda     _tmp8
	eor     #$FF
	sec
L0013:	adc     _tmp1
	sta     _tmp1
;
; tmp3 = 4;
;
	.dbg	line, "SAUCE/menustates/progressbar.c", 89
	lda     #$04
	sta     _tmp3
;
; crossPRGBankJump0(put_progress_bar_sprite);
;
	.dbg	line, "SAUCE/menustates/progressbar.c", 90
	lda     #<_put_progress_bar_sprite
	ldx     #>_put_progress_bar_sprite
	ldy     #<.bank(_put_progress_bar_sprite)
	jsr     crossPRGBankJump
;
; tmp1 = temp_save;
;
	.dbg	line, "SAUCE/menustates/progressbar.c", 91
	lda     _animating
	sta     _tmp1
;
; crossPRGBankJump0(calculate_sprite_pos);
;
	.dbg	line, "SAUCE/menustates/progressbar.c", 92
	lda     #<_calculate_sprite_pos
	ldx     #>_calculate_sprite_pos
	ldy     #<.bank(_calculate_sprite_pos)
	jsr     crossPRGBankJump
;
; if (tmp4) {
;
	.dbg	line, "SAUCE/menustates/progressbar.c", 94
	lda     _tmp4
	beq     L000A
;
; tmp1 += tmp8 + 1;
;
	.dbg	line, "SAUCE/menustates/progressbar.c", 95
	lda     _tmp8
	clc
	adc     #$01
	clc
;
; } else {
;
	.dbg	line, "SAUCE/menustates/progressbar.c", 96
	jmp     L0014
;
; tmp1 -= tmp8;
;
	.dbg	line, "SAUCE/menustates/progressbar.c", 97
L000A:	lda     _tmp8
	eor     #$FF
	sec
L0014:	adc     _tmp1
	sta     _tmp1
;
; tmp3 = low_byte(tmp6);
;
	.dbg	line, "SAUCE/menustates/progressbar.c", 100
	lda     _tmp6
	sta     _tmp3
;
; crossPRGBankJump0(put_progress_bar_sprite);
;
	.dbg	line, "SAUCE/menustates/progressbar.c", 101
	lda     #<_put_progress_bar_sprite
	ldx     #>_put_progress_bar_sprite
	ldy     #<.bank(_put_progress_bar_sprite)
	jsr     crossPRGBankJump
;
; temp_save = 0;
;
	.dbg	line, "SAUCE/menustates/progressbar.c", 102
	lda     #$00
	sta     _animating
;
; }
;
	.dbg	line, "SAUCE/menustates/progressbar.c", 103
	rts

	.dbg	line
.endproc

; ---------------------------------------------------------------
; void __near__ draw_level_progress (void)
; ---------------------------------------------------------------

.segment	"XCD_BANK_03"

.proc	_draw_level_progress: near

	.dbg	func, "draw_level_progress", "00", static, "_draw_level_progress"

.segment	"XCD_BANK_03"

;
; update_level_completeness();
;
	.dbg	line, "SAUCE/menustates/progressbar.c", 115
	jsr     _update_level_completeness
;
; hexToDec(__A__);
;
	.dbg	line, "SAUCE/menustates/progressbar.c", 116
	jsr     _hexToDec
;
; tmp1 = 116;  // x
;
	.dbg	line, "SAUCE/menustates/progressbar.c", 117
	lda     #$74
	sta     _tmp1
;
; tmp2 = 0;  // y
;
	.dbg	line, "SAUCE/menustates/progressbar.c", 118
	lda     #$00
	sta     _tmp2
;
; tmp3 = 25;  // offset
;
	.dbg	line, "SAUCE/menustates/progressbar.c", 119
	tax
	lda     #$19
	sta     _tmp3
;
; draw_percentage(); 
;
	.dbg	line, "SAUCE/menustates/progressbar.c", 120
	jmp     _draw_percentage

	.dbg	line
.endproc

; ---------------------------------------------------------------
; void __near__ clear_shit (void)
; ---------------------------------------------------------------

.segment	"XCD_BANK_03"

.proc	_clear_shit: near

	.dbg	func, "clear_shit", "00", static, "_clear_shit"

.segment	"XCD_BANK_03"

;
; one_vram_buffer(' ', NTADR_A(4,14)); 
;
	.dbg	line, "SAUCE/menustates/customize.c", 250
	lda     #$FF
	sta     sreg+0
	ldx     #$21
	lda     #$C4
	jsr     __one_vram_buffer
;
; one_vram_buffer(' ', NTADR_A(4,15)); 
;
	.dbg	line, "SAUCE/menustates/customize.c", 251
	lda     #$FF
	sta     sreg+0
	ldx     #$21
	lda     #$E4
	jsr     __one_vram_buffer
;
; one_vram_buffer(' ', NTADR_A(9,14)); 
;
	.dbg	line, "SAUCE/menustates/customize.c", 252
	lda     #$FF
	sta     sreg+0
	ldx     #$21
	lda     #$C9
	jsr     __one_vram_buffer
;
; one_vram_buffer(' ', NTADR_A(9,15)); 
;
	.dbg	line, "SAUCE/menustates/customize.c", 253
	lda     #$FF
	sta     sreg+0
	ldx     #$21
	lda     #$E9
	jsr     __one_vram_buffer
;
; one_vram_buffer(' ', NTADR_A(13,14)); 
;
	.dbg	line, "SAUCE/menustates/customize.c", 254
	lda     #$FF
	sta     sreg+0
	ldx     #$21
	lda     #$CD
	jsr     __one_vram_buffer
;
; one_vram_buffer(' ', NTADR_A(13,15)); 
;
	.dbg	line, "SAUCE/menustates/customize.c", 255
	lda     #$FF
	sta     sreg+0
	ldx     #$21
	lda     #$ED
	jsr     __one_vram_buffer
;
; one_vram_buffer(' ', NTADR_A(18,14)); 
;
	.dbg	line, "SAUCE/menustates/customize.c", 256
	lda     #$FF
	sta     sreg+0
	ldx     #$21
	lda     #$D2
	jsr     __one_vram_buffer
;
; one_vram_buffer(' ', NTADR_A(18,15)); 
;
	.dbg	line, "SAUCE/menustates/customize.c", 257
	lda     #$FF
	sta     sreg+0
	ldx     #$21
	lda     #$F2
	jsr     __one_vram_buffer
;
; one_vram_buffer(' ', NTADR_A(22,14)); 
;
	.dbg	line, "SAUCE/menustates/customize.c", 258
	lda     #$FF
	sta     sreg+0
	ldx     #$21
	lda     #$D6
	jsr     __one_vram_buffer
;
; one_vram_buffer(' ', NTADR_A(22,15)); 
;
	.dbg	line, "SAUCE/menustates/customize.c", 259
	lda     #$FF
	sta     sreg+0
	ldx     #$21
	lda     #$F6
	jsr     __one_vram_buffer
;
; one_vram_buffer(' ', NTADR_A(27,14)); 
;
	.dbg	line, "SAUCE/menustates/customize.c", 260
	lda     #$FF
	sta     sreg+0
	ldx     #$21
	lda     #$DB
	jsr     __one_vram_buffer
;
; one_vram_buffer(' ', NTADR_A(27,15)); 
;
	.dbg	line, "SAUCE/menustates/customize.c", 261
	lda     #$FF
	sta     sreg+0
	ldx     #$21
	lda     #$FB
	jsr     __one_vram_buffer
;
; one_vram_buffer(' ', NTADR_A(13,8)); 
;
	.dbg	line, "SAUCE/menustates/customize.c", 262
	lda     #$FF
	sta     sreg+0
	ldx     #$21
	lda     #$0D
	jsr     __one_vram_buffer
;
; one_vram_buffer(' ', NTADR_A(13,9)); 
;
	.dbg	line, "SAUCE/menustates/customize.c", 263
	lda     #$FF
	sta     sreg+0
	ldx     #$21
	lda     #$2D
	jsr     __one_vram_buffer
;
; one_vram_buffer(' ', NTADR_A(18,8)); 
;
	.dbg	line, "SAUCE/menustates/customize.c", 264
	lda     #$FF
	sta     sreg+0
	ldx     #$21
	lda     #$12
	jsr     __one_vram_buffer
;
; one_vram_buffer(' ', NTADR_A(18,9)); 
;
	.dbg	line, "SAUCE/menustates/customize.c", 265
	lda     #$FF
	sta     sreg+0
	ldx     #$21
	lda     #$32
	jmp     __one_vram_buffer

	.dbg	line
.endproc

; ---------------------------------------------------------------
; void __near__ colorinc (void)
; ---------------------------------------------------------------

.segment	"XCD_BANK_03"

.proc	_colorinc: near

	.dbg	func, "colorinc", "00", static, "_colorinc"

.segment	"XCD_BANK_03"

;
; if (idx8_inc(icon_colors, settingvalue) & 0x30) {
;
	.dbg	line, "SAUCE/menustates/customize.c", 280
	ldx     _settingvalue
	inc     _icon_colors,x
	lda     _icon_colors,x
	and     #$30
	beq     L0002
;
; if ((uint8_t)(icon_colors[settingvalue] & 0x0F) >= 0x0D)
;
	.dbg	line, "SAUCE/menustates/customize.c", 281
	ldy     _settingvalue
	lda     _icon_colors,y
	and     #$0F
	cmp     #$0D
	bcc     L0008
;
; idx8_store(icon_colors, settingvalue, (icon_colors[settingvalue] + 0x10) & 0x30);
;
	.dbg	line, "SAUCE/menustates/customize.c", 282
	ldy     _settingvalue
	lda     _icon_colors,y
	clc
	adc     #$10
	and     #$30
;
; } else {
;
	.dbg	line, "SAUCE/menustates/customize.c", 283
	jmp     L000D
;
; if (((icon_colors[settingvalue] - 0x0D) & 0xFE) == 0) // if color == 0x0D or 0x0E
;
	.dbg	line, "SAUCE/menustates/customize.c", 284
L0002:	ldy     _settingvalue
	lda     _icon_colors,y
	sec
	sbc     #$0D
	and     #$FE
	bne     L0008
;
; icon_colors[settingvalue] = 0x0F;
;
	.dbg	line, "SAUCE/menustates/customize.c", 285
	ldy     _settingvalue
	lda     #$0F
L000D:	sta     _icon_colors,y
;
; }
;
	.dbg	line, "SAUCE/menustates/customize.c", 287
L0008:	rts

	.dbg	line
.endproc

; ---------------------------------------------------------------
; void __near__ colordec (void)
; ---------------------------------------------------------------

.segment	"XCD_BANK_03"

.proc	_colordec: near

	.dbg	func, "colordec", "00", static, "_colordec"

.segment	"XCD_BANK_03"

;
; if (idx8_dec(icon_colors, settingvalue) & 0x30) {
;
	.dbg	line, "SAUCE/menustates/customize.c", 290
	ldx     _settingvalue
	dec     _icon_colors,x
	lda     _icon_colors,x
	and     #$30
	beq     L0002
;
; if ((uint8_t)(icon_colors[settingvalue] & 0x0F) >= 0x0D)
;
	.dbg	line, "SAUCE/menustates/customize.c", 291
	ldy     _settingvalue
	lda     _icon_colors,y
	and     #$0F
	cmp     #$0D
	bcc     L0007
;
; idx8_store(icon_colors, settingvalue, (icon_colors[settingvalue] & 0x30) | 0x0C);
;
	.dbg	line, "SAUCE/menustates/customize.c", 292
	ldy     _settingvalue
	lda     _icon_colors,y
	and     #$30
	ora     #$0C
;
; } else {
;
	.dbg	line, "SAUCE/menustates/customize.c", 293
	jmp     L000C
;
; if (((icon_colors[settingvalue] - 0x0D) & 0xFE) == 0) // if color == 0x0D or 0x0E
;
	.dbg	line, "SAUCE/menustates/customize.c", 294
L0002:	ldy     _settingvalue
	lda     _icon_colors,y
	sec
	sbc     #$0D
	and     #$FE
	bne     L0007
;
; icon_colors[settingvalue] = 0x0C;
;
	.dbg	line, "SAUCE/menustates/customize.c", 295
	ldy     _settingvalue
	lda     #$0C
L000C:	sta     _icon_colors,y
;
; }
;
	.dbg	line, "SAUCE/menustates/customize.c", 297
L0007:	rts

	.dbg	line
.endproc

; ---------------------------------------------------------------
; void __near__ updateColors (void)
; ---------------------------------------------------------------

.segment	"XCD_BANK_03"

.proc	_updateColors: near

	.dbg	func, "updateColors", "00", static, "_updateColors"

.segment	"XCD_BANK_03"

;
; if (joypad1.press_up) {
;
	.dbg	line, "SAUCE/menustates/customize.c", 270
	lda     _joypad1+1
	and     #$08
	beq     L0002
;
; colorinc();
;
	.dbg	line, "SAUCE/menustates/customize.c", 271
	jsr     _colorinc
;
; if (joypad1.press_down) { 
;
	.dbg	line, "SAUCE/menustates/customize.c", 273
L0002:	lda     _joypad1+1
	and     #$04
	beq     L0003
;
; colordec();
;
	.dbg	line, "SAUCE/menustates/customize.c", 274
	jmp     _colordec
;
; }
;
	.dbg	line, "SAUCE/menustates/customize.c", 277
L0003:	rts

	.dbg	line
.endproc

; ---------------------------------------------------------------
; void __near__ state_customize (void)
; ---------------------------------------------------------------

.segment	"XCD_BANK_03"

.proc	_state_customize: near

	.dbg	func, "state_customize", "00", static, "_state_customize"

.segment	"XCD_BANK_03"

;
; mmc3_set_8kb_chr(MENUICONBANK);
;
	.dbg	line, "SAUCE/menustates/customize.c", 16
	lda     #$66
	sta     _xargs
	jsr     __mmc3_set_8kb_chr
;
; mmc3_set_2kb_chr_bank_0(0xFF);
;
	.dbg	line, "SAUCE/menustates/customize.c", 17
	lda     #$FF
	jsr     _mmc3_set_2kb_chr_bank_0
;
; mmc3_set_2kb_chr_bank_1(MOUSEBANK);
;
	.dbg	line, "SAUCE/menustates/customize.c", 18
	lda     #$60
	jsr     _mmc3_set_2kb_chr_bank_1
;
; pal_bg(paletteMenu);
;
	.dbg	line, "SAUCE/menustates/customize.c", 20
	lda     #<(_paletteMenu)
	ldx     #>(_paletteMenu)
	jsr     _pal_bg
;
; pal_col(0x00, 0x00);
;
	.dbg	line, "SAUCE/menustates/customize.c", 21
	lda     #$00
	sta     _PAL_BUF_RAW
	tay
	lda     (_PAL_PTR),y
	sta     _PAL_BUF
;
; pal_set_update();
;
	.dbg	line, "SAUCE/menustates/customize.c", 22
	inc     _PAL_UPDATE
;
; vram_adr(NAMETABLE_A);
;
	.dbg	line, "SAUCE/menustates/customize.c", 24
	lda     #$20
	sta     $2006
	sty     $2006
;
; vram_unrle(customizescreen);
;
	.dbg	line, "SAUCE/menustates/customize.c", 25
	lda     #<(_customizescreen)
	ldx     #>(_customizescreen)
	jsr     _vram_unrle
;
; kandokidshack = 0;
;
	.dbg	line, "SAUCE/menustates/customize.c", 27
	lda     #$00
	sta     _kandokidshack
;
; kandokidshack2 = 0;
;
	.dbg	line, "SAUCE/menustates/customize.c", 28
	sta     _kandokidshack2
;
; tmp2 = 0;
;
	.dbg	line, "SAUCE/menustates/customize.c", 29
	sta     _tmp2
;
; __A__ = tmp2; __asm__("tay");
;
	.dbg	line, "SAUCE/menustates/customize.c", 32
L0084:	ldy     _tmp2
;
; __A__ = kandokidshack;
;
	.dbg	line, "SAUCE/menustates/customize.c", 33
	lda     _kandokidshack
;
; __asm__("clc \n adc %v, y", coin1_obtained);
;
	.dbg	line, "SAUCE/menustates/customize.c", 34
	clc
	adc     _coin1_obtained,y
;
; __asm__("clc \n adc %v, y", coin2_obtained);
;
	.dbg	line, "SAUCE/menustates/customize.c", 35
	clc
	adc     _coin2_obtained,y
;
; __asm__("clc \n adc %v, y", coin3_obtained);
;
	.dbg	line, "SAUCE/menustates/customize.c", 36
	clc
	adc     _coin3_obtained,y
;
; kandokidshack = __A__;
;
	.dbg	line, "SAUCE/menustates/customize.c", 37
	sta     _kandokidshack
;
; if (LEVELCOMPLETE[tmp2]) kandokidshack2 += stars_list[tmp2];
;
	.dbg	line, "SAUCE/menustates/customize.c", 38
	ldy     _tmp2
	lda     _LEVELCOMPLETE,y
	beq     L0085
	ldy     _tmp2
	lda     _stars_list,y
	clc
	adc     _kandokidshack2
	sta     _kandokidshack2
;
; tmp2++;
;
	.dbg	line, "SAUCE/menustates/customize.c", 40
L0085:	inc     _tmp2
;
; while (tmp2 < LEVEL_COUNT2); 
;
	.dbg	line, "SAUCE/menustates/customize.c", 45
	lda     _tmp2
	cmp     #$2C
	bcc     L0084
;
; printDecimal(kandokidshack2, 2, 0xD0, 0xFF, NTADR_A(26,4));
;
	.dbg	line, "SAUCE/menustates/customize.c", 48
	ldx     #$00
	lda     _kandokidshack2
	stx     sreg+1
	sta     sreg
	lda     #$02
	sta     _xargs
	lda     #$D0
	sta     _xargs+1
	lda     #$FF
	sta     _xargs+2
	ldx     #$60
	lda     #$9A
	jsr     __printDecimal
;
; printDecimal(kandokidshack, 2, 0xD0, 0xFF, NTADR_A(26,5));
;
	.dbg	line, "SAUCE/menustates/customize.c", 49
	ldx     #$00
	lda     _kandokidshack
	stx     sreg+1
	sta     sreg
	lda     #$02
	sta     _xargs
	lda     #$D0
	sta     _xargs+1
	lda     #$FF
	sta     _xargs+2
	ldx     #$60
	lda     #$BA
	jsr     __printDecimal
;
; one_vram_buffer('h', NTADR_A(13, 8));  
;
	.dbg	line, "SAUCE/menustates/customize.c", 51
	lda     #$4E
	sta     sreg+0
	ldx     #$21
	lda     #$0D
	jsr     __one_vram_buffer
;
; one_vram_buffer('i', NTADR_A(13, 9));
;
	.dbg	line, "SAUCE/menustates/customize.c", 52
	lda     #$5E
	sta     sreg+0
	ldx     #$21
	lda     #$2D
	jsr     __one_vram_buffer
;
; one_vram_buffer('f', NTADR_A(18, 8));
;
	.dbg	line, "SAUCE/menustates/customize.c", 53
	lda     #$4F
	sta     sreg+0
	ldx     #$21
	lda     #$12
	jsr     __one_vram_buffer
;
; one_vram_buffer('g', NTADR_A(18, 9));
;
	.dbg	line, "SAUCE/menustates/customize.c", 54
	lda     #$5F
	sta     sreg+0
	ldx     #$21
	lda     #$32
	jsr     __one_vram_buffer
;
; tmp1 = iconTable[icon] + 'a';
;
	.dbg	line, "SAUCE/menustates/customize.c", 55
	ldy     _icon
	lda     _iconTable,y
	clc
	adc     #$20
	sta     _tmp1
;
; one_vram_buffer(tmp1, NTADR_A(15, 8));
;
	.dbg	line, "SAUCE/menustates/customize.c", 56
	sta     sreg+0
	ldx     #$21
	lda     #$0F
	jsr     __one_vram_buffer
;
; one_vram_buffer(++tmp1, NTADR_A(16, 8));
;
	.dbg	line, "SAUCE/menustates/customize.c", 57
	inc     _tmp1
	lda     _tmp1
	sta     sreg+0
	ldx     #$21
	lda     #$10
	jsr     __one_vram_buffer
;
; one_vram_buffer((tmp1 += ('c'-'b')), NTADR_A(15, 9));
;
	.dbg	line, "SAUCE/menustates/customize.c", 58
	lda     #$0F
	clc
	adc     _tmp1
	sta     _tmp1
	sta     sreg+0
	ldx     #$21
	lda     #$2F
	jsr     __one_vram_buffer
;
; one_vram_buffer(++tmp1, NTADR_A(16, 9));
;
	.dbg	line, "SAUCE/menustates/customize.c", 59
	inc     _tmp1
	lda     _tmp1
	sta     sreg+0
	ldx     #$21
	lda     #$30
	jsr     __one_vram_buffer
;
; settingvalue = 3;
;
	.dbg	line, "SAUCE/menustates/customize.c", 61
	lda     #$03
	sta     _settingvalue
;
; prev_icon = icon;
;
	.dbg	line, "SAUCE/menustates/customize.c", 65
	ldx     #$00
	lda     _icon
	sta     _tmp8
;
; ppu_on_all();
;
	.dbg	line, "SAUCE/menustates/customize.c", 67
	jsr     _ppu_on_all
;
; pal_fade_in();
;
	.dbg	line, "SAUCE/menustates/customize.c", 69
	ldx     #$04
	lda     #$00
	jsr     __pal_fade_to
;
; tmp3 = 0;
;
	.dbg	line, "SAUCE/menustates/customize.c", 72
L0086:	lda     #$00
	sta     _tmp3
;
; check_if_music_stopped();
;
	.dbg	line, "SAUCE/menustates/customize.c", 73
	jsr     _check_if_music_stopped
;
; loop_routine_update();
;
	.dbg	line, "SAUCE/menustates/customize.c", 74
	jsr     _loop_routine_update
;
; pal_col(0x0a,color1);
;
	.dbg	line, "SAUCE/menustates/customize.c", 76
	lda     _icon_colors
	sta     _PAL_BUF_RAW+10
	tay
	lda     (_PAL_PTR),y
	sta     _PAL_BUF+10
;
; pal_col(0x0b,color2);
;
	.dbg	line, "SAUCE/menustates/customize.c", 77
	lda     _icon_colors+1
	sta     _PAL_BUF_RAW+11
	tay
	lda     (_PAL_PTR),y
	sta     _PAL_BUF+11
;
; pal_col(0x09,color3);
;
	.dbg	line, "SAUCE/menustates/customize.c", 78
	lda     _icon_colors+2
	sta     _PAL_BUF_RAW+9
	tay
	lda     (_PAL_PTR),y
	sta     _PAL_BUF+9
;
; pal_set_update();
;
	.dbg	line, "SAUCE/menustates/customize.c", 79
	ldx     #$00
	inc     _PAL_UPDATE
;
; if (mouse.left_press || (mouse.left && hold_timer >= 15)) {
;
	.dbg	line, "SAUCE/menustates/customize.c", 85
	lda     _mouse
	and     #$10
	bne     L008E
	lda     _mouse+1
	and     #$40
	jeq     L0049
	lda     _hold_timer
	cmp     #$0F
	jcc     L0049
;
; if ((mouse.x >= 0x76 && mouse.x <= 0x83)) { 
;
	.dbg	line, "SAUCE/menustates/customize.c", 87
L008E:	lda     _mouse+3
	cmp     #$76
	bcc     L00A4
	cmp     #$84
	bcs     L00A4
;
; if (mouse.y >= 0x34 && mouse.y <= 0x3C) {
;
	.dbg	line, "SAUCE/menustates/customize.c", 88
	lda     _mouse+2
	cmp     #$34
	bcc     L0096
	cmp     #$3D
	bcs     L0096
;
; icon++;
;
	.dbg	line, "SAUCE/menustates/customize.c", 89
	inc     _icon
;
; if (icon > (MAX_ICONS - 1)) icon = 0;    
;
	.dbg	line, "SAUCE/menustates/customize.c", 90
	lda     _icon
	cmp     #$1A
	bcc     L0095
	stx     _icon
;
; settingvalue = 3;
;
	.dbg	line, "SAUCE/menustates/customize.c", 91
L0095:	lda     #$03
	sta     _settingvalue
;
; else if (mouse.y >= 0x4D && mouse.y <= 0x54) {
;
	.dbg	line, "SAUCE/menustates/customize.c", 95
	jmp     L00E3
L0096:	lda     _mouse+2
	cmp     #$4D
	bcc     L009C
	cmp     #$55
	bcs     L009C
;
; if (icon == 0) icon = MAX_ICONS - 1;
;
	.dbg	line, "SAUCE/menustates/customize.c", 96
	lda     _icon
	bne     L009A
	lda     #$19
	sta     _icon
;
; else icon--;    
;
	.dbg	line, "SAUCE/menustates/customize.c", 97
	jmp     L009B
L009A:	dec     _icon
;
; settingvalue = 3;
;
	.dbg	line, "SAUCE/menustates/customize.c", 98
L009B:	lda     #$03
	sta     _settingvalue
;
; else if ((mouse.y >= 0x64 && mouse.y <= 0x6C)) {
;
	.dbg	line, "SAUCE/menustates/customize.c", 104
	jmp     L00E3
L009C:	lda     _mouse+2
	cmp     #$64
	bcc     L00A0
	cmp     #$6D
	bcs     L00A0
;
; settingvalue = 1;
;
	.dbg	line, "SAUCE/menustates/customize.c", 105
	lda     #$01
	sta     _settingvalue
;
; colorinc();
;
	.dbg	line, "SAUCE/menustates/customize.c", 106
	jsr     _colorinc
;
; else if ((mouse.y >= 0x7D && mouse.y <= 0x83)) {
;
	.dbg	line, "SAUCE/menustates/customize.c", 111
	jmp     L00E5
L00A0:	lda     _mouse+2
	cmp     #$7D
	bcc     L00BA
	cmp     #$84
	bcs     L00BA
;
; settingvalue = 1;   
;
	.dbg	line, "SAUCE/menustates/customize.c", 112
	lda     #$01
;
; else if ((mouse.x >= 0x2E && mouse.x <= 0x3B)) {
;
	.dbg	line, "SAUCE/menustates/customize.c", 122
	jmp     L00E8
L00A4:	lda     _mouse+3
	cmp     #$2E
	bcc     L00AF
	cmp     #$3C
	bcs     L00AF
;
; if (mouse.y >= 0x63 && mouse.y <= 0x6C) {
;
	.dbg	line, "SAUCE/menustates/customize.c", 123
	lda     _mouse+2
	cmp     #$63
	bcc     L00AB
	cmp     #$6D
	bcs     L00AB
;
; settingvalue = 0;
;
	.dbg	line, "SAUCE/menustates/customize.c", 124
	txa
	sta     _settingvalue
;
; colorinc();
;
	.dbg	line, "SAUCE/menustates/customize.c", 125
	jsr     _colorinc
;
; else if ((mouse.y >= 0x7D && mouse.y <= 0x83)) {
;
	.dbg	line, "SAUCE/menustates/customize.c", 130
	jmp     L00E5
L00AB:	lda     _mouse+2
	cmp     #$7D
	bcc     L00BA
	cmp     #$84
	bcs     L00BA
;
; settingvalue = 0;   
;
	.dbg	line, "SAUCE/menustates/customize.c", 131
	txa
;
; else if ((mouse.x >= 0xBE && mouse.x <= 0xCB)) {
;
	.dbg	line, "SAUCE/menustates/customize.c", 139
	jmp     L00E8
L00AF:	lda     _mouse+3
	cmp     #$BE
	bcc     L00BA
	cmp     #$CC
	bcs     L00BA
;
; if (mouse.y >= 0x63 && mouse.y <= 0x6C) {
;
	.dbg	line, "SAUCE/menustates/customize.c", 140
	lda     _mouse+2
	cmp     #$63
	bcc     L00B6
	cmp     #$6D
	bcs     L00B6
;
; settingvalue = 2;
;
	.dbg	line, "SAUCE/menustates/customize.c", 141
	lda     #$02
	sta     _settingvalue
;
; colorinc();
;
	.dbg	line, "SAUCE/menustates/customize.c", 142
	jsr     _colorinc
;
; else if ((mouse.y >= 0x7D && mouse.y <= 0x83)) {
;
	.dbg	line, "SAUCE/menustates/customize.c", 147
	jmp     L00E5
L00B6:	lda     _mouse+2
	cmp     #$7D
	bcc     L00BA
	cmp     #$84
	bcs     L00BA
;
; settingvalue = 2;   
;
	.dbg	line, "SAUCE/menustates/customize.c", 148
	lda     #$02
L00E8:	sta     _settingvalue
;
; colordec();
;
	.dbg	line, "SAUCE/menustates/customize.c", 149
	jsr     _colordec
;
; hold_timer = 0;     
;
	.dbg	line, "SAUCE/menustates/customize.c", 150
L00E5:	ldx     #$00
L00E3:	txa
	sta     _hold_timer
;
; clear_shit();
;
	.dbg	line, "SAUCE/menustates/customize.c", 151
	jsr     _clear_shit
;
; if ((mouse.x >= 0x35 && mouse.x <= 0xBC) && (mouse.y >= 0xBC && mouse.y <= 0xC4)) {
;
	.dbg	line, "SAUCE/menustates/customize.c", 155
L00BA:	lda     _mouse+3
	cmp     #$35
	ldx     #$00
	bcc     L0049
	lda     _mouse+3
	cmp     #$BD
	bcs     L0049
	lda     _mouse+2
	cmp     #$BC
	bcc     L0049
	cmp     #$C5
	bcs     L0049
	lda     #$01
;
; gameState = STATE_MENU; 
;
	.dbg	line, "SAUCE/menustates/customize.c", 156
	sta     _gameState
;
; return;
;
	.dbg	line, "SAUCE/menustates/customize.c", 157
	rts
;
; if (!retro_mode) {
;
	.dbg	line, "SAUCE/menustates/customize.c", 162
L0049:	lda     _retro_mode
	bne     L0053
;
; if (icon != prev_icon) {
;
	.dbg	line, "SAUCE/menustates/customize.c", 163
	lda     _icon
	cmp     _tmp8
	jeq     L00C7
;
; tmp1 = iconTable[icon] + 'a';
;
	.dbg	line, "SAUCE/menustates/customize.c", 164
	ldy     _icon
	lda     _iconTable,y
	clc
	adc     #$20
	sta     _tmp1
;
; one_vram_buffer(tmp1, NTADR_A(15, 8));
;
	.dbg	line, "SAUCE/menustates/customize.c", 165
	sta     sreg+0
	ldx     #$21
	lda     #$0F
	jsr     __one_vram_buffer
;
; one_vram_buffer(++tmp1, NTADR_A(16, 8));
;
	.dbg	line, "SAUCE/menustates/customize.c", 166
	inc     _tmp1
	lda     _tmp1
	sta     sreg+0
	ldx     #$21
	lda     #$10
	jsr     __one_vram_buffer
;
; one_vram_buffer((tmp1 += ('c'-'b')), NTADR_A(15, 9));
;
	.dbg	line, "SAUCE/menustates/customize.c", 167
	lda     #$0F
	clc
	adc     _tmp1
	sta     _tmp1
	sta     sreg+0
	ldx     #$21
	lda     #$2F
	jsr     __one_vram_buffer
;
; one_vram_buffer(++tmp1, NTADR_A(16, 9));
;
	.dbg	line, "SAUCE/menustates/customize.c", 168
	inc     _tmp1
	lda     _tmp1
	sta     sreg+0
	ldx     #$21
	lda     #$30
	jsr     __one_vram_buffer
;
; prev_icon = icon;
;
	.dbg	line, "SAUCE/menustates/customize.c", 169
	lda     _icon
;
; } else {
;
	.dbg	line, "SAUCE/menustates/customize.c", 171
	jmp     L0083
;
; if (prev_icon) {
;
	.dbg	line, "SAUCE/menustates/customize.c", 172
L0053:	lda     _tmp8
	beq     L00C7
;
; one_vram_buffer('a'+0x6E, NTADR_A(15,8));
;
	.dbg	line, "SAUCE/menustates/customize.c", 173
	lda     #$8E
	sta     sreg+0
	ldx     #$21
	lda     #$0F
	jsr     __one_vram_buffer
;
; one_vram_buffer('b'+0x6E, NTADR_A(16,8));
;
	.dbg	line, "SAUCE/menustates/customize.c", 174
	lda     #$8F
	sta     sreg+0
	ldx     #$21
	lda     #$10
	jsr     __one_vram_buffer
;
; one_vram_buffer('c'+0x6E, NTADR_A(15,9));
;
	.dbg	line, "SAUCE/menustates/customize.c", 175
	lda     #$9E
	sta     sreg+0
	ldx     #$21
	lda     #$2F
	jsr     __one_vram_buffer
;
; one_vram_buffer('d'+0x6E, NTADR_A(16,9));
;
	.dbg	line, "SAUCE/menustates/customize.c", 176
	lda     #$9F
	sta     sreg+0
	ldx     #$21
	lda     #$30
	jsr     __one_vram_buffer
;
; prev_icon = 0;
;
	.dbg	line, "SAUCE/menustates/customize.c", 177
	lda     #$00
L0083:	sta     _tmp8
;
; if (settingvalue == 3 && !retro_mode) {
;
	.dbg	line, "SAUCE/menustates/customize.c", 180
	ldx     #$00
L00C7:	lda     _settingvalue
	cmp     #$03
	bne     L00DE
	lda     _retro_mode
	bne     L00DE
;
; if (joypad1.press_up || (joypad1.up && hold_timer >= 15)) {
;
	.dbg	line, "SAUCE/menustates/customize.c", 181
	lda     _joypad1+1
	and     #$08
	bne     L00D1
	lda     _joypad1
	and     #$08
	beq     L005D
	lda     _hold_timer
	cmp     #$0F
	bcc     L005D
;
; icon++;
;
	.dbg	line, "SAUCE/menustates/customize.c", 182
L00D1:	inc     _icon
;
; if (icon > (MAX_ICONS - 1)) icon = 0;
;
	.dbg	line, "SAUCE/menustates/customize.c", 186
	lda     _icon
	cmp     #$1A
	txa
	bcc     L00D3
	sta     _icon
;
; hold_timer = 0;
;
	.dbg	line, "SAUCE/menustates/customize.c", 187
L00D3:	sta     _hold_timer
;
; if (joypad1.press_down || (joypad1.down && hold_timer >= 15)) {
;
	.dbg	line, "SAUCE/menustates/customize.c", 189
L005D:	lda     _joypad1+1
	and     #$04
	bne     L00DB
	lda     _joypad1
	and     #$04
	beq     L006D
	lda     _hold_timer
	cmp     #$0F
	bcc     L006D
;
; if (icon == 0) icon = MAX_ICONS - 1;
;
	.dbg	line, "SAUCE/menustates/customize.c", 193
L00DB:	lda     _icon
	bne     L00DC
	lda     #$19
	sta     _icon
;
; else icon--;
;
	.dbg	line, "SAUCE/menustates/customize.c", 194
	jmp     L00DD
L00DC:	dec     _icon
;
; hold_timer = 0;    
;
	.dbg	line, "SAUCE/menustates/customize.c", 195
L00DD:	stx     _hold_timer
;
; } else if (settingvalue != 3) updateColors();
;
	.dbg	line, "SAUCE/menustates/customize.c", 197
	jmp     L006D
L00DE:	lda     _settingvalue
	cmp     #$03
	beq     L006D
	jsr     _updateColors
;
; if (joypad1.press_right) {
;
	.dbg	line, "SAUCE/menustates/customize.c", 199
L006D:	lda     _joypad1+1
	and     #$01
	beq     L006E
;
; settingvalue++;
;
	.dbg	line, "SAUCE/menustates/customize.c", 200
	inc     _settingvalue
;
; if (settingvalue == 4) settingvalue = 0;
;
	.dbg	line, "SAUCE/menustates/customize.c", 204
	lda     _settingvalue
	cmp     #$04
	bne     L00DF
	lda     #$00
	sta     _settingvalue
;
; tmp3--;
;
	.dbg	line, "SAUCE/menustates/customize.c", 205
L00DF:	dec     _tmp3
;
; if (joypad1.press_left) {
;
	.dbg	line, "SAUCE/menustates/customize.c", 207
L006E:	lda     _joypad1+1
	and     #$02
	beq     L0070
;
; if (settingvalue == 0) settingvalue = 3;
;
	.dbg	line, "SAUCE/menustates/customize.c", 208
	lda     _settingvalue
	bne     L00E0
	lda     #$03
	sta     _settingvalue
;
; else settingvalue--;
;
	.dbg	line, "SAUCE/menustates/customize.c", 209
	jmp     L00E1
L00E0:	dec     _settingvalue
;
; tmp3++;
;
	.dbg	line, "SAUCE/menustates/customize.c", 213
L00E1:	inc     _tmp3
;
; if (tmp3) {
;
	.dbg	line, "SAUCE/menustates/customize.c", 216
L0070:	lda     _tmp3
	jeq     L0073
;
; tmp4 = settingvalue; ++tmp4;
;
	.dbg	line, "SAUCE/menustates/customize.c", 217
	lda     _settingvalue
	sta     _tmp4
	inc     _tmp4
;
; tmp5 = loNTAddrTableCustomizeScreen[tmp4]|(hiNTAddrTableCustomizeScreen[tmp4]<<8);
;
	.dbg	line, "SAUCE/menustates/customize.c", 218
	ldy     _tmp4
	lda     _hiNTAddrTableCustomizeScreen,y
	sta     _tmp5+1
	ldy     _tmp4
	lda     _loNTAddrTableCustomizeScreen,y
	sta     _tmp5
;
; one_vram_buffer('h', tmp5);  
;
	.dbg	line, "SAUCE/menustates/customize.c", 219
	lda     #$4E
	sta     sreg+0
	lda     _tmp5
	ldx     _tmp5+1
	jsr     __one_vram_buffer
;
; one_vram_buffer('i', tmp5 + VRAM_OFF(0, 1));
;
	.dbg	line, "SAUCE/menustates/customize.c", 220
	lda     #$5E
	sta     sreg+0
	lda     _tmp5
	ldx     _tmp5+1
	clc
	adc     #$20
	bcc     L0076
	inx
L0076:	jsr     __one_vram_buffer
;
; one_vram_buffer('f', tmp5 = addloNOC(tmp5, VRAM_OFF(5, 0)));
;
	.dbg	line, "SAUCE/menustates/customize.c", 221
	lda     #$4F
	sta     sreg+0
	lda     _tmp5
	clc
	adc     #$05
	ldx     _tmp5+1
	sta     _tmp5
	stx     _tmp5+1
	jsr     __one_vram_buffer
;
; one_vram_buffer('g', tmp5 + VRAM_OFF(0, 1));
;
	.dbg	line, "SAUCE/menustates/customize.c", 222
	lda     #$5F
	sta     sreg+0
	lda     _tmp5
	ldx     _tmp5+1
	clc
	adc     #$20
	bcc     L0078
	inx
L0078:	jsr     __one_vram_buffer
;
; tmp4 += tmp3;   // Get the old index
;
	.dbg	line, "SAUCE/menustates/customize.c", 224
	lda     _tmp3
	clc
	adc     _tmp4
	sta     _tmp4
;
; tmp5 = loNTAddrTableCustomizeScreen[tmp4]|(hiNTAddrTableCustomizeScreen[tmp4]<<8);
;
	.dbg	line, "SAUCE/menustates/customize.c", 225
	ldy     _tmp4
	lda     _hiNTAddrTableCustomizeScreen,y
	sta     _tmp5+1
	ldy     _tmp4
	lda     _loNTAddrTableCustomizeScreen,y
	sta     _tmp5
;
; one_vram_buffer(' ', tmp5);
;
	.dbg	line, "SAUCE/menustates/customize.c", 226
	lda     #$FF
	sta     sreg+0
	lda     _tmp5
	ldx     _tmp5+1
	jsr     __one_vram_buffer
;
; one_vram_buffer(' ', tmp5 + VRAM_OFF(0, 1));
;
	.dbg	line, "SAUCE/menustates/customize.c", 227
	lda     #$FF
	sta     sreg+0
	lda     _tmp5
	ldx     _tmp5+1
	clc
	adc     #$20
	bcc     L007B
	inx
L007B:	jsr     __one_vram_buffer
;
; one_vram_buffer(' ', tmp5 = addloNOC(tmp5, VRAM_OFF(5, 0)));
;
	.dbg	line, "SAUCE/menustates/customize.c", 228
	lda     #$FF
	sta     sreg+0
	lda     _tmp5
	clc
	adc     #$05
	ldx     _tmp5+1
	sta     _tmp5
	stx     _tmp5+1
	jsr     __one_vram_buffer
;
; one_vram_buffer(' ', tmp5 + VRAM_OFF(0, 1));
;
	.dbg	line, "SAUCE/menustates/customize.c", 229
	lda     #$FF
	sta     sreg+0
	lda     _tmp5
	ldx     _tmp5+1
	clc
	adc     #$20
	bcc     L007D
	inx
L007D:	jsr     __one_vram_buffer
;
; if (joypad1.press_b) {
;
	.dbg	line, "SAUCE/menustates/customize.c", 232
L0073:	lda     _joypad1+1
	and     #$40
	beq     L007E
;
; gameState = STATE_MENU;
;
	.dbg	line, "SAUCE/menustates/customize.c", 233
	lda     #$01
	sta     _gameState
;
; return;
;
	.dbg	line, "SAUCE/menustates/customize.c", 234
	rts
;
; dec_mouse_timer();
;
	.dbg	line, "SAUCE/menustates/customize.c", 236
L007E:	jsr     _dec_mouse_timer
;
; hold_timer++;
;
	.dbg	line, "SAUCE/menustates/customize.c", 237
	inc     _hold_timer
;
; while (1) {
;
	.dbg	line, "SAUCE/menustates/customize.c", 71
	jmp     L0086

	.dbg	line
.endproc

; ---------------------------------------------------------------
; void __near__ color_picker (void)
; ---------------------------------------------------------------

.segment	"XCD_BANK_03"

.proc	_color_picker: near

	.dbg	func, "color_picker", "00", static, "_color_picker"

.segment	"XCD_BANK_03"

;
; tmp3 = 0x80 + BG_Table2[discoframe];
;
	.dbg	line, "SAUCE/menustates/titlescreen.c", 932
	ldy     _discoframe
	lda     _BG_Table2,y
	clc
	adc     #$80
	sta     _tmp3
;
; if (tmp3 < 0x80) tmp3 += 0x80;
;
	.dbg	line, "SAUCE/menustates/titlescreen.c", 934
	cmp     #$80
	bcs     L000F
	lda     #$80
	clc
	adc     _tmp3
;
; else if (tmp3 >= 0xF0) tmp3 -= 0x80;
;
	.dbg	line, "SAUCE/menustates/titlescreen.c", 935
	jmp     L000D
L000F:	lda     _tmp3
	cmp     #$F0
	bcc     L0010
	sec
	sbc     #$80
L000D:	sta     _tmp3
;
; tmp2 = (tmp3 & 0x3F);        
;
	.dbg	line, "SAUCE/menustates/titlescreen.c", 936
L0010:	lda     _tmp3
	and     #$3F
	sta     _tmp2
;
; pal_col(0, tmp2);
;
	.dbg	line, "SAUCE/menustates/titlescreen.c", 937
	sta     _PAL_BUF_RAW
	ldy     _tmp2
	lda     (_PAL_PTR),y
	sta     _PAL_BUF
;
; pal_col(0x11, tmp2);
;
	.dbg	line, "SAUCE/menustates/titlescreen.c", 938
	lda     _tmp2
	sta     _PAL_BUF_RAW+17
	tay
	lda     (_PAL_PTR),y
	sta     _PAL_BUF+17
;
; pal_set_update();
;
	.dbg	line, "SAUCE/menustates/titlescreen.c", 941
	inc     _PAL_UPDATE
;
; tmp3 = 0xC0 + BG_Table2[discoframe];
;
	.dbg	line, "SAUCE/menustates/titlescreen.c", 943
	ldy     _discoframe
	lda     _BG_Table2,y
	clc
	adc     #$C0
	sta     _tmp3
;
; if (tmp3 < 0x80) tmp3 += 0x80;
;
	.dbg	line, "SAUCE/menustates/titlescreen.c", 945
	cmp     #$80
	bcs     L0011
	lda     #$80
	clc
	adc     _tmp3
;
; else if (tmp3 >= 0xF0) tmp3 -= 0x80;
;
	.dbg	line, "SAUCE/menustates/titlescreen.c", 946
	jmp     L000E
L0011:	lda     _tmp3
	cmp     #$F0
	bcc     L0012
	sec
	sbc     #$80
L000E:	sta     _tmp3
;
; tmp2 = (tmp3 & 0x3F);        
;
	.dbg	line, "SAUCE/menustates/titlescreen.c", 947
L0012:	lda     _tmp3
	and     #$3F
	sta     _tmp2
;
; discoframe++;
;
	.dbg	line, "SAUCE/menustates/titlescreen.c", 951
	inc     _discoframe
;
; pal_set_update();
;
	.dbg	line, "SAUCE/menustates/titlescreen.c", 952
	inc     _PAL_UPDATE
;
; if (discoframe == 12) discoframe = 0;
;
	.dbg	line, "SAUCE/menustates/titlescreen.c", 953
	lda     _discoframe
	cmp     #$0C
	bne     L000C
	lda     #$00
	sta     _discoframe
;
; }
;
	.dbg	line, "SAUCE/menustates/titlescreen.c", 954
L000C:	rts

	.dbg	line
.endproc

; ---------------------------------------------------------------
; void __near__ bounds_check (void)
; ---------------------------------------------------------------

.segment	"XCD_BANK_03"

.proc	_bounds_check: near

	.dbg	func, "bounds_check", "00", static, "_bounds_check"

.segment	"XCD_BANK_03"

;
; if (currplayer_y_small >= 160) {
;
	.dbg	line, "SAUCE/menustates/titlescreen.c", 798
	lda     _currplayer_y_small
	cmp     #$A0
	bcc     L0006
;
; currplayer_y_small = 160;
;
	.dbg	line, "SAUCE/menustates/titlescreen.c", 799
	lda     #$A0
;
; } else if (currplayer_y_small < 0x08) currplayer_y_small = 0x08; 
;
	.dbg	line, "SAUCE/menustates/titlescreen.c", 800
	jmp     L0005
L0006:	lda     _currplayer_y_small
	cmp     #$08
	bcs     L0004
	lda     #$08
L0005:	sta     _currplayer_y_small
;
; }
;
	.dbg	line, "SAUCE/menustates/titlescreen.c", 801
L0004:	rts

	.dbg	line
.endproc

; ---------------------------------------------------------------
; void __near__ title_cube_shit (void)
; ---------------------------------------------------------------

.segment	"XCD_BANK_03"

.proc	_title_cube_shit: near

	.dbg	func, "title_cube_shit", "00", static, "_title_cube_shit"

.segment	"XCD_BANK_03"

;
; if (teleport_output <= 0x1A) {
;
	.dbg	line, "SAUCE/menustates/titlescreen.c", 882
	lda     _teleport_output
	cmp     #$1B
	bcs     L0013
;
; currplayer_y_small -= UFO_Title_Jump_Table[teleport_output];  //hop hop
;
	.dbg	line, "SAUCE/menustates/titlescreen.c", 883
	ldy     _teleport_output
	lda     _UFO_Title_Jump_Table,y
	eor     #$FF
	sec
	adc     _currplayer_y_small
	sta     _currplayer_y_small
;
; teleport_output++;
;
	.dbg	line, "SAUCE/menustates/titlescreen.c", 884
	ldx     #$00
	inc     _teleport_output
;
; } else currplayer_y_small += 4;
;
	.dbg	line, "SAUCE/menustates/titlescreen.c", 885
	jmp     L0014
L0013:	lda     #$04
	clc
	adc     _currplayer_y_small
	sta     _currplayer_y_small
;
; if (currplayer_y_small >= (titlemode == 0 ? 160 : 164)) {
;
	.dbg	line, "SAUCE/menustates/titlescreen.c", 887
	ldx     #$00
L0014:	lda     _titlemode
	bne     L0015
	lda     #$A0
	jmp     L0007
L0015:	lda     #$A4
L0007:	cmp     _currplayer_y_small
	beq     L0016
	bcs     L0019
;
; currplayer_y_small = titlemode == 0 ? 160 : 164;
;
	.dbg	line, "SAUCE/menustates/titlescreen.c", 888
L0016:	lda     _titlemode
	bne     L0017
	lda     #$A0
	jmp     L0018
L0017:	lda     #$A4
L0018:	sta     _currplayer_y_small
;
; player_vel_y[0] = 0;
;
	.dbg	line, "SAUCE/menustates/titlescreen.c", 889
	txa
	sta     _player_vel_y
	sta     _player_vel_y+1
;
; if (currplayer_y_small == (titlemode == 0 ? 160 : 164) && !(newrand() & 15)) { 
;
	.dbg	line, "SAUCE/menustates/titlescreen.c", 892
L0019:	lda     _titlemode
	bne     L001A
	lda     #$A0
	jmp     L000C
L001A:	lda     #$A4
L000C:	cmp     _currplayer_y_small
	bne     L001D
	jsr     _newrand
	and     #$0F
	bne     L001D
;
; teleport_output = 0;
;
	.dbg	line, "SAUCE/menustates/titlescreen.c", 893
	sta     _teleport_output
;
; player_vel_y[0] = 1;
;
	.dbg	line, "SAUCE/menustates/titlescreen.c", 894
	sta     _player_vel_y+1
	lda     #$01
	sta     _player_vel_y
;
; } else if (currplayer_y_small < 0x08) { currplayer_y_small = 0x08; teleport_output = 0x0E; }
;
	.dbg	line, "SAUCE/menustates/titlescreen.c", 895
	rts
L001D:	lda     _currplayer_y_small
	cmp     #$08
	bcs     L0011
	lda     #$08
	sta     _currplayer_y_small
	lda     #$0E
	sta     _teleport_output
;
; }     
;
	.dbg	line, "SAUCE/menustates/titlescreen.c", 896
L0011:	rts

	.dbg	line
.endproc

; ---------------------------------------------------------------
; void __near__ title_ship_shit (void)
; ---------------------------------------------------------------

.segment	"XCD_BANK_03"

.proc	_title_ship_shit: near

	.dbg	func, "title_ship_shit", "00", static, "_title_ship_shit"

.segment	"XCD_BANK_03"

;
; if (kandoframecnt & 1) { if (!(newrand() & 7)) invert_gravity(currplayer_gravity); update_currplayer_table_idx(); }
;
	.dbg	line, "SAUCE/menustates/titlescreen.c", 804
	lda     _kandoframecnt
	ldx     #$00
	and     #$01
	beq     L0014
	jsr     _newrand
	ldx     #$00
	and     #$07
	bne     L0003
	lda     _currplayer_gravity
	eor     #$FF
	sta     _currplayer_gravity
L0003:	jsr     _update_currplayer_table_idx
;
; currplayer_y_small -= tmpi8;
;
	.dbg	line, "SAUCE/menustates/titlescreen.c", 806
L0014:	lda     _tmpi8
	eor     #$FF
	sec
	adc     _currplayer_y_small
	sta     _currplayer_y_small
;
; if (currplayer_y_small >= 160) {
;
	.dbg	line, "SAUCE/menustates/titlescreen.c", 808
	cmp     #$A0
	bcc     L0017
;
; currplayer_y_small = 160;
;
	.dbg	line, "SAUCE/menustates/titlescreen.c", 809
	lda     #$A0
	sta     _currplayer_y_small
;
; } else if (currplayer_y_small < 0x08) { 
;
	.dbg	line, "SAUCE/menustates/titlescreen.c", 810
	jmp     L0007
L0017:	lda     _currplayer_y_small
	cmp     #$08
	bcs     L0007
;
; currplayer_y_small = 0x08; 
;
	.dbg	line, "SAUCE/menustates/titlescreen.c", 811
	lda     #$08
	sta     _currplayer_y_small
;
; currplayer_gravity = GRAVITY_DOWN;
;
	.dbg	line, "SAUCE/menustates/titlescreen.c", 812
	ldx     #$00
	txa
	sta     _currplayer_gravity
;
; update_currplayer_table_idx();
;
	.dbg	line, "SAUCE/menustates/titlescreen.c", 813
	jsr     _update_currplayer_table_idx
;
; tmpi8 = 0;
;
	.dbg	line, "SAUCE/menustates/titlescreen.c", 814
	lda     #$00
	sta     _tmpi8
;
; if (currplayer_gravity) {
;
	.dbg	line, "SAUCE/menustates/titlescreen.c", 818
L0007:	lda     _currplayer_gravity
	beq     L0018
;
; if (!(kandoframecnt & 7)) { if (tmpi8 < 3) tmpi8++; }
;
	.dbg	line, "SAUCE/menustates/titlescreen.c", 819
	lda     _kandoframecnt
	and     #$07
	bne     L0010
	lda     _tmpi8
	sec
	sbc     #$03
	bvc     L000C
	eor     #$80
L000C:	bpl     L0010
	inc     _tmpi8
;
; } else {
;
	.dbg	line, "SAUCE/menustates/titlescreen.c", 820
	rts
;
; if (!(kandoframecnt & 7)) { if (tmpi8 > -3) tmpi8--; }
;
	.dbg	line, "SAUCE/menustates/titlescreen.c", 821
L0018:	lda     _kandoframecnt
	and     #$07
	bne     L0010
	lda     _tmpi8
	sec
	sbc     #$FE
	bvs     L0012
	eor     #$80
L0012:	bpl     L0010
	dec     _tmpi8
;
; }     
;
	.dbg	line, "SAUCE/menustates/titlescreen.c", 823
L0010:	rts

	.dbg	line
.endproc

; ---------------------------------------------------------------
; void __near__ title_ball_shit (void)
; ---------------------------------------------------------------

.segment	"XCD_BANK_03"

.proc	_title_ball_shit: near

	.dbg	func, "title_ball_shit", "00", static, "_title_ball_shit"

.segment	"XCD_BANK_03"

;
; bounds_check();
;
	.dbg	line, "SAUCE/menustates/titlescreen.c", 867
	jmp     _bounds_check

	.dbg	line
.endproc

; ---------------------------------------------------------------
; void __near__ title_ufo_shit (void)
; ---------------------------------------------------------------

.segment	"XCD_BANK_03"

.proc	_title_ufo_shit: near

	.dbg	func, "title_ufo_shit", "00", static, "_title_ufo_shit"

.segment	"XCD_BANK_03"

;
; if (teleport_output <= 0x1A) {
;
	.dbg	line, "SAUCE/menustates/titlescreen.c", 871
	ldx     #$00
	lda     _teleport_output
	cmp     #$1B
	bcs     L0009
;
; currplayer_y_small -= UFO_Title_Jump_Table[teleport_output];  //hop hop
;
	.dbg	line, "SAUCE/menustates/titlescreen.c", 872
	ldy     _teleport_output
	lda     _UFO_Title_Jump_Table,y
	eor     #$FF
	sec
	adc     _currplayer_y_small
	sta     _currplayer_y_small
;
; teleport_output++;
;
	.dbg	line, "SAUCE/menustates/titlescreen.c", 873
	lda     _teleport_output
	inc     _teleport_output
;
; } else currplayer_y_small += 4;
;
	.dbg	line, "SAUCE/menustates/titlescreen.c", 874
	jmp     L0004
L0009:	lda     #$04
	clc
	adc     _currplayer_y_small
	sta     _currplayer_y_small
;
; if (!(newrand() & 15)) teleport_output = 0;
;
	.dbg	line, "SAUCE/menustates/titlescreen.c", 875
L0004:	jsr     _newrand
	and     #$0F
	bne     L000A
	sta     _teleport_output
;
; if (currplayer_y_small >= 160) {
;
	.dbg	line, "SAUCE/menustates/titlescreen.c", 877
L000A:	lda     _currplayer_y_small
	cmp     #$A0
	bcc     L000B
;
; currplayer_y_small = 160;
;
	.dbg	line, "SAUCE/menustates/titlescreen.c", 878
	lda     #$A0
	sta     _currplayer_y_small
;
; } else if (currplayer_y_small < 0x08) { currplayer_y_small = 0x08; teleport_output = 0x0E; }
;
	.dbg	line, "SAUCE/menustates/titlescreen.c", 879
	rts
L000B:	lda     _currplayer_y_small
	cmp     #$08
	bcs     L0008
	lda     #$08
	sta     _currplayer_y_small
	lda     #$0E
	sta     _teleport_output
;
; } 
;
	.dbg	line, "SAUCE/menustates/titlescreen.c", 880
L0008:	rts

	.dbg	line
.endproc

; ---------------------------------------------------------------
; void __near__ title_robot_shit (void)
; ---------------------------------------------------------------

.segment	"XCD_BANK_03"

.proc	_title_robot_shit: near

	.dbg	func, "title_robot_shit", "00", static, "_title_robot_shit"

.segment	"XCD_BANK_03"

;
; if (kandoframecnt & 1 && !currplayer_gravity) {
;
	.dbg	line, "SAUCE/menustates/titlescreen.c", 918
	lda     _kandoframecnt
	ldx     #$00
	and     #$01
	beq     L0006
	lda     _currplayer_gravity
	bne     L0006
	lda     #$01
;
; if (!(newrand() & 15)) { tmpi8 = newrand() & 15; currplayer_gravity = GRAVITY_UP; update_currplayer_table_idx(); teleport_output = 0; }
;
	.dbg	line, "SAUCE/menustates/titlescreen.c", 919
	jsr     _newrand
	ldx     #$00
	and     #$0F
	bne     L0006
	jsr     _newrand
	and     #$0F
	cmp     #$80
	sta     _tmpi8
	ldx     #$00
	lda     #$FF
	sta     _currplayer_gravity
	jsr     _update_currplayer_table_idx
	lda     #$00
	sta     _teleport_output
;
; if (currplayer_gravity) {
;
	.dbg	line, "SAUCE/menustates/titlescreen.c", 922
L0006:	lda     _currplayer_gravity
	beq     L0016
;
; if (teleport_output < 0x0C) { currplayer_y_small -= UFO_Title_Jump_Table[teleport_output]; teleport_output++; }
;
	.dbg	line, "SAUCE/menustates/titlescreen.c", 923
	lda     _teleport_output
	cmp     #$0C
	bcs     L001A
	ldy     _teleport_output
	lda     _UFO_Title_Jump_Table,y
	eor     #$FF
	sec
	adc     _currplayer_y_small
	sta     _currplayer_y_small
	inc     _teleport_output
;
; if (teleport_output == 0x0C && tmpi8 > 0) { currplayer_y_small -= UFO_Title_Jump_Table[teleport_output]; tmpi8--; }
;
	.dbg	line, "SAUCE/menustates/titlescreen.c", 924
L001A:	lda     _teleport_output
	cmp     #$0C
	bne     L000B
	lda     _tmpi8
	sec
	sbc     #$01
	bvs     L000E
	eor     #$80
L000E:	bpl     L000B
	ldy     _teleport_output
	lda     _UFO_Title_Jump_Table,y
	eor     #$FF
	sec
	adc     _currplayer_y_small
	sta     _currplayer_y_small
	dec     _tmpi8
;
; else { currplayer_y_small -= UFO_Title_Jump_Table[teleport_output]; teleport_output++; if (teleport_output > 0x1A) teleport_output = 0x1A; }
;
	.dbg	line, "SAUCE/menustates/titlescreen.c", 925
	jmp     L001D
L000B:	ldy     _teleport_output
	lda     _UFO_Title_Jump_Table,y
	eor     #$FF
	sec
	adc     _currplayer_y_small
	sta     _currplayer_y_small
	inc     _teleport_output
	lda     _teleport_output
	cmp     #$1B
	bcc     L001D
	lda     #$1A
	sta     _teleport_output
;
; if (currplayer_y_small >= 160) { currplayer_gravity = GRAVITY_DOWN; tmpi8 = 0; teleport_output = 0; currplayer_y_small = 160; update_currplayer_table_idx(); }
;
	.dbg	line, "SAUCE/menustates/titlescreen.c", 926
L001D:	lda     _currplayer_y_small
	cmp     #$A0
	bcc     L0016
	lda     #$00
	sta     _currplayer_gravity
	sta     _tmpi8
	sta     _teleport_output
	tax
	lda     #$A0
	sta     _currplayer_y_small
	jmp     _update_currplayer_table_idx
;
; }
;
	.dbg	line, "SAUCE/menustates/titlescreen.c", 929
L0016:	rts

	.dbg	line
.endproc

; ---------------------------------------------------------------
; void __near__ title_wave_shit (void)
; ---------------------------------------------------------------

.segment	"XCD_BANK_03"

.proc	_title_wave_shit: near

	.dbg	func, "title_wave_shit", "00", static, "_title_wave_shit"

.segment	"XCD_BANK_03"

;
; tmp2 = newrand() & 63;
;
	.dbg	line, "SAUCE/menustates/titlescreen.c", 899
	jsr     _newrand
	and     #$3F
	sta     _tmp2
;
; if (kandoframecnt & 1) { if (tmp2 >= 60) invert_gravity(currplayer_gravity); update_currplayer_table_idx(); }
;
	.dbg	line, "SAUCE/menustates/titlescreen.c", 900
	lda     _kandoframecnt
	and     #$01
	beq     L0002
	lda     _tmp2
	cmp     #$3C
	lda     #$00
	tax
	rol     a
	beq     L0003
	lda     _currplayer_gravity
	eor     #$FF
	sta     _currplayer_gravity
L0003:	jsr     _update_currplayer_table_idx
;
; if (currplayer_gravity) currplayer_y_small -= speed;
;
	.dbg	line, "SAUCE/menustates/titlescreen.c", 902
L0002:	lda     _currplayer_gravity
	beq     L0004
	lda     _speed
	eor     #$FF
	sec
;
; else currplayer_y_small += speed;
;
	.dbg	line, "SAUCE/menustates/titlescreen.c", 904
	jmp     L0007
L0004:	lda     _speed
	clc
L0007:	adc     _currplayer_y_small
	sta     _currplayer_y_small
;
; bounds_check();
;
	.dbg	line, "SAUCE/menustates/titlescreen.c", 905
	jmp     _bounds_check

	.dbg	line
.endproc

; ---------------------------------------------------------------
; void __near__ title_mini_wave_shit (void)
; ---------------------------------------------------------------

.segment	"XCD_BANK_03"

.proc	_title_mini_wave_shit: near

	.dbg	func, "title_mini_wave_shit", "00", static, "_title_mini_wave_shit"

.segment	"XCD_BANK_03"

;
; tmp2 = newrand() & 63;
;
	.dbg	line, "SAUCE/menustates/titlescreen.c", 908
	jsr     _newrand
	and     #$3F
	sta     _tmp2
;
; if (kandoframecnt & 1) { if (tmp2 >= 60) invert_gravity(currplayer_gravity); update_currplayer_table_idx(); }
;
	.dbg	line, "SAUCE/menustates/titlescreen.c", 909
	lda     _kandoframecnt
	and     #$01
	beq     L0002
	lda     _tmp2
	cmp     #$3C
	lda     #$00
	tax
	rol     a
	beq     L0003
	lda     _currplayer_gravity
	eor     #$FF
	sta     _currplayer_gravity
L0003:	jsr     _update_currplayer_table_idx
;
; if (currplayer_gravity) currplayer_y_small -= (speed << 1);
;
	.dbg	line, "SAUCE/menustates/titlescreen.c", 911
L0002:	lda     _currplayer_gravity
	beq     L0004
	lda     _speed
	asl     a
	eor     #$FF
	sec
;
; else currplayer_y_small += (speed << 1);
;
	.dbg	line, "SAUCE/menustates/titlescreen.c", 913
	jmp     L0007
L0004:	lda     _speed
	asl     a
	clc
L0007:	adc     _currplayer_y_small
	sta     _currplayer_y_small
;
; bounds_check();
;
	.dbg	line, "SAUCE/menustates/titlescreen.c", 914
	jmp     _bounds_check

	.dbg	line
.endproc

; ---------------------------------------------------------------
; void __near__ title_swing_shit (void)
; ---------------------------------------------------------------

.segment	"XCD_BANK_03"

.proc	_title_swing_shit: near

	.dbg	func, "title_swing_shit", "00", static, "_title_swing_shit"

.segment	"XCD_BANK_03"

;
; if (kandoframecnt & 1) { 
;
	.dbg	line, "SAUCE/menustates/titlescreen.c", 826
	lda     _kandoframecnt
	ldx     #$00
	and     #$01
	beq     L0012
;
; if (!(newrand() & 15)) {
;
	.dbg	line, "SAUCE/menustates/titlescreen.c", 827
	jsr     _newrand
	and     #$0F
	bne     L0012
;
; invert_gravity(currplayer_gravity);
;
	.dbg	line, "SAUCE/menustates/titlescreen.c", 828
	tax
	lda     _currplayer_gravity
	eor     #$FF
	sta     _currplayer_gravity
;
; update_currplayer_table_idx();
;
	.dbg	line, "SAUCE/menustates/titlescreen.c", 829
	jsr     _update_currplayer_table_idx
;
; if ((kandoframecnt & 3) == 0)
;
	.dbg	line, "SAUCE/menustates/titlescreen.c", 833
L0012:	lda     _kandoframecnt
	and     #$03
	bne     L0016
;
; if (currplayer_gravity) {
;
	.dbg	line, "SAUCE/menustates/titlescreen.c", 834
	lda     _currplayer_gravity
	beq     L0014
;
; currplayer_vel_y_small -= 1;
;
	.dbg	line, "SAUCE/menustates/titlescreen.c", 835
	dec     _currplayer_vel_y_small
;
; if (currplayer_vel_y_small <= -3) currplayer_vel_y_small = -3;
;
	.dbg	line, "SAUCE/menustates/titlescreen.c", 836
	lda     _currplayer_vel_y_small
	sec
	sbc     #$FE
	bvc     L000A
	eor     #$80
L000A:	bpl     L0016
	lda     #$FD
;
; } else {
;
	.dbg	line, "SAUCE/menustates/titlescreen.c", 837
	jmp     L0011
;
; currplayer_vel_y_small += 1;
;
	.dbg	line, "SAUCE/menustates/titlescreen.c", 838
L0014:	inc     _currplayer_vel_y_small
;
; if (currplayer_vel_y_small >= 3) currplayer_vel_y_small = 3;
;
	.dbg	line, "SAUCE/menustates/titlescreen.c", 839
	lda     _currplayer_vel_y_small
	sec
	sbc     #$03
	bvs     L000F
	eor     #$80
L000F:	bpl     L0016
	lda     #$03
L0011:	sta     _currplayer_vel_y_small
;
; currplayer_y_small += currplayer_vel_y_small;
;
	.dbg	line, "SAUCE/menustates/titlescreen.c", 843
L0016:	lda     _currplayer_vel_y_small
	clc
	adc     _currplayer_y_small
	sta     _currplayer_y_small
;
; bounds_check();
;
	.dbg	line, "SAUCE/menustates/titlescreen.c", 845
	jmp     _bounds_check

	.dbg	line
.endproc

; ---------------------------------------------------------------
; void __near__ roll_new_mode (void)
; ---------------------------------------------------------------

.segment	"XCD_BANK_03"

.proc	_roll_new_mode: near

	.dbg	func, "roll_new_mode", "00", static, "_roll_new_mode"

.segment	"XCD_BANK_03"

;
; speed = (newrand() & 3); 
;
	.dbg	line, "SAUCE/menustates/titlescreen.c", 748
	jsr     _newrand
	and     #$03
	sta     _speed
;
; if (speed == 0) speed = 1; 
;
	.dbg	line, "SAUCE/menustates/titlescreen.c", 749
	ldx     #$00
	lda     _speed
	bne     L001B
	lda     #$01
	sta     _speed
;
; currplayer_gravity = GRAVITY_DOWN;
;
	.dbg	line, "SAUCE/menustates/titlescreen.c", 750
L001B:	txa
	sta     _currplayer_gravity
;
; update_currplayer_table_idx();
;
	.dbg	line, "SAUCE/menustates/titlescreen.c", 751
	jsr     _update_currplayer_table_idx
;
; currplayer_x_small = 0x08; 
;
	.dbg	line, "SAUCE/menustates/titlescreen.c", 752
	lda     #$08
	sta     _currplayer_x_small
;
; currplayer_y_small = 0xA0;
;
	.dbg	line, "SAUCE/menustates/titlescreen.c", 753
	lda     #$A0
	sta     _currplayer_y_small
;
; player_vel_y[0] = 0;
;
	.dbg	line, "SAUCE/menustates/titlescreen.c", 754
	ldx     #$00
	txa
	sta     _player_vel_y
	sta     _player_vel_y+1
;
; tmpi8 = 0;
;
	.dbg	line, "SAUCE/menustates/titlescreen.c", 755
	sta     _tmpi8
;
; teleport_output = 0xFF;
;
	.dbg	line, "SAUCE/menustates/titlescreen.c", 756
	lda     #$FF
	sta     _teleport_output
;
; tmp7 = titlemode;
;
	.dbg	line, "SAUCE/menustates/titlescreen.c", 757
	lda     _titlemode
	sta     _tmp7
;
; titlemode = newrand() & 15;
;
	.dbg	line, "SAUCE/menustates/titlescreen.c", 759
L0003:	jsr     _newrand
	and     #$0F
	sta     _titlemode
;
; } while (titlemode > TITLEMODE_MINISHIP || titlemode == tmp7); // 1st: old sanity check? we have more
;
	.dbg	line, "SAUCE/menustates/titlescreen.c", 760
	cmp     #$0A
	ldx     #$00
	bcs     L001C
	lda     _titlemode
	cmp     _tmp7
	bne     L001D
L001C:	lda     #$01
	jmp     L0003
;
; if (titlemode >= 8) {
;
	.dbg	line, "SAUCE/menustates/titlescreen.c", 761
L001D:	lda     _titlemode
	cmp     #$08
	txa
	rol     a
	beq     L0008
;
; titlemode = (newrand() & 7) + 8;
;
	.dbg	line, "SAUCE/menustates/titlescreen.c", 762
	jsr     _newrand
	and     #$07
	clc
	adc     #$08
	sta     _titlemode
;
; if (retro_mode && (titlemode == TITLEMODE_CUBE || titlemode == TITLEMODE_MINICUBE))
;
	.dbg	line, "SAUCE/menustates/titlescreen.c", 764
L0008:	lda     _retro_mode
	beq     L0024
	lda     _titlemode
	beq     L0023
	cmp     #$02
	bne     L0024
;
; titlemode = tmp7;
;
	.dbg	line, "SAUCE/menustates/titlescreen.c", 765
L0023:	lda     _tmp7
	sta     _titlemode
;
; titlemode == TITLEMODE_UFO  || titlemode == TITLEMODE_SHIP  ||   titlemode == TITLEMODE_WAVE  || titlemode == TITLEMODE_MINISHIP ||   titlemode == TITLEMODE_MINIWAVE || titlemode == TITLEMODE_MINIUFO   ) {
;
	.dbg	line, "SAUCE/menustates/titlescreen.c", 771
L0024:	lda     _titlemode
	cmp     #$01
	beq     L0027
	cmp     #$03
	beq     L0027
	cmp     #$06
	beq     L0027
	cmp     #$09
	beq     L0027
	cmp     #$0B
	beq     L0027
	cmp     #$0C
	beq     L0027
	jmp     L002F
;
; tmp1 = newrand() & 0xFF;
;
	.dbg	line, "SAUCE/menustates/titlescreen.c", 773
L0013:	jsr     _newrand
	sta     _tmp1
;
; while (tmp1 > 0xA0 && tmp1 <= 0x20) {
;
	.dbg	line, "SAUCE/menustates/titlescreen.c", 772
L0027:	lda     _tmp1
	cmp     #$A1
	bcc     L002B
	ldx     #$00
	lda     _tmp1
	cmp     #$21
	bcs     L002B
	lda     #$01
	jmp     L0013
;
; currplayer_y_small = tmp1;
;
	.dbg	line, "SAUCE/menustates/titlescreen.c", 775
L002B:	lda     _tmp1
	sta     _currplayer_y_small
;
; ballframe = 0;
;
	.dbg	line, "SAUCE/menustates/titlescreen.c", 778
L002F:	ldx     #$00
	txa
	sta     _ballframe
;
; oam_clear();
;
	.dbg	line, "SAUCE/menustates/titlescreen.c", 779
	jsr     _oam_clear
;
; set_title_icon();
;
	.dbg	line, "SAUCE/menustates/titlescreen.c", 794
	jmp     _set_title_icon

	.dbg	line
.endproc

; ---------------------------------------------------------------
; void __near__ set_title_icon (void)
; ---------------------------------------------------------------

.segment	"XCD_BANK_03"

.proc	_set_title_icon: near

	.dbg	func, "set_title_icon", "00", static, "_set_title_icon"

.segment	"XCD_BANK_03"

;
; if (titlemode < TITLEMODE_ROBOT) { // cube, ufo, mini cube, ship
;
	.dbg	line, "SAUCE/menustates/titlescreen.c", 730
	ldx     #$00
	lda     _titlemode
	cmp     #$04
	bcs     L001A
;
; tmp7 = newrand() & 31;
;
	.dbg	line, "SAUCE/menustates/titlescreen.c", 732
L0003:	jsr     _newrand
	and     #$1F
	sta     _tmp7
;
; } while (tmp7 > 26);
;
	.dbg	line, "SAUCE/menustates/titlescreen.c", 733
	cmp     #$1B
	lda     #$00
	tax
	rol     a
	bne     L0003
;
; titleicon = tmp7;
;
	.dbg	line, "SAUCE/menustates/titlescreen.c", 734
	lda     _tmp7
	sta     _titleicon
;
; tmp7 = 40 + (tmp7 * 2);
;
	.dbg	line, "SAUCE/menustates/titlescreen.c", 735
	asl     a
	clc
	adc     #$28
	sta     _tmp7
;
; mmc3_set_2kb_chr_bank_0(retro_mode ? 18 : tmp7);
;
	.dbg	line, "SAUCE/menustates/titlescreen.c", 736
	lda     _retro_mode
	beq     L0018
	lda     #$12
	jmp     _mmc3_set_2kb_chr_bank_0
L0018:	lda     _tmp7
;
; } else if (
;
	.dbg	line, "SAUCE/menustates/titlescreen.c", 737
	jmp     _mmc3_set_2kb_chr_bank_0
;
; (titlemode <= TITLEMODE_BALL && titlemode != TITLEMODE_WAVE) ||    titlemode == TITLEMODE_MINIROBOT || titlemode == TITLEMODE_MINIBALL   ){
;
	.dbg	line, "SAUCE/menustates/titlescreen.c", 740
L001A:	lda     _titlemode
	cmp     #$08
	bcs     L001D
	cmp     #$06
	bne     L0020
L001D:	lda     _titlemode
	cmp     #$0D
	beq     L0020
	cmp     #$0A
	bne     L0023
;
; mmc3_set_2kb_chr_bank_0(retro_mode == 0 ? 20 : 22); 
;
	.dbg	line, "SAUCE/menustates/titlescreen.c", 741
L0020:	lda     _retro_mode
	bne     L0021
	lda     #$14
	jmp     _mmc3_set_2kb_chr_bank_0
L0021:	lda     #$16
;
; } else if (titlemode <= TITLEMODE_MINISWING) {
;
	.dbg	line, "SAUCE/menustates/titlescreen.c", 742
	jmp     _mmc3_set_2kb_chr_bank_0
L0023:	lda     _titlemode
	cmp     #$10
	bcs     L0013
;
; mmc3_set_2kb_chr_bank_0(retro_mode == 0 ? 24 : 26);  
;
	.dbg	line, "SAUCE/menustates/titlescreen.c", 743
	lda     _retro_mode
	bne     L0024
	lda     #$18
	jmp     _mmc3_set_2kb_chr_bank_0
L0024:	lda     #$1A
	jmp     _mmc3_set_2kb_chr_bank_0
;
; }   
;
	.dbg	line, "SAUCE/menustates/titlescreen.c", 745
L0013:	rts

	.dbg	line
.endproc

; ---------------------------------------------------------------
; void __near__ state_menu (void)
; ---------------------------------------------------------------

.segment	"XCD_BANK_03"

.proc	_state_menu: near

	.dbg	func, "state_menu", "00", static, "_state_menu"

.segment	"XCD_BANK_03"

;
; oam_clear();
;
	.dbg	line, "SAUCE/menustates/titlescreen.c", 94
	jsr     _oam_clear
;
; mmc3_set_8kb_chr(MENUBANK);
;
	.dbg	line, "SAUCE/menustates/titlescreen.c", 96
	lda     #$62
	sta     _xargs
	jsr     __mmc3_set_8kb_chr
;
; mmc3_set_2kb_chr_bank_1(MOUSEBANK);
;
	.dbg	line, "SAUCE/menustates/titlescreen.c", 97
	lda     #$60
	jsr     _mmc3_set_2kb_chr_bank_1
;
; if (LEVELCOMPLETE[0] && 
;
	.dbg	line, "SAUCE/menustates/titlescreen.c", 101
	lda     _LEVELCOMPLETE
	beq     L0104
;
; LEVELCOMPLETE[1] && 
;
	.dbg	line, "SAUCE/menustates/titlescreen.c", 102
	lda     _LEVELCOMPLETE+1
	beq     L0104
;
; LEVELCOMPLETE[2] && 
;
	.dbg	line, "SAUCE/menustates/titlescreen.c", 103
	lda     _LEVELCOMPLETE+2
	beq     L0104
;
; LEVELCOMPLETE[3] && 
;
	.dbg	line, "SAUCE/menustates/titlescreen.c", 104
	lda     _LEVELCOMPLETE+3
	beq     L0104
;
; LEVELCOMPLETE[4] && 
;
	.dbg	line, "SAUCE/menustates/titlescreen.c", 105
	lda     _LEVELCOMPLETE+4
	beq     L0104
;
; LEVELCOMPLETE[5] && 
;
	.dbg	line, "SAUCE/menustates/titlescreen.c", 106
	lda     _LEVELCOMPLETE+5
	beq     L0104
;
; LEVELCOMPLETE[6] && 
;
	.dbg	line, "SAUCE/menustates/titlescreen.c", 107
	lda     _LEVELCOMPLETE+6
	beq     L0104
;
; LEVELCOMPLETE[7] && 
;
	.dbg	line, "SAUCE/menustates/titlescreen.c", 108
	lda     _LEVELCOMPLETE+7
	beq     L0104
;
; LEVELCOMPLETE[8] && 
;
	.dbg	line, "SAUCE/menustates/titlescreen.c", 109
	lda     _LEVELCOMPLETE+8
	beq     L0104
;
; LEVELCOMPLETE[9] && 
;
	.dbg	line, "SAUCE/menustates/titlescreen.c", 110
	lda     _LEVELCOMPLETE+9
	beq     L0104
;
; LEVELCOMPLETE[0x0A] && 
;
	.dbg	line, "SAUCE/menustates/titlescreen.c", 111
	lda     _LEVELCOMPLETE+10
	beq     L0104
;
; LEVELCOMPLETE[0x0B] && 
;
	.dbg	line, "SAUCE/menustates/titlescreen.c", 112
	lda     _LEVELCOMPLETE+11
	beq     L0104
;
; LEVELCOMPLETE[0x0C]) all_levels_complete = 0xFC;
;
	.dbg	line, "SAUCE/menustates/titlescreen.c", 113
	lda     _LEVELCOMPLETE+12
	beq     L0104
	lda     #$FC
	sta     _all_levels_complete
;
; if (all_levels_complete == 0xFC) pal_bg(splashMenu2);
;
	.dbg	line, "SAUCE/menustates/titlescreen.c", 119
L0104:	lda     _all_levels_complete
	cmp     #$FC
	bne     L0006
	lda     #<(_splashMenu2)
	ldx     #>(_splashMenu2)
;
; else pal_bg (splashMenu);
;
	.dbg	line, "SAUCE/menustates/titlescreen.c", 120
	jmp     L00F3
L0006:	lda     #<(_splashMenu)
	ldx     #>(_splashMenu)
L00F3:	jsr     _pal_bg
;
; vram_adr(NAMETABLE_A);
;
	.dbg	line, "SAUCE/menustates/titlescreen.c", 123
	lda     #$20
	sta     $2006
	lda     #$00
	sta     $2006
;
; vram_unrle(game_start_screen);
;
	.dbg	line, "SAUCE/menustates/titlescreen.c", 124
	lda     #<(_game_start_screen)
	ldx     #>(_game_start_screen)
	jsr     _vram_unrle
;
; vram_adr(NAMETABLE_B);
;
	.dbg	line, "SAUCE/menustates/titlescreen.c", 125
	lda     #$24
	sta     $2006
	lda     #$00
	sta     $2006
;
; vram_unrle(game_start_screen);
;
	.dbg	line, "SAUCE/menustates/titlescreen.c", 126
	lda     #<(_game_start_screen)
	ldx     #>(_game_start_screen)
	jsr     _vram_unrle
;
; if (fullRegion == 1) multi_vram_buffer_horz(palsystem, sizeof(palsystem)-1, NTADR_A(9,7));
;
	.dbg	line, "SAUCE/menustates/titlescreen.c", 129
	lda     _fullRegion
	cmp     #$01
	bne     L0105
	lda     #<(_palsystem)
	ldx     #>(_palsystem)
	stx     sreg+1
	sta     sreg
	lda     #$0F
	sta     _xargs
	ldx     #$60
	lda     #$E9
	jsr     __multi_vram_buffer
;
; tmp4 = menuselection; ++tmp4;
;
	.dbg	line, "SAUCE/menustates/titlescreen.c", 135
L0105:	lda     _menuselection
	sta     _tmp4
	inc     _tmp4
;
; tmp5 = loNTAddrTableTitleScreen[tmp4]|(hiNTAddrTableTitleScreen[tmp4]<<8);
;
	.dbg	line, "SAUCE/menustates/titlescreen.c", 136
	ldy     _tmp4
	lda     _hiNTAddrTableTitleScreen,y
	sta     _tmp5+1
	ldy     _tmp4
	lda     _loNTAddrTableTitleScreen,y
	sta     _tmp5
;
; if (menuselection != TITLE_BTN_FUNSETTINGS) {
;
	.dbg	line, "SAUCE/menustates/titlescreen.c", 143
	lda     _menuselection
	cmp     #$05
	beq     L0106
;
; one_vram_buffer('a', tmp5);
;
	.dbg	line, "SAUCE/menustates/titlescreen.c", 144
	lda     #$5E
	sta     sreg+0
	lda     _tmp5
	ldx     _tmp5+1
	jsr     __one_vram_buffer
;
; one_vram_buffer('b', addloNOC(tmp5, 1));
;
	.dbg	line, "SAUCE/menustates/titlescreen.c", 145
	lda     #$5F
	sta     sreg+0
	lda     _tmp5
	clc
	adc     #$01
	ldx     _tmp5+1
;
; } else {
;
	.dbg	line, "SAUCE/menustates/titlescreen.c", 146
	jmp     L00F4
;
; one_vram_buffer(0x6F, NTADR_A(26, 2));
;
	.dbg	line, "SAUCE/menustates/titlescreen.c", 147
L0106:	lda     #$6F
	sta     sreg+0
	ldx     #$20
	lda     #$5A
	jsr     __one_vram_buffer
;
; one_vram_buffer(0x7F, NTADR_A(26, 3));
;
	.dbg	line, "SAUCE/menustates/titlescreen.c", 148
	lda     #$7F
	sta     sreg+0
	ldx     #$20
	lda     #$7A
L00F4:	jsr     __one_vram_buffer
;
; if (all_levels_complete != 0xFC) {
;
	.dbg	line, "SAUCE/menustates/titlescreen.c", 154
	lda     _all_levels_complete
	cmp     #$FC
	beq     L0107
;
; one_vram_buffer(0x19, NTADR_A(27,2));
;
	.dbg	line, "SAUCE/menustates/titlescreen.c", 155
	lda     #$19
	sta     sreg+0
	ldx     #$20
	lda     #$5B
	jsr     __one_vram_buffer
;
; one_vram_buffer(0x1A, NTADR_A(28,2));
;
	.dbg	line, "SAUCE/menustates/titlescreen.c", 156
	lda     #$1A
	sta     sreg+0
	ldx     #$20
	lda     #$5C
	jsr     __one_vram_buffer
;
; one_vram_buffer(0x2D, NTADR_A(27,3));
;
	.dbg	line, "SAUCE/menustates/titlescreen.c", 157
	lda     #$2D
	sta     sreg+0
	ldx     #$20
	lda     #$7B
	jsr     __one_vram_buffer
;
; one_vram_buffer(0x4D, NTADR_A(28,3));
;
	.dbg	line, "SAUCE/menustates/titlescreen.c", 158
	lda     #$4D
;
; } else {
;
	.dbg	line, "SAUCE/menustates/titlescreen.c", 159
	jmp     L017D
;
; one_vram_buffer(0x1B, NTADR_A(27,2));
;
	.dbg	line, "SAUCE/menustates/titlescreen.c", 160
L0107:	lda     #$1B
	sta     sreg+0
	ldx     #$20
	lda     #$5B
	jsr     __one_vram_buffer
;
; one_vram_buffer(0x1C, NTADR_A(28,2));
;
	.dbg	line, "SAUCE/menustates/titlescreen.c", 161
	lda     #$1C
	sta     sreg+0
	ldx     #$20
	lda     #$5C
	jsr     __one_vram_buffer
;
; one_vram_buffer(0x1D, NTADR_A(27,3));
;
	.dbg	line, "SAUCE/menustates/titlescreen.c", 162
	lda     #$1D
	sta     sreg+0
	ldx     #$20
	lda     #$7B
	jsr     __one_vram_buffer
;
; one_vram_buffer(0x1E, NTADR_A(28,3));
;
	.dbg	line, "SAUCE/menustates/titlescreen.c", 163
	lda     #$1E
L017D:	sta     sreg+0
	ldx     #$20
	lda     #$7C
	jsr     __one_vram_buffer
;
; poweroffcheck = 0xff;
;
	.dbg	line, "SAUCE/menustates/titlescreen.c", 167
	ldx     #$00
	lda     #$FF
	sta     _SRAM_VALIDATE+3
;
; discoframe = newrand() & 15;
;
	.dbg	line, "SAUCE/menustates/titlescreen.c", 170
L0010:	jsr     _newrand
	and     #$0F
	sta     _discoframe
;
; } while (discoframe > 11);
;
	.dbg	line, "SAUCE/menustates/titlescreen.c", 171
	cmp     #$0C
	lda     #$00
	tax
	rol     a
	bne     L0010
;
; if (joypad1.select) nestopia = 1;
;
	.dbg	line, "SAUCE/menustates/titlescreen.c", 173
	lda     _joypad1
	and     #$20
	beq     L0109
	lda     #$01
	sta     _nestopia
;
; gamemode = 0;
;
	.dbg	line, "SAUCE/menustates/titlescreen.c", 176
	txa
L0109:	sta     _gamemode
;
; newrand();
;
	.dbg	line, "SAUCE/menustates/titlescreen.c", 179
	jsr     _newrand
;
; set_title_icon();
;
	.dbg	line, "SAUCE/menustates/titlescreen.c", 186
	jsr     _set_title_icon
;
; set_title_icon();
;
	.dbg	line, "SAUCE/menustates/titlescreen.c", 187
	jsr     _set_title_icon
;
; if (menuMusicCurrentlyPlaying == 0 && !nestopia) music_play(xbgmlookuptable[menu_music]);
;
	.dbg	line, "SAUCE/menustates/titlescreen.c", 194
	lda     _menuMusicCurrentlyPlaying
	bne     L010C
	lda     _nestopia
	bne     L010C
	ldy     _menu_music
	lda     _xbgmlookuptable,y
	jsr     _music_play
;
; menuMusicCurrentlyPlaying = 1;
;
	.dbg	line, "SAUCE/menustates/titlescreen.c", 200
L010C:	lda     #$01
	sta     _menuMusicCurrentlyPlaying
;
; settingvalue = 0;
;
	.dbg	line, "SAUCE/menustates/titlescreen.c", 202
	lda     #$00
	sta     _settingvalue
;
; practice_point_count = 0;
;
	.dbg	line, "SAUCE/menustates/titlescreen.c", 203
	sta     _practice_point_count
;
; tmp8 = 0;
;
	.dbg	line, "SAUCE/menustates/titlescreen.c", 205
	sta     _tmp8
;
; kandoframecnt = 0;
;
	.dbg	line, "SAUCE/menustates/titlescreen.c", 207
	sta     _kandoframecnt
;
; teleport_output = 0Xff;
;
	.dbg	line, "SAUCE/menustates/titlescreen.c", 208
	lda     #$FF
	sta     _teleport_output
;
; currplayer_y_small = 160;
;
	.dbg	line, "SAUCE/menustates/titlescreen.c", 209
	lda     #$A0
	sta     _currplayer_y_small
;
; currplayer_x_small = 0;
;
	.dbg	line, "SAUCE/menustates/titlescreen.c", 210
	lda     #$00
	sta     _currplayer_x_small
;
; titlecolor3 = color3;
;
	.dbg	line, "SAUCE/menustates/titlescreen.c", 211
	lda     _icon_colors+2
	sta     _titlecolor3
;
; titlecolor2 = color2;
;
	.dbg	line, "SAUCE/menustates/titlescreen.c", 212
	lda     _icon_colors+1
	sta     _titlecolor2
;
; titlecolor1 = color1;
;
	.dbg	line, "SAUCE/menustates/titlescreen.c", 213
	lda     _icon_colors
	sta     _titlecolor1
;
; speed = 1;
;
	.dbg	line, "SAUCE/menustates/titlescreen.c", 215
	lda     #$01
	sta     _speed
;
; joypad1.press = 0;
;
	.dbg	line, "SAUCE/menustates/titlescreen.c", 216
	lda     #$00
	sta     _joypad1+1
;
; write_irq_table(menu_irq_table);
;
	.dbg	line, "SAUCE/menustates/titlescreen.c", 218
	lda     #<(_menu_irq_table)
	ldx     #>(_menu_irq_table)
	jsr     _write_irq_table
;
; set_irq_ptr(irqTable);
;
	.dbg	line, "SAUCE/menustates/titlescreen.c", 220
	lda     #<(_irqTable)
	ldx     #>(_irqTable)
	jsr     _set_irq_ptr
;
; set_scroll_x(0);
;
	.dbg	line, "SAUCE/menustates/titlescreen.c", 222
	ldx     #$00
	txa
	jsr     _set_scroll_x
;
; set_scroll_y(0);
;
	.dbg	line, "SAUCE/menustates/titlescreen.c", 223
	ldx     #$00
	txa
	jsr     _set_scroll_y
;
; ppu_on_all();
;
	.dbg	line, "SAUCE/menustates/titlescreen.c", 224
	jsr     _ppu_on_all
;
; pal_fade_in();
;
	.dbg	line, "SAUCE/menustates/titlescreen.c", 225
	ldx     #$04
	lda     #$00
	jsr     __pal_fade_to
;
; roll_new_mode();
;
	.dbg	line, "SAUCE/menustates/titlescreen.c", 227
	jsr     _roll_new_mode
;
; pal_col(0x11,titlecolor3);
;
	.dbg	line, "SAUCE/menustates/titlescreen.c", 287
L010D:	lda     _titlecolor3
	sta     _PAL_BUF_RAW+17
	tay
	lda     (_PAL_PTR),y
	sta     _PAL_BUF+17
;
; pal_col(0x12,titlecolor1);
;
	.dbg	line, "SAUCE/menustates/titlescreen.c", 288
	lda     _titlecolor1
	sta     _PAL_BUF_RAW+18
	tay
	lda     (_PAL_PTR),y
	sta     _PAL_BUF+18
;
; pal_col(0x13,titlecolor2);
;
	.dbg	line, "SAUCE/menustates/titlescreen.c", 289
	lda     _titlecolor2
	sta     _PAL_BUF_RAW+19
	tay
	lda     (_PAL_PTR),y
	sta     _PAL_BUF+19
;
; pal_set_update();
;
	.dbg	line, "SAUCE/menustates/titlescreen.c", 290
	inc     _PAL_UPDATE
;
; loop_routine_update();
;
	.dbg	line, "SAUCE/menustates/titlescreen.c", 292
	jsr     _loop_routine_update
;
; newrand();
;
	.dbg	line, "SAUCE/menustates/titlescreen.c", 295
	jsr     _newrand
;
; newrand();
;
	.dbg	line, "SAUCE/menustates/titlescreen.c", 296
	jsr     _newrand
;
; newrand();
;
	.dbg	line, "SAUCE/menustates/titlescreen.c", 297
	jsr     _newrand
;
; if (titlemode != TITLEMODE_META) currplayer_x_small += speed;
;
	.dbg	line, "SAUCE/menustates/titlescreen.c", 298
	lda     _titlemode
	cmp     #$FF
	beq     L010E
	lda     _speed
	clc
	adc     _currplayer_x_small
	sta     _currplayer_x_small
;
; if (currplayer_x_small >= 0xFB) { 
;
	.dbg	line, "SAUCE/menustates/titlescreen.c", 299
L010E:	lda     _currplayer_x_small
	cmp     #$FB
	lda     #$00
	tax
	rol     a
	beq     L010F
;
; roll_new_mode();  
;
	.dbg	line, "SAUCE/menustates/titlescreen.c", 300
	jsr     _roll_new_mode
;
; if (currplayer_x_small <= 0xF7) {
;
	.dbg	line, "SAUCE/menustates/titlescreen.c", 310
L010F:	lda     _currplayer_x_small
	cmp     #$F8
	jcs     L0136
;
; switch (titlemode) {
;
	.dbg	line, "SAUCE/menustates/titlescreen.c", 317
	ldx     #$00
	lda     _titlemode
;
; };
;
	.dbg	line, "SAUCE/menustates/titlescreen.c", 531
	beq     L0021
	cmp     #$01
	jeq     L0022
	cmp     #$02
	jeq     L0024
	cmp     #$03
	jeq     L0025
	cmp     #$04
	jeq     L0033
	cmp     #$05
	jeq     L0119
	cmp     #$06
	jeq     L0041
	cmp     #$07
	jeq     L004A
	cmp     #$08
	jeq     L0055
	cmp     #$09
	jeq     L0059
	cmp     #$0A
	jeq     L0065
	cmp     #$0B
	jeq     L006B
	cmp     #$0C
	jeq     L0072
	cmp     #$0D
	jeq     L0073
	cmp     #$0E
	jeq     L0130
	cmp     #$0F
	jeq     L007B
	cmp     #$FF
	jeq     L0133
	jmp     L0136
;
; title_cube_shit();
;
	.dbg	line, "SAUCE/menustates/titlescreen.c", 321
L0021:	jsr     _title_cube_shit
;
; high_byte(player_x[0]) = currplayer_x_small;
;
	.dbg	line, "SAUCE/menustates/titlescreen.c", 323
	lda     _currplayer_x_small
	sta     _player_x+1
;
; high_byte(player_y[0]) = currplayer_y_small;
;
	.dbg	line, "SAUCE/menustates/titlescreen.c", 324
	lda     _currplayer_y_small
	sta     _player_y+1
;
; crossPRGBankJump0(drawplayerone);
;
	.dbg	line, "SAUCE/menustates/titlescreen.c", 325
	lda     #<_drawplayerone
	ldx     #>_drawplayerone
	ldy     #<.bank(_drawplayerone)
	jsr     crossPRGBankJump
;
; break;
;
	.dbg	line, "SAUCE/menustates/titlescreen.c", 326
	jmp     L0136
;
; title_ufo_shit();
;
	.dbg	line, "SAUCE/menustates/titlescreen.c", 328
L0022:	jsr     _title_ufo_shit
;
; oam_spr(currplayer_x_small, currplayer_y_small, 0x3F, 0x20+xtra);
;
	.dbg	line, "SAUCE/menustates/titlescreen.c", 330
	lda     _currplayer_x_small
	sta     sreg
	lda     _currplayer_y_small
	sta     sreg+1
	ldx     #$3F
	lda     #$20
	jsr     __oam_spr
;
; oam_spr(currplayer_x_small + 8, currplayer_y_small, 0x3F, 0x60+xtra);
;
	.dbg	line, "SAUCE/menustates/titlescreen.c", 331
	lda     _currplayer_x_small
	clc
	adc     #$08
	sta     sreg
	lda     _currplayer_y_small
	sta     sreg+1
	ldx     #$3F
	lda     #$60
	jsr     __oam_spr
;
; break;
;
	.dbg	line, "SAUCE/menustates/titlescreen.c", 332
	jmp     L0136
;
; title_cube_shit();
;
	.dbg	line, "SAUCE/menustates/titlescreen.c", 334
L0024:	jsr     _title_cube_shit
;
; player_mini[0] = 1;
;
	.dbg	line, "SAUCE/menustates/titlescreen.c", 335
	lda     #$01
	sta     _player_mini
;
; high_byte(player_x[0]) = currplayer_x_small;
;
	.dbg	line, "SAUCE/menustates/titlescreen.c", 336
	lda     _currplayer_x_small
	sta     _player_x+1
;
; high_byte(player_y[0]) = currplayer_y_small;
;
	.dbg	line, "SAUCE/menustates/titlescreen.c", 337
	lda     _currplayer_y_small
	sta     _player_y+1
;
; crossPRGBankJump0(drawplayerone);
;
	.dbg	line, "SAUCE/menustates/titlescreen.c", 338
	lda     #<_drawplayerone
	ldx     #>_drawplayerone
	ldy     #<.bank(_drawplayerone)
	jsr     crossPRGBankJump
;
; player_mini[0] = 0;
;
	.dbg	line, "SAUCE/menustates/titlescreen.c", 339
	lda     #$00
	sta     _player_mini
;
; break;
;
	.dbg	line, "SAUCE/menustates/titlescreen.c", 340
	jmp     L0136
;
; title_ship_shit();
;
	.dbg	line, "SAUCE/menustates/titlescreen.c", 342
L0025:	jsr     _title_ship_shit
;
; tmp7 = idx8_load(shipFrameTable, tmpi8 + 3);
;
	.dbg	line, "SAUCE/menustates/titlescreen.c", 344
	lda     _tmpi8
	clc
	adc     #$03
	tay
	lda     _shipFrameTable,y
	sta     _tmp7
;
; if (currplayer_y_small == 160 && tmp7 < 0x29) tmp7 = 0x29;
;
	.dbg	line, "SAUCE/menustates/titlescreen.c", 346
	lda     _currplayer_y_small
	cmp     #$A0
	bne     L0112
	lda     _tmp7
	cmp     #$29
	bcc     L0114
;
; else if (currplayer_y_small == 8 && tmp7 > 0x29) tmp7 = 0x29;
;
	.dbg	line, "SAUCE/menustates/titlescreen.c", 347
L0112:	lda     _currplayer_y_small
	cmp     #$08
	bne     L0115
	lda     _tmp7
	cmp     #$2A
	bcc     L0115
L0114:	lda     #$29
	sta     _tmp7
;
; oam_spr(currplayer_x_small, currplayer_y_small, tmp7, 0x20+xtra);
;
	.dbg	line, "SAUCE/menustates/titlescreen.c", 349
L0115:	lda     _currplayer_x_small
	sta     sreg
	lda     _currplayer_y_small
	sta     sreg+1
	ldx     _tmp7
	lda     #$20
	jsr     __oam_spr
;
; oam_spr(currplayer_x_small + 8, currplayer_y_small, tmp7 + 2, 0x20+xtra);
;
	.dbg	line, "SAUCE/menustates/titlescreen.c", 350
	lda     _currplayer_x_small
	clc
	adc     #$08
	sta     sreg
	lda     _currplayer_y_small
	sta     sreg+1
	lda     _tmp7
	clc
	adc     #$02
	tax
	lda     #$20
	jsr     __oam_spr
;
; break;
;
	.dbg	line, "SAUCE/menustates/titlescreen.c", 351
	jmp     L0136
;
; title_robot_shit();
;
	.dbg	line, "SAUCE/menustates/titlescreen.c", 353
L0033:	jsr     _title_robot_shit
;
; if (!(kandoframecnt & 0x07)) { ++ballframe; ballframe &= 3; }
;
	.dbg	line, "SAUCE/menustates/titlescreen.c", 355
	lda     _kandoframecnt
	and     #$07
	bne     L0116
	inc     _ballframe
	lda     _ballframe
	and     #$03
	sta     _ballframe
;
; if (currplayer_y_small == 160) {
;
	.dbg	line, "SAUCE/menustates/titlescreen.c", 357
L0116:	lda     _currplayer_y_small
	cmp     #$A0
	bne     L0118
;
; if (!retro_mode) {
;
	.dbg	line, "SAUCE/menustates/titlescreen.c", 358
	lda     _retro_mode
	bne     L0117
;
; tmp1 = idx8_load(robotFrameTable1, ballframe & 1);
;
	.dbg	line, "SAUCE/menustates/titlescreen.c", 359
	lda     _ballframe
	and     #$01
	tay
	lda     _robotFrameTable1,y
;
; } else {
;
	.dbg	line, "SAUCE/menustates/titlescreen.c", 360
	jmp     L00F7
;
; tmp1 = 0xFF;
;
	.dbg	line, "SAUCE/menustates/titlescreen.c", 361
L0117:	lda     #$FF
L00F7:	sta     _tmp1
;
; tmp2 = idx8_load(robotFrameTable2, ballframe | (retro_mode << 2));
;
	.dbg	line, "SAUCE/menustates/titlescreen.c", 363
	lda     _retro_mode
	asl     a
	asl     a
	ora     _ballframe
	tay
	lda     _robotFrameTable2,y
	sta     _tmp2
;
; tmp3 = idx8_load(robotFrameTable3, get_Y);
;
	.dbg	line, "SAUCE/menustates/titlescreen.c", 364
	lda     _robotFrameTable3,y
;
; } else {
;
	.dbg	line, "SAUCE/menustates/titlescreen.c", 365
	jmp     L00F8
;
; tmp1 = 0xFF;
;
	.dbg	line, "SAUCE/menustates/titlescreen.c", 366
L0118:	lda     #$FF
	sta     _tmp1
;
; tmp2 = 0x0F + (retro_mode * 2); // 0x0F or 0x11
;
	.dbg	line, "SAUCE/menustates/titlescreen.c", 367
	lda     _retro_mode
	asl     a
	clc
	adc     #$0F
	sta     _tmp2
;
; tmp3 = tmp2 + 2;    // 0x11 or 0x13
;
	.dbg	line, "SAUCE/menustates/titlescreen.c", 368
	clc
	adc     #$02
L00F8:	sta     _tmp3
;
; oam_spr(currplayer_x_small-8, currplayer_y_small, tmp1, 0x20+xtra);
;
	.dbg	line, "SAUCE/menustates/titlescreen.c", 371
	lda     _currplayer_x_small
	sec
	sbc     #$08
	sta     sreg
	lda     _currplayer_y_small
	sta     sreg+1
	ldx     _tmp1
	lda     #$20
	jsr     __oam_spr
;
; oam_spr(currplayer_x_small, currplayer_y_small, tmp2, 0x20+xtra);
;
	.dbg	line, "SAUCE/menustates/titlescreen.c", 372
	lda     _currplayer_x_small
	sta     sreg
	lda     _currplayer_y_small
	sta     sreg+1
	ldx     _tmp2
	lda     #$20
	jsr     __oam_spr
;
; oam_spr(currplayer_x_small + 8, currplayer_y_small, tmp3, 0x20+xtra);
;
	.dbg	line, "SAUCE/menustates/titlescreen.c", 373
	lda     _currplayer_x_small
	clc
	adc     #$08
	sta     sreg
	lda     _currplayer_y_small
	sta     sreg+1
	ldx     _tmp3
	lda     #$20
	jsr     __oam_spr
;
; break;
;
	.dbg	line, "SAUCE/menustates/titlescreen.c", 374
	jmp     L0136
;
; currplayer_y_small = 160; tmp7 = 0x20+xtra;
;
	.dbg	line, "SAUCE/menustates/titlescreen.c", 381
L0119:	lda     #$A0
	sta     _currplayer_y_small
	lda     #$20
	sta     _tmp7
;
; if (!(kandoframecnt & 0x07)) { ++ballframe; ballframe &= 3; }
;
	.dbg	line, "SAUCE/menustates/titlescreen.c", 385
	lda     _kandoframecnt
	and     #$07
	bne     L011A
	inc     _ballframe
	lda     _ballframe
	and     #$03
	sta     _ballframe
;
; tmp1 = idx8_load(spiderFrameTable1, ballframe);
;
	.dbg	line, "SAUCE/menustates/titlescreen.c", 387
L011A:	ldy     _ballframe
	lda     _spiderFrameTable1,y
	sta     _tmp1
;
; tmp2 = idx8_load(spiderFrameTable2, get_Y);
;
	.dbg	line, "SAUCE/menustates/titlescreen.c", 388
	lda     _spiderFrameTable2,y
	sta     _tmp2
;
; tmp3 = idx8_load(spiderFrameTable3, get_Y);
;
	.dbg	line, "SAUCE/menustates/titlescreen.c", 389
	lda     _spiderFrameTable3,y
	sta     _tmp3
;
; oam_spr(currplayer_x_small - 8, currplayer_y_small, tmp1, tmp7);
;
	.dbg	line, "SAUCE/menustates/titlescreen.c", 391
	lda     _currplayer_x_small
	sec
	sbc     #$08
	sta     sreg
	lda     _currplayer_y_small
	sta     sreg+1
	lda     _tmp7
	ldx     _tmp1
	jsr     __oam_spr
;
; oam_spr(currplayer_x_small, currplayer_y_small, tmp2, tmp7);
;
	.dbg	line, "SAUCE/menustates/titlescreen.c", 392
	lda     _currplayer_x_small
	sta     sreg
	lda     _currplayer_y_small
	sta     sreg+1
	lda     _tmp7
	ldx     _tmp2
	jsr     __oam_spr
;
; oam_spr(currplayer_x_small + 8, currplayer_y_small, tmp3, tmp7);
;
	.dbg	line, "SAUCE/menustates/titlescreen.c", 393
	lda     _currplayer_x_small
	clc
	adc     #$08
	sta     sreg
	lda     _currplayer_y_small
	sta     sreg+1
	lda     _tmp7
	ldx     _tmp3
	jsr     __oam_spr
;
; break;
;
	.dbg	line, "SAUCE/menustates/titlescreen.c", 394
	jmp     L0136
;
; title_wave_shit();
;
	.dbg	line, "SAUCE/menustates/titlescreen.c", 396
L0041:	jsr     _title_wave_shit
;
; if (currplayer_y_small == 160 || currplayer_y_small == 8) {
;
	.dbg	line, "SAUCE/menustates/titlescreen.c", 398
	lda     _currplayer_y_small
	cmp     #$A0
	beq     L011B
	cmp     #$08
	bne     L011C
;
; tmp1 = 0x29;
;
	.dbg	line, "SAUCE/menustates/titlescreen.c", 399
L011B:	lda     #$29
	sta     _tmp1
;
; } else {
;
	.dbg	line, "SAUCE/menustates/titlescreen.c", 401
	jmp     L011D
;
; tmp1 = 0x2D;
;
	.dbg	line, "SAUCE/menustates/titlescreen.c", 402
L011C:	lda     #$2D
	sta     _tmp1
;
; if (currplayer_gravity) {
;
	.dbg	line, "SAUCE/menustates/titlescreen.c", 403
	lda     _currplayer_gravity
	beq     L011D
;
; tmp2 = 0xA0+xtra;
;
	.dbg	line, "SAUCE/menustates/titlescreen.c", 404
	lda     #$A0
;
; } else {
;
	.dbg	line, "SAUCE/menustates/titlescreen.c", 405
	jmp     L00F9
;
; tmp2 = 0x20+xtra;
;
	.dbg	line, "SAUCE/menustates/titlescreen.c", 406
L011D:	lda     #$20
L00F9:	sta     _tmp2
;
; oam_spr(currplayer_x_small, currplayer_y_small, tmp1, tmp2);
;
	.dbg	line, "SAUCE/menustates/titlescreen.c", 410
	lda     _currplayer_x_small
	sta     sreg
	lda     _currplayer_y_small
	sta     sreg+1
	lda     _tmp2
	ldx     _tmp1
	jsr     __oam_spr
;
; oam_spr(currplayer_x_small + 8, currplayer_y_small, tmp1 + 2, tmp2);
;
	.dbg	line, "SAUCE/menustates/titlescreen.c", 411
	lda     _currplayer_x_small
	clc
	adc     #$08
	sta     sreg
	lda     _currplayer_y_small
	sta     sreg+1
	lda     _tmp1
	clc
	adc     #$02
	sta     ptr1+1
	lda     _tmp2
	ldx     ptr1+1
	jsr     __oam_spr
;
; break;
;
	.dbg	line, "SAUCE/menustates/titlescreen.c", 412
	jmp     L0136
;
; title_ball_shit();
;
	.dbg	line, "SAUCE/menustates/titlescreen.c", 414
L004A:	jsr     _title_ball_shit
;
; if (!(kandoframecnt & 0x07)) ballframe ^= 1;
;
	.dbg	line, "SAUCE/menustates/titlescreen.c", 416
	lda     _kandoframecnt
	and     #$07
	bne     L004B
	lda     _ballframe
	eor     #$01
	sta     _ballframe
;
; if (retro_mode && currplayer_gravity) tmp7 = 0xA0+xtra;
;
	.dbg	line, "SAUCE/menustates/titlescreen.c", 418
L004B:	lda     _retro_mode
	beq     L0121
	lda     _currplayer_gravity
	beq     L0121
	lda     #$A0
;
; else tmp7 = 0x20+xtra;
;
	.dbg	line, "SAUCE/menustates/titlescreen.c", 419
	jmp     L00FA
L0121:	lda     #$20
L00FA:	sta     _tmp7
;
; if (ballframe) tmp2 = 0x3F;
;
	.dbg	line, "SAUCE/menustates/titlescreen.c", 421
	lda     _ballframe
	beq     L0122
	lda     #$3F
;
; else tmp2 = 0x1B;
;
	.dbg	line, "SAUCE/menustates/titlescreen.c", 422
	jmp     L00FB
L0122:	lda     #$1B
L00FB:	sta     _tmp2
;
; oam_spr(currplayer_x_small, currplayer_y_small, tmp2, tmp7);
;
	.dbg	line, "SAUCE/menustates/titlescreen.c", 424
	lda     _currplayer_x_small
	sta     sreg
	lda     _currplayer_y_small
	sta     sreg+1
	lda     _tmp7
	ldx     _tmp2
	jsr     __oam_spr
;
; oam_spr(currplayer_x_small + 8, currplayer_y_small, tmp2, tmp7 + 0x40);
;
	.dbg	line, "SAUCE/menustates/titlescreen.c", 425
	lda     _currplayer_x_small
	clc
	adc     #$08
	ldx     #$00
	sta     sreg
	lda     _currplayer_y_small
	sta     sreg+1
	lda     _tmp7
	clc
	adc     #$40
	bcc     L0054
	inx
L0054:	pha
	txa
	ora     _tmp2
	tax
	pla
	jsr     __oam_spr
;
; break;
;
	.dbg	line, "SAUCE/menustates/titlescreen.c", 426
	jmp     L0136
;
; title_swing_shit();
;
	.dbg	line, "SAUCE/menustates/titlescreen.c", 428
L0055:	jsr     _title_swing_shit
;
; if (!(kandoframecnt & 0x07)) { ++ballframe; ballframe &= 3; }
;
	.dbg	line, "SAUCE/menustates/titlescreen.c", 430
	lda     _kandoframecnt
	and     #$07
	bne     L0123
	inc     _ballframe
	lda     _ballframe
	and     #$03
	sta     _ballframe
;
; tmp2 = idx8_load(swingFrameTable1, ballframe & 1);
;
	.dbg	line, "SAUCE/menustates/titlescreen.c", 432
L0123:	lda     _ballframe
	and     #$01
	tay
	lda     _swingFrameTable1,y
	sta     _tmp2
;
; tmp7 = idx8_load(swingFrameTable2, ballframe);
;
	.dbg	line, "SAUCE/menustates/titlescreen.c", 433
	ldy     _ballframe
	lda     _swingFrameTable2,y
	sta     _tmp7
;
; oam_spr(currplayer_x_small, currplayer_y_small, tmp2, tmp7);
;
	.dbg	line, "SAUCE/menustates/titlescreen.c", 435
	lda     _currplayer_x_small
	sta     sreg
	lda     _currplayer_y_small
	sta     sreg+1
	lda     _tmp7
	ldx     _tmp2
	jsr     __oam_spr
;
; oam_spr(currplayer_x_small + 8, currplayer_y_small, tmp2+2, tmp7);
;
	.dbg	line, "SAUCE/menustates/titlescreen.c", 436
	lda     _currplayer_x_small
	clc
	adc     #$08
	sta     sreg
	lda     _currplayer_y_small
	sta     sreg+1
	lda     _tmp2
	clc
	adc     #$02
	sta     ptr1+1
	lda     _tmp7
	ldx     ptr1+1
	jsr     __oam_spr
;
; break;
;
	.dbg	line, "SAUCE/menustates/titlescreen.c", 437
	jmp     L0136
;
; title_ship_shit();
;
	.dbg	line, "SAUCE/menustates/titlescreen.c", 439
L0059:	jsr     _title_ship_shit
;
; tmp7 = idx8_load(miniShipFrameTable, tmpi8 + 3);
;
	.dbg	line, "SAUCE/menustates/titlescreen.c", 441
	lda     _tmpi8
	clc
	adc     #$03
	tay
	lda     _miniShipFrameTable,y
	sta     _tmp7
;
; if (currplayer_y_small == 160 && tmp7 < 0x05) tmp7 = 0x05;
;
	.dbg	line, "SAUCE/menustates/titlescreen.c", 443
	lda     _currplayer_y_small
	cmp     #$A0
	bne     L0126
	lda     _tmp7
	cmp     #$05
	bcc     L0128
;
; else if (currplayer_y_small == 8 && tmp7 > 0x05) tmp7 = 0x05;
;
	.dbg	line, "SAUCE/menustates/titlescreen.c", 444
L0126:	lda     _currplayer_y_small
	cmp     #$08
	bne     L0129
	lda     _tmp7
	cmp     #$06
	bcc     L0129
L0128:	lda     #$05
	sta     _tmp7
;
; oam_spr(currplayer_x_small, currplayer_y_small, tmp7, 0x20+xtra);
;
	.dbg	line, "SAUCE/menustates/titlescreen.c", 446
L0129:	lda     _currplayer_x_small
	sta     sreg
	lda     _currplayer_y_small
	sta     sreg+1
	ldx     _tmp7
	lda     #$20
	jsr     __oam_spr
;
; break;
;
	.dbg	line, "SAUCE/menustates/titlescreen.c", 447
	jmp     L0136
;
; title_ball_shit();
;
	.dbg	line, "SAUCE/menustates/titlescreen.c", 449
L0065:	jsr     _title_ball_shit
;
; if (retro_mode && currplayer_gravity) tmp7 = 0xA0+xtra;
;
	.dbg	line, "SAUCE/menustates/titlescreen.c", 451
	lda     _retro_mode
	beq     L012A
	lda     _currplayer_gravity
	beq     L012A
	lda     #$A0
;
; else tmp7 = 0x20+xtra;
;
	.dbg	line, "SAUCE/menustates/titlescreen.c", 452
	jmp     L00FD
L012A:	lda     #$20
L00FD:	sta     _tmp7
;
; oam_spr(currplayer_x_small, currplayer_y_small, 0x3D, tmp7);
;
	.dbg	line, "SAUCE/menustates/titlescreen.c", 454
	lda     _currplayer_x_small
	sta     sreg
	lda     _currplayer_y_small
	sta     sreg+1
	lda     _tmp7
	ldx     #$3D
	jsr     __oam_spr
;
; break;
;
	.dbg	line, "SAUCE/menustates/titlescreen.c", 455
	jmp     L0136
;
; title_mini_wave_shit();
;
	.dbg	line, "SAUCE/menustates/titlescreen.c", 457
L006B:	jsr     _title_mini_wave_shit
;
; if (currplayer_y_small == 160 || currplayer_y_small == 8) {
;
	.dbg	line, "SAUCE/menustates/titlescreen.c", 459
	lda     _currplayer_y_small
	cmp     #$A0
	beq     L012B
	cmp     #$08
	bne     L012C
;
; tmp1 = 0x0D;
;
	.dbg	line, "SAUCE/menustates/titlescreen.c", 460
L012B:	lda     #$0D
	sta     _tmp1
;
; tmp2 = 0x20;
;
	.dbg	line, "SAUCE/menustates/titlescreen.c", 461
	lda     #$20
	sta     _tmp2
;
; oam_spr(currplayer_x_small, currplayer_y_small, 0x0D, 0x20+xtra);
;
	.dbg	line, "SAUCE/menustates/titlescreen.c", 462
	lda     _currplayer_x_small
	sta     sreg
	lda     _currplayer_y_small
	sta     sreg+1
	ldx     #$0D
	lda     #$20
	jsr     __oam_spr
;
; } else {
;
	.dbg	line, "SAUCE/menustates/titlescreen.c", 463
	jmp     L0071
;
; tmp1 = 0x11;
;
	.dbg	line, "SAUCE/menustates/titlescreen.c", 464
L012C:	lda     #$11
	sta     _tmp1
;
; if (currplayer_gravity) {
;
	.dbg	line, "SAUCE/menustates/titlescreen.c", 465
	lda     _currplayer_gravity
	beq     L012D
;
; tmp2 = 0xA0+xtra;
;
	.dbg	line, "SAUCE/menustates/titlescreen.c", 466
	lda     #$A0
;
; } else {
;
	.dbg	line, "SAUCE/menustates/titlescreen.c", 467
	jmp     L00FE
;
; tmp2 = 0x20+xtra;
;
	.dbg	line, "SAUCE/menustates/titlescreen.c", 468
L012D:	lda     #$20
L00FE:	sta     _tmp2
;
; oam_spr(currplayer_x_small, currplayer_y_small, tmp1, tmp2);
;
	.dbg	line, "SAUCE/menustates/titlescreen.c", 472
L0071:	lda     _currplayer_x_small
	sta     sreg
	lda     _currplayer_y_small
	sta     sreg+1
	lda     _tmp2
	ldx     _tmp1
	jsr     __oam_spr
;
; break;
;
	.dbg	line, "SAUCE/menustates/titlescreen.c", 473
	jmp     L0136
;
; title_ufo_shit();
;
	.dbg	line, "SAUCE/menustates/titlescreen.c", 475
L0072:	jsr     _title_ufo_shit
;
; oam_spr(currplayer_x_small, currplayer_y_small, 0x19, 0x20+xtra);
;
	.dbg	line, "SAUCE/menustates/titlescreen.c", 477
	lda     _currplayer_x_small
	sta     sreg
	lda     _currplayer_y_small
	sta     sreg+1
	ldx     #$19
	lda     #$20
	jsr     __oam_spr
;
; break;
;
	.dbg	line, "SAUCE/menustates/titlescreen.c", 478
	jmp     L0136
;
; title_robot_shit();
;
	.dbg	line, "SAUCE/menustates/titlescreen.c", 480
L0073:	jsr     _title_robot_shit
;
; if (!(kandoframecnt & 0x07)) {
;
	.dbg	line, "SAUCE/menustates/titlescreen.c", 482
	lda     _kandoframecnt
	and     #$07
	bne     L012F
;
; if (ballframe == 2) ballframe = 0;
;
	.dbg	line, "SAUCE/menustates/titlescreen.c", 483
	lda     _ballframe
	cmp     #$02
	bne     L012E
	lda     #$00
	sta     _ballframe
;
; else ++ballframe;
;
	.dbg	line, "SAUCE/menustates/titlescreen.c", 484
	jmp     L012F
L012E:	inc     _ballframe
;
; tmp2 = 0x37 + (ballframe * 2);
;
	.dbg	line, "SAUCE/menustates/titlescreen.c", 487
L012F:	lda     _ballframe
	asl     a
	clc
	adc     #$37
	sta     _tmp2
;
; oam_spr(currplayer_x_small, currplayer_y_small, tmp2, 0x20+xtra);
;
	.dbg	line, "SAUCE/menustates/titlescreen.c", 489
	lda     _currplayer_x_small
	sta     sreg
	lda     _currplayer_y_small
	sta     sreg+1
	ldx     _tmp2
	lda     #$20
	jsr     __oam_spr
;
; break;
;
	.dbg	line, "SAUCE/menustates/titlescreen.c", 490
	jmp     L0136
;
; currplayer_y_small = 160; tmp7 = 0x20+xtra; 
;
	.dbg	line, "SAUCE/menustates/titlescreen.c", 500
L0130:	lda     #$A0
	sta     _currplayer_y_small
	lda     #$20
	sta     _tmp7
;
; if (!(kandoframecnt & 0x07)) { ++ballframe; ballframe &= 3; }
;
	.dbg	line, "SAUCE/menustates/titlescreen.c", 505
	lda     _kandoframecnt
	and     #$07
	bne     L0131
	inc     _ballframe
	lda     _ballframe
	and     #$03
	sta     _ballframe
;
; tmp2 = 0x21 + (ballframe * 2);
;
	.dbg	line, "SAUCE/menustates/titlescreen.c", 506
L0131:	lda     _ballframe
	asl     a
	clc
	adc     #$21
	sta     _tmp2
;
; oam_spr(currplayer_x_small, currplayer_y_small, tmp2, tmp7);
;
	.dbg	line, "SAUCE/menustates/titlescreen.c", 507
	lda     _currplayer_x_small
	sta     sreg
	lda     _currplayer_y_small
	sta     sreg+1
	lda     _tmp7
	ldx     _tmp2
	jsr     __oam_spr
;
; break;
;
	.dbg	line, "SAUCE/menustates/titlescreen.c", 508
	jmp     L0136
;
; title_swing_shit();
;
	.dbg	line, "SAUCE/menustates/titlescreen.c", 510
L007B:	jsr     _title_swing_shit
;
; if (!(kandoframecnt & 0x07)) { ++ballframe; ballframe &= 3; }
;
	.dbg	line, "SAUCE/menustates/titlescreen.c", 512
	lda     _kandoframecnt
	and     #$07
	bne     L0132
	inc     _ballframe
	lda     _ballframe
	and     #$03
	sta     _ballframe
;
; tmp7 = idx8_load(miniSwingFrameTable, ballframe);
;
	.dbg	line, "SAUCE/menustates/titlescreen.c", 514
L0132:	ldy     _ballframe
	lda     _miniSwingFrameTable,y
	sta     _tmp7
;
; oam_spr(currplayer_x_small, currplayer_y_small, tmp7, 0x20+xtra);
;
	.dbg	line, "SAUCE/menustates/titlescreen.c", 515
	lda     _currplayer_x_small
	sta     sreg
	lda     _currplayer_y_small
	sta     sreg+1
	ldx     _tmp7
	lda     #$20
	jsr     __oam_spr
;
; break;
;
	.dbg	line, "SAUCE/menustates/titlescreen.c", 516
	jmp     L0136
;
; if (!(kandoframecnt & 0x07)) {
;
	.dbg	line, "SAUCE/menustates/titlescreen.c", 518
L0133:	lda     _kandoframecnt
	and     #$07
	bne     L0135
;
; if (ballframe == 5) ballframe = 0;
;
	.dbg	line, "SAUCE/menustates/titlescreen.c", 519
	lda     _ballframe
	cmp     #$05
	bne     L0134
	stx     _ballframe
;
; else ++ballframe;
;
	.dbg	line, "SAUCE/menustates/titlescreen.c", 520
	jmp     L0135
L0134:	inc     _ballframe
;
; if (ballframe != 5) {
;
	.dbg	line, "SAUCE/menustates/titlescreen.c", 523
L0135:	lda     _ballframe
	cmp     #$05
	beq     L0081
;
; tmp7 = idx8_load(mysteryFrameTable, ballframe);
;
	.dbg	line, "SAUCE/menustates/titlescreen.c", 524
	ldy     _ballframe
	lda     _mysteryFrameTable,y
	sta     _tmp7
;
; oam_spr(currplayer_x_small, currplayer_y_small, tmp7, 0x20+xtra);
;
	.dbg	line, "SAUCE/menustates/titlescreen.c", 525
	lda     _currplayer_x_small
	sta     sreg
	lda     _currplayer_y_small
	sta     sreg+1
	ldx     _tmp7
	lda     #$20
	jsr     __oam_spr
;
; oam_spr(currplayer_x_small + 8, currplayer_y_small, tmp7, 0xE0+xtra);
;
	.dbg	line, "SAUCE/menustates/titlescreen.c", 526
	lda     _currplayer_x_small
	clc
	adc     #$08
	sta     sreg
	lda     _currplayer_y_small
	sta     sreg+1
	ldx     _tmp7
	lda     #$E0
	jsr     __oam_spr
;
; } else {
;
	.dbg	line, "SAUCE/menustates/titlescreen.c", 527
	jmp     L0136
;
; roll_new_mode();
;
	.dbg	line, "SAUCE/menustates/titlescreen.c", 528
L0081:	jsr     _roll_new_mode
;
; if (!(kandoframecnt & 127)) {
;
	.dbg	line, "SAUCE/menustates/titlescreen.c", 536
L0136:	lda     _kandoframecnt
	ldx     #$00
	and     #$7F
	bne     L0084
;
; color_picker();
;
	.dbg	line, "SAUCE/menustates/titlescreen.c", 537
	jsr     _color_picker
;
; dec_mouse_timer();
;
	.dbg	line, "SAUCE/menustates/titlescreen.c", 539
L0084:	jsr     _dec_mouse_timer
;
; tmp3 = 0; 
;
	.dbg	line, "SAUCE/menustates/titlescreen.c", 540
	lda     #$00
	sta     _tmp3
;
; if (joypad1.press_right && coinCondition) {
;
	.dbg	line, "SAUCE/menustates/titlescreen.c", 542
	lda     _joypad1+1
	and     #$01
	beq     L0085
;
; if (menuselection == TITLE_BTN_MAX) menuselection = 0;
;
	.dbg	line, "SAUCE/menustates/titlescreen.c", 543
	lda     _menuselection
	cmp     #$06
	bne     L0138
	lda     #$00
	sta     _menuselection
;
; else menuselection++;
;
	.dbg	line, "SAUCE/menustates/titlescreen.c", 544
	jmp     L0139
L0138:	inc     _menuselection
;
; tmp3--;
;
	.dbg	line, "SAUCE/menustates/titlescreen.c", 545
L0139:	dec     _tmp3
;
; if (joypad1.press_left && coinCondition) {
;
	.dbg	line, "SAUCE/menustates/titlescreen.c", 550
L0085:	lda     _joypad1+1
	and     #$02
	beq     L008B
;
; if (menuselection == 0) menuselection = TITLE_BTN_MAX;
;
	.dbg	line, "SAUCE/menustates/titlescreen.c", 551
	lda     _menuselection
	bne     L013B
	lda     #$06
	sta     _menuselection
;
; else menuselection--;
;
	.dbg	line, "SAUCE/menustates/titlescreen.c", 552
	jmp     L013C
L013B:	dec     _menuselection
;
; tmp3++;
;
	.dbg	line, "SAUCE/menustates/titlescreen.c", 553
L013C:	inc     _tmp3
;
; if (tmp3 && coinCondition) {    // menu selection incremented or decremented
;
	.dbg	line, "SAUCE/menustates/titlescreen.c", 559
L008B:	lda     _tmp3
	jeq     L009E
;
; tmp4 = menuselection; ++tmp4;
;
	.dbg	line, "SAUCE/menustates/titlescreen.c", 560
	lda     _menuselection
	sta     _tmp4
	inc     _tmp4
;
; tmp5 = loNTAddrTableTitleScreen[tmp4]|(hiNTAddrTableTitleScreen[tmp4]<<8);
;
	.dbg	line, "SAUCE/menustates/titlescreen.c", 561
	ldy     _tmp4
	lda     _hiNTAddrTableTitleScreen,y
	sta     _tmp5+1
	ldy     _tmp4
	lda     _loNTAddrTableTitleScreen,y
	sta     _tmp5
;
; if (menuselection != TITLE_BTN_FUNSETTINGS) {
;
	.dbg	line, "SAUCE/menustates/titlescreen.c", 563
	lda     _menuselection
	cmp     #$05
	beq     L013E
;
; one_vram_buffer('a', tmp5);
;
	.dbg	line, "SAUCE/menustates/titlescreen.c", 564
	lda     #$5E
	sta     sreg+0
	lda     _tmp5
	ldx     _tmp5+1
	jsr     __one_vram_buffer
;
; one_vram_buffer('b', addloNOC(tmp5, 1));
;
	.dbg	line, "SAUCE/menustates/titlescreen.c", 565
	lda     #$5F
	sta     sreg+0
	lda     _tmp5
	clc
	adc     #$01
	ldx     _tmp5+1
;
; } else {
;
	.dbg	line, "SAUCE/menustates/titlescreen.c", 566
	jmp     L00FF
;
; one_vram_buffer(0x6F, NTADR_A(26, 2));
;
	.dbg	line, "SAUCE/menustates/titlescreen.c", 567
L013E:	lda     #$6F
	sta     sreg+0
	ldx     #$20
	lda     #$5A
	jsr     __one_vram_buffer
;
; one_vram_buffer(0x7F, NTADR_A(26, 3));
;
	.dbg	line, "SAUCE/menustates/titlescreen.c", 568
	lda     #$7F
	sta     sreg+0
	ldx     #$20
	lda     #$7A
L00FF:	jsr     __one_vram_buffer
;
; tmp4 += tmp3;   // Get the old index
;
	.dbg	line, "SAUCE/menustates/titlescreen.c", 575
	lda     _tmp3
	clc
	adc     _tmp4
	sta     _tmp4
;
; tmp5 = loNTAddrTableTitleScreen[tmp4]|(hiNTAddrTableTitleScreen[tmp4]<<8);
;
	.dbg	line, "SAUCE/menustates/titlescreen.c", 576
	ldy     _tmp4
	lda     _hiNTAddrTableTitleScreen,y
	sta     _tmp5+1
	ldy     _tmp4
	lda     _loNTAddrTableTitleScreen,y
	sta     _tmp5
;
; if (tmp4 != TITLE_BTN_FUNSETTINGS+1) {
;
	.dbg	line, "SAUCE/menustates/titlescreen.c", 578
	lda     _tmp4
	cmp     #$06
	beq     L013F
;
; one_vram_buffer(' ', tmp5);
;
	.dbg	line, "SAUCE/menustates/titlescreen.c", 580
	lda     #$FF
	sta     sreg+0
	lda     _tmp5
	ldx     _tmp5+1
	jsr     __one_vram_buffer
;
; one_vram_buffer(' ', addloNOC(tmp5, 1));
;
	.dbg	line, "SAUCE/menustates/titlescreen.c", 581
	lda     #$FF
	sta     sreg+0
	lda     _tmp5
	clc
	adc     #$01
	ldx     _tmp5+1
;
; } else {
;
	.dbg	line, "SAUCE/menustates/titlescreen.c", 583
	jmp     L0100
;
; one_vram_buffer(' ', NTADR_A(26, 2));
;
	.dbg	line, "SAUCE/menustates/titlescreen.c", 584
L013F:	lda     #$FF
	sta     sreg+0
	ldx     #$20
	lda     #$5A
	jsr     __one_vram_buffer
;
; one_vram_buffer(' ', NTADR_A(26, 3));
;
	.dbg	line, "SAUCE/menustates/titlescreen.c", 585
	lda     #$FF
	sta     sreg+0
	ldx     #$20
	lda     #$7A
L0100:	jsr     __one_vram_buffer
;
; if (joypad1.press_select) {
;
	.dbg	line, "SAUCE/menustates/titlescreen.c", 591
L009E:	lda     _joypad1+1
	and     #$20
	beq     L009F
;
; tmp2 = 0;
;
	.dbg	line, "SAUCE/menustates/titlescreen.c", 592
	lda     #$00
	sta     _tmp2
;
; gameState = STATE_CREDITS;
;
	.dbg	line, "SAUCE/menustates/titlescreen.c", 593
	tax
	sta     _gameState
;
; famistudio_music_stop();
;
	.dbg	line, "SAUCE/menustates/titlescreen.c", 594
	jsr     _famistudio_music_stop
;
; music_update();
;
	.dbg	line, "SAUCE/menustates/titlescreen.c", 595
	jsr     _music_update
;
; menuMusicCurrentlyPlaying = 0;
;
	.dbg	line, "SAUCE/menustates/titlescreen.c", 596
	lda     #$00
	sta     _menuMusicCurrentlyPlaying
;
; return;
;
	.dbg	line, "SAUCE/menustates/titlescreen.c", 597
	rts
;
; low_byte(tmp8) += MSB(ind16BE_load_NOC(CUBE_SPEED(framerate), 1));
;
	.dbg	line, "SAUCE/menustates/titlescreen.c", 600
L009F:	lda     _framerate
	asl     a
	tay
	lda     _CUBE_SPEED+1,y
	sta     ptr1+1
	lda     _CUBE_SPEED,y
	sta     ptr1
	ldy     #$02
	lda     (ptr1),y
	clc
	adc     _tmp8
	sta     _tmp8
;
; edit_irq_table(low_byte(tmp8), 2); 
;
	.dbg	line, "SAUCE/menustates/titlescreen.c", 601
	ldx     #$02
	jsr     __edit_irq_table
;
; if (mouse.left_press) {
;
	.dbg	line, "SAUCE/menustates/titlescreen.c", 612
	lda     _mouse
	and     #$10
	jeq     L016B
;
; if ((uint8_t)(currplayer_y_small - 8) <= (uint8_t)mouse.y && (uint8_t)(currplayer_y_small + 8) >= (uint8_t)mouse.y) {
;
	.dbg	line, "SAUCE/menustates/titlescreen.c", 613
	lda     _currplayer_y_small
	sec
	sbc     #$08
	cmp     _mouse+2
	beq     L0140
	bcs     L0145
L0140:	lda     _currplayer_y_small
	clc
	adc     #$08
	cmp     _mouse+2
	bcc     L0145
;
; if (mouse.x >= currplayer_x_small && (uint8_t)(currplayer_x_small + 16) >= mouse.x) {
;
	.dbg	line, "SAUCE/menustates/titlescreen.c", 614
	lda     _mouse+3
	cmp     _currplayer_x_small
	bcc     L0145
	lda     _currplayer_x_small
	clc
	adc     #$10
	cmp     _mouse+3
	bcc     L0145
;
; if (titlemode != TITLEMODE_META) {
;
	.dbg	line, "SAUCE/menustates/titlescreen.c", 615
	lda     _titlemode
	cmp     #$FF
	beq     L0145
;
; titlemode = TITLEMODE_META;  //crossPRGBankJump8(playPCM, 1); 
;
	.dbg	line, "SAUCE/menustates/titlescreen.c", 616
	lda     #$FF
	sta     _titlemode
;
; sfx_play(sfx_death,0);
;
	.dbg	line, "SAUCE/menustates/titlescreen.c", 617
	ldx     #$00
	txa
	jsr     __sfx_play
;
; ballframe = 0;
;
	.dbg	line, "SAUCE/menustates/titlescreen.c", 618
	lda     #$00
	sta     _ballframe
;
; if ((mouse.y >= 0x5E && mouse.y <= 0x7A)) {
;
	.dbg	line, "SAUCE/menustates/titlescreen.c", 624
L0145:	lda     _mouse+2
	cmp     #$5E
	bcc     L0154
	cmp     #$7B
	bcs     L0154
;
; if (mouse.x >= 0x41 && mouse.x <= 0x5A) {
;
	.dbg	line, "SAUCE/menustates/titlescreen.c", 625
	lda     _mouse+3
	cmp     #$41
	bcc     L014C
	cmp     #$5B
	bcs     L014C
;
; menuselection = TITLE_BTN_CUSTOMIZE; break;
;
	.dbg	line, "SAUCE/menustates/titlescreen.c", 626
	ldx     #$00
	lda     #$06
	sta     _menuselection
	jmp     L001A
;
; } else if (mouse.x >= 0x6F && mouse.x <= 0x8C) {
;
	.dbg	line, "SAUCE/menustates/titlescreen.c", 627
L014C:	lda     _mouse+3
	cmp     #$6F
	bcc     L0150
	cmp     #$8D
	bcs     L0150
;
; menuselection = TITLE_BTN_LEVELMAIN; break;
;
	.dbg	line, "SAUCE/menustates/titlescreen.c", 628
	ldx     #$00
	txa
	sta     _menuselection
	jmp     L001A
;
; } else if (mouse.x >= 0xA1 && mouse.x <= 0xBA) {
;
	.dbg	line, "SAUCE/menustates/titlescreen.c", 629
L0150:	lda     _mouse+3
	cmp     #$A1
	jcc     L016B
	cmp     #$BB
	bcs     L016B
;
; menuselection = TITLE_BTN_LEVELCOMM; break;
;
	.dbg	line, "SAUCE/menustates/titlescreen.c", 630
	ldx     #$00
	lda     #$01
	sta     _menuselection
	jmp     L001A
;
; } else if ((mouse.y >= 0x8C && mouse.y <= 0x9B)) {
;
	.dbg	line, "SAUCE/menustates/titlescreen.c", 632
L0154:	lda     _mouse+2
	cmp     #$8C
	bcc     L0163
	cmp     #$9C
	bcs     L0163
;
; if (mouse.x >= 0x46 && mouse.x <= 0x56) {
;
	.dbg	line, "SAUCE/menustates/titlescreen.c", 633
	lda     _mouse+3
	cmp     #$46
	bcc     L015B
	cmp     #$57
	bcs     L015B
;
; menuselection = TITLE_BTN_SOUNDTEST; break;
;
	.dbg	line, "SAUCE/menustates/titlescreen.c", 634
	ldx     #$00
	lda     #$02
	sta     _menuselection
	jmp     L001A
;
; } else if (mouse.x >= 0x76 && mouse.x <= 0x86) {
;
	.dbg	line, "SAUCE/menustates/titlescreen.c", 635
L015B:	lda     _mouse+3
	cmp     #$76
	bcc     L015F
	cmp     #$87
	bcs     L015F
;
; menuselection = TITLE_BTN_SETTINGS; break;
;
	.dbg	line, "SAUCE/menustates/titlescreen.c", 636
	ldx     #$00
	lda     #$03
	sta     _menuselection
	jmp     L001A
;
; } else if (mouse.x >= 0xA6 && mouse.x <= 0xB6) {
;
	.dbg	line, "SAUCE/menustates/titlescreen.c", 637
L015F:	lda     _mouse+3
	cmp     #$A6
	bcc     L016B
	cmp     #$B7
	bcs     L016B
;
; menuselection = TITLE_BTN_INSTRUCTIONS; break;
;
	.dbg	line, "SAUCE/menustates/titlescreen.c", 638
	ldx     #$00
	lda     #$04
	sta     _menuselection
	jmp     L001A
;
; } else if ((mouse.y >= 0x0D && mouse.y <= 0x1C)) {
;
	.dbg	line, "SAUCE/menustates/titlescreen.c", 640
L0163:	lda     _mouse+2
	cmp     #$0D
	bcc     L016B
	cmp     #$1D
	bcs     L016B
;
; if (mouse.x >= 0xD6 && mouse.x <= 0xE4) {
;
	.dbg	line, "SAUCE/menustates/titlescreen.c", 641
	lda     _mouse+3
	cmp     #$D6
	bcc     L016B
	cmp     #$E5
	bcs     L016B
;
; if (all_levels_complete != 0xFC)
;
	.dbg	line, "SAUCE/menustates/titlescreen.c", 642
	ldx     #$00
	lda     _all_levels_complete
	cmp     #$FC
	beq     L016A
;
; sfx_play(sfx_invalid, 0);
;
	.dbg	line, "SAUCE/menustates/titlescreen.c", 643
	lda     #$09
	jsr     __sfx_play
;
; else {
;
	.dbg	line, "SAUCE/menustates/titlescreen.c", 644
	jmp     L016B
;
; menuselection = TITLE_BTN_FUNSETTINGS;
;
	.dbg	line, "SAUCE/menustates/titlescreen.c", 645
L016A:	lda     #$05
	sta     _menuselection
;
; break;
;
	.dbg	line, "SAUCE/menustates/titlescreen.c", 646
	jmp     L001A
;
; if ((joypad1.press & (PAD_START | PAD_A)) && coinCondition) {
;
	.dbg	line, "SAUCE/menustates/titlescreen.c", 662
L016B:	lda     _joypad1+1
	and     #$90
	jeq     L010D
;
; if (menuselection == TITLE_BTN_FUNSETTINGS && all_levels_complete != 0xFC) {
;
	.dbg	line, "SAUCE/menustates/titlescreen.c", 664
	ldx     #$00
	lda     _menuselection
	cmp     #$05
	bne     L016D
	lda     _all_levels_complete
	cmp     #$FC
	bne     L016E
L016D:	txa
	jmp     L001A
;
; sfx_play(sfx_invalid, 0);
;
	.dbg	line, "SAUCE/menustates/titlescreen.c", 665
L016E:	lda     #$09
	jsr     __sfx_play
;
; } else
;
	.dbg	line, "SAUCE/menustates/titlescreen.c", 666
	jmp     L010D
;
; oam_clear();
;
	.dbg	line, "SAUCE/menustates/titlescreen.c", 675
L001A:	jsr     _oam_clear
;
; ppu_wait_nmi();
;
	.dbg	line, "SAUCE/menustates/titlescreen.c", 676
	jsr     _ppu_wait_nmi
;
; tmp7 = newrand() & 255;
;
	.dbg	line, "SAUCE/menustates/titlescreen.c", 677
	jsr     _newrand
	sta     _tmp7
;
; normalorcommlevels = 1;
;
	.dbg	line, "SAUCE/menustates/titlescreen.c", 678
	lda     #$01
	sta     _normalorcommlevels
;
; switch (menuselection) {
;
	.dbg	line, "SAUCE/menustates/titlescreen.c", 679
	lda     _menuselection
;
; };
;
	.dbg	line, "SAUCE/menustates/titlescreen.c", 725
	beq     L0170
	cmp     #$01
	beq     L0171
	cmp     #$02
	beq     L0174
	cmp     #$03
	beq     L0175
	cmp     #$04
	beq     L0176
	cmp     #$05
	beq     L0177
	cmp     #$06
	beq     L0178
	rts
;
; normalorcommlevels = 0;
;
	.dbg	line, "SAUCE/menustates/titlescreen.c", 687
L0170:	sta     _normalorcommlevels
;
; POKE(0x2005, 0x00);
;
	.dbg	line, "SAUCE/menustates/titlescreen.c", 692
L0171:	lda     #$00
	sta     $2005
;
; POKE(0x2005, 0x00);
;
	.dbg	line, "SAUCE/menustates/titlescreen.c", 693
	tax
	sta     $2005
;
; mmc3_disable_irq();
;
	.dbg	line, "SAUCE/menustates/titlescreen.c", 694
	jsr     _mmc3_disable_irq
;
; if (!tmp7) crossPRGBankJump8(playPCM, 1);
;
	.dbg	line, "SAUCE/menustates/titlescreen.c", 696
	lda     _tmp7
	bne     L00EA
	lda     #$01
;
; else crossPRGBankJump8(playPCM, 0);
;
	.dbg	line, "SAUCE/menustates/titlescreen.c", 697
	jmp     L0180
L00EA:	lda     #$00
L0180:	sta     ptr3
	lda     #<_playPCM
	ldx     #>_playPCM
	ldy     #<.bank(_playPCM)
	jsr     crossPRGBankJump
;
; gameState = STATE_LEVELSELECT;
;
	.dbg	line, "SAUCE/menustates/titlescreen.c", 699
	lda     #$06
	sta     _gameState
;
; if (normalorcommlevels) level = LEVEL_COUNT;
;
	.dbg	line, "SAUCE/menustates/titlescreen.c", 701
	lda     _normalorcommlevels
	beq     L0173
	lda     #$19
	sta     _level
;
; else level = 0;
;
	.dbg	line, "SAUCE/menustates/titlescreen.c", 702
	rts
L0173:	sta     _level
;
; return;
;
	.dbg	line, "SAUCE/menustates/titlescreen.c", 704
	rts
;
; gameState = STATE_SOUNDTEST;
;
	.dbg	line, "SAUCE/menustates/titlescreen.c", 708
L0174:	lda     #$04
;
; return;
;
	.dbg	line, "SAUCE/menustates/titlescreen.c", 709
	jmp     L0102
;
; gameState = STATE_SETTINGS;
;
	.dbg	line, "SAUCE/menustates/titlescreen.c", 711
L0175:	lda     #$07
;
; return;
;
	.dbg	line, "SAUCE/menustates/titlescreen.c", 712
	jmp     L0102
;
; tmp2 = 0;
;
	.dbg	line, "SAUCE/menustates/titlescreen.c", 714
L0176:	lda     #$00
	sta     _tmp2
;
; gameState = STATE_INSTRUCTIONS;
;
	.dbg	line, "SAUCE/menustates/titlescreen.c", 715
	lda     #$F1
;
; break;
;
	.dbg	line, "SAUCE/menustates/titlescreen.c", 716
	jmp     L0102
;
; last_gameState = gameState;
;
	.dbg	line, "SAUCE/menustates/titlescreen.c", 718
L0177:	lda     _gameState
	sta     _last_gameState
;
; gameState = STATE_FUNSETTINGS;
;
	.dbg	line, "SAUCE/menustates/titlescreen.c", 719
	lda     #$F0
;
; return;
;
	.dbg	line, "SAUCE/menustates/titlescreen.c", 720
	jmp     L0102
;
; gameState = STATE_CUSTOMIZE;
;
	.dbg	line, "SAUCE/menustates/titlescreen.c", 723
L0178:	lda     #$08
L0102:	sta     _gameState
;
; }
;
	.dbg	line, "SAUCE/menustates/titlescreen.c", 727
	rts

	.dbg	line
.endproc

; ---------------------------------------------------------------
; void __near__ end_level_debug (void)
; ---------------------------------------------------------------

.segment	"XCD_BANK_03"

.proc	_end_level_debug: near

	.dbg	func, "end_level_debug", "00", static, "_end_level_debug"

.segment	"XCD_BANK_03"

;
; END_LEVEL_TIMER = 0;
;
	.dbg	line, "SAUCE/menustates/titlescreen.c", 1100
	lda     #$00
	sta     _END_LEVEL_TIMER
;
; kandokidshack4 = 0;
;
	.dbg	line, "SAUCE/menustates/titlescreen.c", 1101
	tax
	sta     _kandokidshack4
;
; oam_clear();
;
	.dbg	line, "SAUCE/menustates/titlescreen.c", 1102
	jsr     _oam_clear
;
; gameState = STATE_LVLDONE;
;
	.dbg	line, "SAUCE/menustates/titlescreen.c", 1103
	ldx     #$00
	lda     #$03
	sta     _gameState
;
; famistudio_music_stop();
;
	.dbg	line, "SAUCE/menustates/titlescreen.c", 1105
	jmp     _famistudio_music_stop

	.dbg	line
.endproc

; ---------------------------------------------------------------
; void __near__ decrement_was_on_slope (void)
; ---------------------------------------------------------------

.segment	"XCD_BANK_03"

.proc	_decrement_was_on_slope: near

	.dbg	func, "decrement_was_on_slope", "00", static, "_decrement_was_on_slope"

.segment	"XCD_BANK_03"

;
; if (currplayer_was_on_slope_counter) {
;
	.dbg	line, "SAUCE/menustates/titlescreen.c", 1109
	lda     _currplayer_was_on_slope_counter
	beq     L0002
;
; currplayer_was_on_slope_counter--;
;
	.dbg	line, "SAUCE/menustates/titlescreen.c", 1110
	dec     _currplayer_was_on_slope_counter
;
; if (!currplayer_was_on_slope_counter) {
;
	.dbg	line, "SAUCE/menustates/titlescreen.c", 1112
	bne     L0016
;
; if (gamemode == GAMEMODE_CUBE || gamemode == GAMEMODE_BALL) {
;
	.dbg	line, "SAUCE/menustates/titlescreen.c", 1113
	lda     _gamemode
	beq     L0018
	cmp     #$02
	beq     L0018
	lda     #$00
	jmp     L0017
;
; __A__ = (currplayer_slope_type & SLOPE_UPSIDEDOWN) + (256 - SLOPE_UPSIDEDOWN);
;
	.dbg	line, "SAUCE/menustates/titlescreen.c", 1115
L0018:	lda     _currplayer_slope_type
	and     #$08
	clc
	adc     #$F8
;
; __A__ = currplayer_table_idx & ~TBLIDX_GRAV;
;
	.dbg	line, "SAUCE/menustates/titlescreen.c", 1116
	lda     _currplayer_table_idx
	and     #$FE
;
; __asm__ ("adc #0 \n tay");
;
	.dbg	line, "SAUCE/menustates/titlescreen.c", 1117
	adc     #0
	tay
;
; switch (gamemode) {
;
	.dbg	line, "SAUCE/menustates/titlescreen.c", 1119
	lda     _gamemode
;
; }
;
	.dbg	line, "SAUCE/menustates/titlescreen.c", 1139
	beq     L0019
	cmp     #$02
	bne     L001A
;
; switch (currplayer_slope_type) {
;
	.dbg	line, "SAUCE/menustates/titlescreen.c", 1121
	lda     _currplayer_slope_type
;
; }
;
	.dbg	line, "SAUCE/menustates/titlescreen.c", 1129
	cmp     #$06
	beq     L000D
	cmp     #$07
	beq     L000F
	cmp     #$0E
	beq     L000D
	cmp     #$0F
	beq     L000F
	jmp     L001A
;
; currplayer_vel_y += EXIT_SLOPE_BALL_22(get_Y);
;
	.dbg	line, "SAUCE/menustates/titlescreen.c", 1124
L000D:	lda     _EXIT_SLOPE_BALL_22_lo,y
	ldx     _EXIT_SLOPE_BALL_22_hi,y
;
; break;
;
	.dbg	line, "SAUCE/menustates/titlescreen.c", 1125
	jmp     L0021
;
; currplayer_vel_y += EXIT_SLOPE_BALL_66(get_Y);
;
	.dbg	line, "SAUCE/menustates/titlescreen.c", 1128
L000F:	lda     _EXIT_SLOPE_BALL_66_lo,y
	ldx     _EXIT_SLOPE_BALL_66_hi,y
;
; }
;
	.dbg	line, "SAUCE/menustates/titlescreen.c", 1129
	jmp     L0021
;
; switch (currplayer_slope_type) {
;
	.dbg	line, "SAUCE/menustates/titlescreen.c", 1132
L0019:	lda     _currplayer_slope_type
;
; }
;
	.dbg	line, "SAUCE/menustates/titlescreen.c", 1137
	cmp     #$06
	beq     L0014
	cmp     #$0E
	bne     L001A
;
; currplayer_vel_y += EXIT_SLOPE_CUBE_22(get_Y);
;
	.dbg	line, "SAUCE/menustates/titlescreen.c", 1135
L0014:	lda     _EXIT_SLOPE_CUBE_22_lo,y
	ldx     _EXIT_SLOPE_CUBE_22_hi,y
L0021:	clc
	adc     _currplayer_vel_y
	sta     _currplayer_vel_y
	txa
	adc     _currplayer_vel_y+1
	sta     _currplayer_vel_y+1
;
; currplayer_slope_type = 0;
;
	.dbg	line, "SAUCE/menustates/titlescreen.c", 1141
L001A:	lda     #$00
;
; } else {
;
	.dbg	line, "SAUCE/menustates/titlescreen.c", 1143
	jmp     L0017
;
; currplayer_last_slope_type = 0;
;
	.dbg	line, "SAUCE/menustates/titlescreen.c", 1144
L0002:	sta     _currplayer_last_slope_type
;
; currplayer_slope_type = 0;
;
	.dbg	line, "SAUCE/menustates/titlescreen.c", 1145
L0017:	sta     _currplayer_slope_type
;
; }
;
	.dbg	line, "SAUCE/menustates/titlescreen.c", 1147
L0016:	rts

	.dbg	line
.endproc

; ---------------------------------------------------------------
; void __near__ code_checker (void)
; ---------------------------------------------------------------

.segment	"XCD_BANK_05"

.proc	_code_checker: near

	.dbg	func, "code_checker", "00", static, "_code_checker"

.segment	"XCD_BANK_05"

;
; last_gameState = gameState;
;
	.dbg	line, "SAUCE/menustates/bgmtest.c", 154
	lda     _gameState
	sta     _last_gameState
;
; sfx_play(sfx_achievement_get, 0);
;
	.dbg	line, "SAUCE/menustates/bgmtest.c", 155
	ldx     #$00
	lda     #$0A
	jsr     __sfx_play
;
; tmp3 = 1;
;
	.dbg	line, "SAUCE/menustates/bgmtest.c", 156
	lda     #$01
	sta     _tmp3
;
; if (song == 0x9 && sfx == 0x2 && kandokidshack3 == 0) {
;
	.dbg	line, "SAUCE/menustates/bgmtest.c", 159
	lda     _song
	cmp     #$09
	bne     L000F
	lda     _tmp4
	cmp     #$02
	bne     L000F
	lda     _kandokidshack3
	bne     L000F
;
; kandokidshack3++;
;
	.dbg	line, "SAUCE/menustates/bgmtest.c", 160
	inc     _kandokidshack3
;
; tmp3--;
;
	.dbg	line, "SAUCE/menustates/bgmtest.c", 161
	dec     _tmp3
;
; else if (song == 1 && sfx == 7 && kandokidshack3 == 1) {
;
	.dbg	line, "SAUCE/menustates/bgmtest.c", 164
	jmp     L000B
L000F:	lda     _song
	cmp     #$01
	bne     L0010
	lda     _tmp4
	cmp     #$07
	bne     L0010
	lda     _kandokidshack3
	cmp     #$01
	beq     L0013
L0010:	lda     #$00
	jmp     L0015
;
; all_levels_complete = 0xFC;
;
	.dbg	line, "SAUCE/menustates/bgmtest.c", 165
L0013:	lda     #$FC
	sta     _all_levels_complete
;
; gameState = STATE_FUNSETTINGS;
;
	.dbg	line, "SAUCE/menustates/bgmtest.c", 166
	lda     #$F0
	sta     _gameState
;
; tmp3--;
;
	.dbg	line, "SAUCE/menustates/bgmtest.c", 167
	dec     _tmp3
;
; else kandokidshack3 = 0;
;
	.dbg	line, "SAUCE/menustates/bgmtest.c", 169
	jmp     L000B
L0015:	sta     _kandokidshack3
;
; if (tmp3) sfx_play(sfx_invalid, 0); 
;
	.dbg	line, "SAUCE/menustates/bgmtest.c", 182
L000B:	lda     _tmp3
	beq     L000C
	ldx     #$00
	lda     #$09
	jmp     __sfx_play
;
; }
;
	.dbg	line, "SAUCE/menustates/bgmtest.c", 183
L000C:	rts

	.dbg	line
.endproc

; ---------------------------------------------------------------
; void __near__ state_soundtest (void)
; ---------------------------------------------------------------

.segment	"XCD_BANK_05"

.proc	_state_soundtest: near

	.dbg	func, "state_soundtest", "00", static, "_state_soundtest"

.segment	"XCD_BANK_05"

;
; famistudio_music_stop();
;
	.dbg	line, "SAUCE/menustates/bgmtest.c", 13
	jsr     _famistudio_music_stop
;
; music_update();
;
	.dbg	line, "SAUCE/menustates/bgmtest.c", 14
	jsr     _music_update
;
; pal_bg(paletteMenu);
;
	.dbg	line, "SAUCE/menustates/bgmtest.c", 16
	lda     #<(_paletteMenu)
	ldx     #>(_paletteMenu)
	jsr     _pal_bg
;
; vram_adr(NAMETABLE_A);
;
	.dbg	line, "SAUCE/menustates/bgmtest.c", 18
	lda     #$20
	sta     $2006
	lda     #$00
	sta     $2006
;
; vram_unrle(bgmtestscreen);
;
	.dbg	line, "SAUCE/menustates/bgmtest.c", 19
	lda     #<(_bgmtestscreen)
	ldx     #>(_bgmtestscreen)
	jsr     _vram_unrle
;
; song = 0;
;
	.dbg	line, "SAUCE/menustates/bgmtest.c", 21
	lda     #$00
	sta     _song
;
; temptemp6 = 0;  
;
	.dbg	line, "SAUCE/menustates/bgmtest.c", 22
	sta     _temptemp6
;
; sfx = 0;
;
	.dbg	line, "SAUCE/menustates/bgmtest.c", 24
	sta     _tmp4
;
; settingvalue = 0;
;
	.dbg	line, "SAUCE/menustates/bgmtest.c", 25
	sta     _settingvalue
;
; menuMusicCurrentlyPlaying=0;
;
	.dbg	line, "SAUCE/menustates/bgmtest.c", 26
	tax
	sta     _menuMusicCurrentlyPlaying
;
; ppu_on_all();
;
	.dbg	line, "SAUCE/menustates/bgmtest.c", 28
	jsr     _ppu_on_all
;
; pal_fade_in();
;
	.dbg	line, "SAUCE/menustates/bgmtest.c", 30
	ldx     #$04
	lda     #$00
	jsr     __pal_fade_to
;
; ppu_wait_nmi();
;
	.dbg	line, "SAUCE/menustates/bgmtest.c", 34
L0002:	jsr     _ppu_wait_nmi
;
; oam_clear();
;
	.dbg	line, "SAUCE/menustates/bgmtest.c", 35
	jsr     _oam_clear
;
; crossPRGBankJump0(check_if_music_stopped);
;
	.dbg	line, "SAUCE/menustates/bgmtest.c", 36
	lda     #<_check_if_music_stopped
	ldx     #>_check_if_music_stopped
	ldy     #<.bank(_check_if_music_stopped)
	jsr     crossPRGBankJump
	lda     ptr3
	ldx     ptr3+1
;
; mouse_and_cursor();
;
	.dbg	line, "SAUCE/menustates/bgmtest.c", 37
	jsr     _mouse_and_cursor
;
; kandoframecnt++;
;
	.dbg	line, "SAUCE/menustates/bgmtest.c", 39
	inc     _kandoframecnt
;
; if (kandoframecnt & 1 && mouse_timer) mouse_timer--; 
;
	.dbg	line, "SAUCE/menustates/bgmtest.c", 40
	lda     _kandoframecnt
	and     #$01
	beq     L0005
	lda     _mouse_timer
	beq     L0005
	dec     _mouse_timer
;
; if (mouse.left_press) {
;
	.dbg	line, "SAUCE/menustates/bgmtest.c", 41
L0005:	lda     _mouse
	and     #$10
	jeq     L00E2
;
; if ((mouse.x >= 0x63 && mouse.x <= 0x8C)) {
;
	.dbg	line, "SAUCE/menustates/bgmtest.c", 42
	lda     _mouse+3
	cmp     #$63
	bcc     L00A1
	cmp     #$8D
	bcs     L00A1
;
; if (mouse.y >= 0x34 && mouse.y <= 0x3A) {  
;
	.dbg	line, "SAUCE/menustates/bgmtest.c", 43
	lda     _mouse+2
	cmp     #$34
	bcc     L009D
	cmp     #$3B
	bcs     L009D
;
; settingvalue = 0;
;
	.dbg	line, "SAUCE/menustates/bgmtest.c", 44
	lda     #$00
;
; else if ((mouse.y >= 0x6C && mouse.y <= 0x73)) {  
;
	.dbg	line, "SAUCE/menustates/bgmtest.c", 46
	jmp     L008D
L009D:	lda     _mouse+2
	cmp     #$6C
	bcc     L00A1
	cmp     #$74
	bcs     L00A1
;
; settingvalue = 1;
;
	.dbg	line, "SAUCE/menustates/bgmtest.c", 47
	lda     #$01
L008D:	sta     _settingvalue
;
; if ((mouse.x >= 0x2E && mouse.x <= 0xCC)) {
;
	.dbg	line, "SAUCE/menustates/bgmtest.c", 50
L00A1:	lda     _mouse+3
	cmp     #$2E
	bcc     L00AC
	cmp     #$CD
	bcs     L00AC
;
; if ((mouse.y >= 0xB4 && mouse.y <= 0xBB)) {  
;
	.dbg	line, "SAUCE/menustates/bgmtest.c", 51
	lda     _mouse+2
	cmp     #$B4
	bcc     L00A8
	cmp     #$BC
	bcs     L00A8
;
; if (settingvalue == 1) { sfx_play(sfx, 0); }
;
	.dbg	line, "SAUCE/menustates/bgmtest.c", 52
	ldx     #$00
	lda     _settingvalue
	cmp     #$01
	bne     L001F
	lda     _tmp4
	jsr     __sfx_play
;
; else {
;
	.dbg	line, "SAUCE/menustates/bgmtest.c", 53
	jmp     L00A8
;
; if (!temptemp6) { music_play(xbgmlookuptable[song]); temptemp6 = 1; songplaying = 1; }
;
	.dbg	line, "SAUCE/menustates/bgmtest.c", 54
L001F:	lda     _temptemp6
	bne     L0021
	ldy     _song
	lda     _xbgmlookuptable,y
	jsr     _music_play
	lda     #$01
;
; else { famistudio_music_stop(); music_update(); temptemp6 = 0; songplaying = 0; }
;
	.dbg	line, "SAUCE/menustates/bgmtest.c", 55
	jmp     L00E7
L0021:	jsr     _famistudio_music_stop
	jsr     _music_update
	lda     #$00
L00E7:	sta     _temptemp6
	sta     _songplaying
;
; if ((mouse.y >= 0xA4 && mouse.y <= 0xAB)) {
;
	.dbg	line, "SAUCE/menustates/bgmtest.c", 58
L00A8:	lda     _mouse+2
	cmp     #$A4
	bcc     L00AC
	cmp     #$AC
	bcs     L00AC
;
; menu_music = song; sfx_play(sfx_orbs, 0);
;
	.dbg	line, "SAUCE/menustates/bgmtest.c", 59
	lda     _song
	sta     _menu_music
	ldx     #$00
	lda     #$05
	jsr     __sfx_play
;
; if ((mouse.x >= 0x56 && mouse.x <= 0xA5) && (mouse.y >= 0x24 && mouse.y <= 0x2B)) {  
;
	.dbg	line, "SAUCE/menustates/bgmtest.c", 62
L00AC:	lda     _mouse+3
	cmp     #$56
	bcc     L00B7
	cmp     #$A6
	bcs     L00B7
	lda     _mouse+2
	cmp     #$24
	bcc     L00B7
	ldx     #$00
	lda     _mouse+2
	cmp     #$2C
	bcs     L00B7
	lda     #$01
;
; code_checker();
;
	.dbg	line, "SAUCE/menustates/bgmtest.c", 63
	jsr     _code_checker
;
; if (gameState == STATE_FUNSETTINGS) return;
;
	.dbg	line, "SAUCE/menustates/bgmtest.c", 64
	lda     _gameState
	cmp     #$F0
	bne     L00B7
;
; }
;
	.dbg	line, "SAUCE/menustates/bgmtest.c", 151
	rts
;
; if ((mouse.y >= 0x4E && mouse.y <= 0x5C)) {
;
	.dbg	line, "SAUCE/menustates/bgmtest.c", 66
L00B7:	lda     _mouse+2
	cmp     #$4E
	bcc     L00C5
	cmp     #$5D
	bcs     L00C5
;
; if ((mouse.x >= 0x24 && mouse.x <= 0x2C)) {  
;
	.dbg	line, "SAUCE/menustates/bgmtest.c", 67
	lda     _mouse+3
	cmp     #$24
	bcc     L00C0
	cmp     #$2D
	bcs     L00C0
;
; if (song == 0) {song = song_max - 1;} else song--; temptemp6 = 0; settingvalue = 0;
;
	.dbg	line, "SAUCE/menustates/bgmtest.c", 68
	lda     _song
	bne     L00BE
	lda     #$25
	sta     _song
	jmp     L00BF
L00BE:	dec     _song
L00BF:	lda     #$00
	sta     _temptemp6
;
; else if ((mouse.x >= 0xCC && mouse.x <= 0xD4)) {  
;
	.dbg	line, "SAUCE/menustates/bgmtest.c", 70
	jmp     L008F
L00C0:	lda     _mouse+3
	cmp     #$CC
	bcc     L00C5
	cmp     #$D5
	bcs     L00C5
;
; temptemp6 = 0; song++; if (song == song_max) {song = 0;} settingvalue = 0;
;
	.dbg	line, "SAUCE/menustates/bgmtest.c", 71
	lda     #$00
	sta     _temptemp6
	inc     _song
	lda     _song
	cmp     #$26
	bne     L00C4
	lda     #$00
	sta     _song
L00C4:	lda     #$00
L008F:	sta     _settingvalue
;
; if ((mouse.y >= 0x86 && mouse.y <= 0x93)) {
;
	.dbg	line, "SAUCE/menustates/bgmtest.c", 74
L00C5:	lda     _mouse+2
	cmp     #$86
	bcc     L00D3
	cmp     #$94
	bcs     L00D3
;
; if ((mouse.x >= 0x24 && mouse.x <= 0x2C)) {  
;
	.dbg	line, "SAUCE/menustates/bgmtest.c", 76
	lda     _mouse+3
	cmp     #$24
	bcc     L00CE
	cmp     #$2D
	bcs     L00CE
;
; if (sfx == 0) {sfx = sfx_max - 1;} else sfx--; settingvalue = 1;
;
	.dbg	line, "SAUCE/menustates/bgmtest.c", 77
	lda     _tmp4
	bne     L00CC
	lda     #$0A
	jmp     L00E8
L00CC:	dec     _tmp4
;
; else if ((mouse.x >= 0xCC && mouse.x <= 0xD4)) {  
;
	.dbg	line, "SAUCE/menustates/bgmtest.c", 79
	jmp     L00D2
L00CE:	lda     _mouse+3
	cmp     #$CC
	bcc     L00D3
	cmp     #$D5
	bcs     L00D3
;
; sfx++; if (sfx == sfx_max) {sfx= 0;} settingvalue = 1;
;
	.dbg	line, "SAUCE/menustates/bgmtest.c", 80
	inc     _tmp4
	lda     _tmp4
	cmp     #$0B
	bne     L00D2
	lda     #$00
L00E8:	sta     _tmp4
L00D2:	lda     #$01
	sta     _settingvalue
;
; if ((mouse.x >= 0x35 && mouse.x <= 0xC4)) {
;
	.dbg	line, "SAUCE/menustates/bgmtest.c", 83
L00D3:	lda     _mouse+3
	cmp     #$35
	bcc     L00E2
	cmp     #$C5
	bcs     L00E2
;
; if (mouse.y >= 0xC4 && mouse.y <= 0xCD) {  
;
	.dbg	line, "SAUCE/menustates/bgmtest.c", 84
	lda     _mouse+2
	cmp     #$C4
	bcc     L00DA
	cmp     #$CE
	bcs     L00DA
;
; tmp3--;   
;
	.dbg	line, "SAUCE/menustates/bgmtest.c", 85
	dec     _tmp3
;
; one_vram_buffer(' ', NTADR_A(11, 7));
;
	.dbg	line, "SAUCE/menustates/bgmtest.c", 86
	lda     #$FF
	sta     sreg+0
	ldx     #$20
	lda     #$EB
	jsr     __one_vram_buffer
;
; one_vram_buffer(' ', NTADR_A(11, 14));
;
	.dbg	line, "SAUCE/menustates/bgmtest.c", 87
	lda     #$FF
	sta     sreg+0
	ldx     #$21
	lda     #$CB
	jsr     __one_vram_buffer
;
; menuMusicCurrentlyPlaying = 1;
;
	.dbg	line, "SAUCE/menustates/bgmtest.c", 88
	lda     #$01
	sta     _menuMusicCurrentlyPlaying
;
; gameState = STATE_MENU;
;
	.dbg	line, "SAUCE/menustates/bgmtest.c", 89
	sta     _gameState
;
; return;
;
	.dbg	line, "SAUCE/menustates/bgmtest.c", 90
	rts
;
; else if (mouse.y >= 0x3D && mouse.y <= 0x64) {
;
	.dbg	line, "SAUCE/menustates/bgmtest.c", 92
L00DA:	lda     _mouse+2
	cmp     #$3D
	bcc     L00DE
	ldx     #$00
	lda     _mouse+2
	cmp     #$65
	bcs     L00DE
;
; if (!temptemp6) { music_play(xbgmlookuptable[song]); temptemp6 = 1; songplaying = 1; }
;
	.dbg	line, "SAUCE/menustates/bgmtest.c", 93
	lda     _temptemp6
	bne     L0060
	ldy     _song
	lda     _xbgmlookuptable,y
	jsr     _music_play
	lda     #$01
	sta     _temptemp6
	sta     _songplaying
;
; else { famistudio_music_stop(); music_update(); temptemp6 = 0; songplaying = 0; }
;
	.dbg	line, "SAUCE/menustates/bgmtest.c", 94
	jmp     L00E2
L0060:	jsr     _famistudio_music_stop
	jsr     _music_update
	lda     #$00
	sta     _temptemp6
	sta     _songplaying
;
; else if (mouse.y >= 0x75 && mouse.y <= 0x9C) {
;
	.dbg	line, "SAUCE/menustates/bgmtest.c", 96
	jmp     L00E2
L00DE:	lda     _mouse+2
	cmp     #$75
	bcc     L00E2
	cmp     #$9D
	bcs     L00E2
;
; sfx_play(sfx, 0);
;
	.dbg	line, "SAUCE/menustates/bgmtest.c", 97
	ldx     #$00
	lda     _tmp4
	jsr     __sfx_play
;
; __A__ = idx16_load_hi_NOC(xbgmtextsUpper, song);
;
	.dbg	line, "SAUCE/menustates/bgmtest.c", 101
L00E2:	lda     _song
	asl     a
	tay
;
; if (__A__) draw_padded_text(xbgmtextsUpper[song], xbgmtextsUpperSize[song], 18, NTADR_A(7, 8));
;
	.dbg	line, "SAUCE/menustates/bgmtest.c", 102
	ldx     _xbgmtextsUpper+1,y
	beq     L0068
	ldx     #$00
	lda     _song
	asl     a
	bcc     L0091
	inx
	clc
L0091:	adc     #<(_xbgmtextsUpper)
	sta     ptr1
	txa
	adc     #>(_xbgmtextsUpper)
	sta     ptr1+1
	ldy     #$01
	lda     (ptr1),y
	tax
	dey
	lda     (ptr1),y
	sta     _xargs
	stx     _xargs+1
	ldy     _song
	lda     _xbgmtextsUpperSize,y
	sta     sreg+1
	lda     #$12
	sta     sreg
	ldx     #$61
	lda     #$07
	jsr     __draw_padded_text
;
; else one_vram_buffer_horz_repeat('$', 17, NTADR_A(7, 8));
;
	.dbg	line, "SAUCE/menustates/bgmtest.c", 103
	jmp     L006A
L0068:	ldx     #$11
	lda     #$FE
	stx     sreg+1
	sta     sreg
	ldx     #$61
	lda     #$07
	jsr     __one_vram_buffer_repeat
;
; __A__ = idx16_load_hi_NOC(xbgmtextsLower, song);
;
	.dbg	line, "SAUCE/menustates/bgmtest.c", 104
L006A:	lda     _song
	asl     a
	tay
;
; if (__A__) draw_padded_text(xbgmtextsLower[song], xbgmtextsLowerSize[song], 18, NTADR_A(7, 9));
;
	.dbg	line, "SAUCE/menustates/bgmtest.c", 105
	ldx     _xbgmtextsLower+1,y
	beq     L006B
	ldx     #$00
	lda     _song
	asl     a
	bcc     L0092
	inx
	clc
L0092:	adc     #<(_xbgmtextsLower)
	sta     ptr1
	txa
	adc     #>(_xbgmtextsLower)
	sta     ptr1+1
	ldy     #$01
	lda     (ptr1),y
	tax
	dey
	lda     (ptr1),y
	sta     _xargs
	stx     _xargs+1
	ldy     _song
	lda     _xbgmtextsLowerSize,y
	sta     sreg+1
	lda     #$12
	sta     sreg
	ldx     #$61
	lda     #$27
	jsr     __draw_padded_text
;
; else one_vram_buffer_horz_repeat('$', 17, NTADR_A(7, 9));
;
	.dbg	line, "SAUCE/menustates/bgmtest.c", 106
	jmp     L006D
L006B:	ldx     #$11
	lda     #$FE
	stx     sreg+1
	sta     sreg
	ldx     #$61
	lda     #$27
	jsr     __one_vram_buffer_repeat
;
; __A__ = idx16_load_hi_NOC(xbgmtextsOriginalArtist, song);
;
	.dbg	line, "SAUCE/menustates/bgmtest.c", 107
L006D:	lda     _song
	asl     a
	tay
;
; if (__A__) draw_padded_text(xbgmtextsOriginalArtist[song], xbgmtextsOriginalArtistSize[song], 18, NTADR_A(7, 14));
;
	.dbg	line, "SAUCE/menustates/bgmtest.c", 108
	ldx     _xbgmtextsOriginalArtist+1,y
	beq     L006E
	ldx     #$00
	lda     _song
	asl     a
	bcc     L0093
	inx
	clc
L0093:	adc     #<(_xbgmtextsOriginalArtist)
	sta     ptr1
	txa
	adc     #>(_xbgmtextsOriginalArtist)
	sta     ptr1+1
	ldy     #$01
	lda     (ptr1),y
	tax
	dey
	lda     (ptr1),y
	sta     _xargs
	stx     _xargs+1
	ldy     _song
	lda     _xbgmtextsOriginalArtistSize,y
	sta     sreg+1
	lda     #$12
	sta     sreg
	ldx     #$61
	lda     #$C7
	jsr     __draw_padded_text
;
; else one_vram_buffer_horz_repeat('$', 17, NTADR_A(7, 14));
;
	.dbg	line, "SAUCE/menustates/bgmtest.c", 109
	jmp     L0070
L006E:	ldx     #$11
	lda     #$FE
	stx     sreg+1
	sta     sreg
	ldx     #$61
	lda     #$C7
	jsr     __one_vram_buffer_repeat
;
; draw_padded_text(sfxtexts[sfx & 0x7F], sfxtextSizes[sfx], 18, NTADR_A(7, 19));
;
	.dbg	line, "SAUCE/menustates/bgmtest.c", 111
L0070:	lda     _tmp4
	asl     a
	tay
	lda     _sfxtexts+1,y
	sta     _xargs+1
	lda     _sfxtexts,y
	sta     _xargs
	ldy     _tmp4
	lda     _sfxtextSizes,y
	sta     sreg+1
	lda     #$12
	sta     sreg
	ldx     #$62
	lda     #$67
	jsr     __draw_padded_text
;
; if (settingvalue == 0) {
;
	.dbg	line, "SAUCE/menustates/bgmtest.c", 114
	ldx     #$00
	lda     _settingvalue
	jne     L00E5
;
; one_vram_buffer('c', NTADR_A(11, 6));
;
	.dbg	line, "SAUCE/menustates/bgmtest.c", 115
	lda     #$9F
	sta     sreg+0
	ldx     #$20
	lda     #$CB
	jsr     __one_vram_buffer
;
; one_vram_buffer(' ', NTADR_A(11, 17));
;
	.dbg	line, "SAUCE/menustates/bgmtest.c", 116
	lda     #$FF
	sta     sreg+0
	ldx     #$22
	lda     #$2B
	jsr     __one_vram_buffer
;
; if (joypad1.press_right) { song++; temptemp6 = 0; if (song == song_max) {song = 0;} }
;
	.dbg	line, "SAUCE/menustates/bgmtest.c", 117
	lda     _joypad1+1
	and     #$01
	beq     L0074
	inc     _song
	lda     #$00
	sta     _temptemp6
	tax
	lda     _song
	cmp     #$26
	bne     L0074
	stx     _song
;
; if (joypad1.press_left) { if (song == 0) {song = song_max - 1;} else song--; temptemp6 = 0; }
;
	.dbg	line, "SAUCE/menustates/bgmtest.c", 118
L0074:	lda     _joypad1+1
	and     #$02
	beq     L0075
	lda     _song
	bne     L00E3
	tax
	lda     #$25
	sta     _song
	jmp     L00E4
L00E3:	dec     _song
	ldx     #$00
L00E4:	stx     _temptemp6
;
; if (joypad1.press_a) {
;
	.dbg	line, "SAUCE/menustates/bgmtest.c", 119
L0075:	lda     _joypad1+1
	and     #$80
	jeq     L0083
;
; if (!temptemp6) { music_play(xbgmlookuptable[song]); temptemp6 = 1; songplaying = 1; }
;
	.dbg	line, "SAUCE/menustates/bgmtest.c", 120
	lda     _temptemp6
	bne     L0079
	ldy     _song
	lda     _xbgmlookuptable,y
	jsr     _music_play
	lda     #$01
	sta     _temptemp6
	ldx     #$00
	sta     _songplaying
;
; else { famistudio_music_stop(); music_update(); temptemp6 = 0; songplaying = 0; }
;
	.dbg	line, "SAUCE/menustates/bgmtest.c", 121
	jmp     L0083
L0079:	jsr     _famistudio_music_stop
	jsr     _music_update
	lda     #$00
	sta     _temptemp6
	tax
	sta     _songplaying
;
; else if (settingvalue == 1) {
;
	.dbg	line, "SAUCE/menustates/bgmtest.c", 124
	jmp     L0083
L00E5:	lda     _settingvalue
	cmp     #$01
	bne     L0083
;
; one_vram_buffer(' ', NTADR_A(11, 6));
;
	.dbg	line, "SAUCE/menustates/bgmtest.c", 125
	lda     #$FF
	sta     sreg+0
	ldx     #$20
	lda     #$CB
	jsr     __one_vram_buffer
;
; one_vram_buffer('c', NTADR_A(11, 17));
;
	.dbg	line, "SAUCE/menustates/bgmtest.c", 126
	lda     #$9F
	sta     sreg+0
	ldx     #$22
	lda     #$2B
	jsr     __one_vram_buffer
;
; if (joypad1.press_right) { sfx++; if (sfx == sfx_max) {sfx= 0;} };
;
	.dbg	line, "SAUCE/menustates/bgmtest.c", 127
	lda     _joypad1+1
	and     #$01
	beq     L007F
	inc     _tmp4
	ldx     #$00
	lda     _tmp4
	cmp     #$0B
	bne     L007F
	stx     _tmp4
;
; if (joypad1.press_left) { if (sfx == 0) {sfx = sfx_max - 1;} else sfx--; }
;
	.dbg	line, "SAUCE/menustates/bgmtest.c", 128
L007F:	lda     _joypad1+1
	and     #$02
	beq     L0082
	ldx     #$00
	lda     _tmp4
	bne     L00E6
	lda     #$0A
	sta     _tmp4
	jmp     L0082
L00E6:	dec     _tmp4
;
; if (joypad1.press_a) sfx_play(sfx, 0);
;
	.dbg	line, "SAUCE/menustates/bgmtest.c", 129
L0082:	lda     _joypad1+1
	and     #$80
	beq     L0083
	ldx     #$00
	lda     _tmp4
	jsr     __sfx_play
;
; if (joypad1.press_down) settingvalue ^= 1;
;
	.dbg	line, "SAUCE/menustates/bgmtest.c", 132
L0083:	lda     _joypad1+1
	and     #$04
	beq     L0084
	ldx     #$00
	lda     _settingvalue
	eor     #$01
	sta     _settingvalue
;
; if (joypad1.press_up) settingvalue ^= 1;
;
	.dbg	line, "SAUCE/menustates/bgmtest.c", 133
L0084:	lda     _joypad1+1
	and     #$08
	beq     L0085
	ldx     #$00
	lda     _settingvalue
	eor     #$01
	sta     _settingvalue
;
; if (joypad1.press_select) { menu_music = song; sfx_play(sfx_orbs, 0); }
;
	.dbg	line, "SAUCE/menustates/bgmtest.c", 135
L0085:	lda     _joypad1+1
	and     #$20
	beq     L0086
	lda     _song
	sta     _menu_music
	ldx     #$00
	lda     #$05
	jsr     __sfx_play
;
; if (joypad1.press_b) {
;
	.dbg	line, "SAUCE/menustates/bgmtest.c", 136
L0086:	lda     _joypad1+1
	and     #$40
	beq     L0087
;
; tmp3--;   
;
	.dbg	line, "SAUCE/menustates/bgmtest.c", 137
	dec     _tmp3
;
; one_vram_buffer(' ', NTADR_A(11, 6));
;
	.dbg	line, "SAUCE/menustates/bgmtest.c", 138
	lda     #$FF
	sta     sreg+0
	ldx     #$20
	lda     #$CB
	jsr     __one_vram_buffer
;
; one_vram_buffer(' ', NTADR_A(11, 17));
;
	.dbg	line, "SAUCE/menustates/bgmtest.c", 139
	lda     #$FF
	sta     sreg+0
	ldx     #$22
	lda     #$2B
	jsr     __one_vram_buffer
;
; menuMusicCurrentlyPlaying = 1;
;
	.dbg	line, "SAUCE/menustates/bgmtest.c", 140
	lda     #$01
	sta     _menuMusicCurrentlyPlaying
;
; gameState = STATE_MENU;
;
	.dbg	line, "SAUCE/menustates/bgmtest.c", 141
	sta     _gameState
;
; return;
;
	.dbg	line, "SAUCE/menustates/bgmtest.c", 142
	rts
;
; if (joypad1.press_start) {
;
	.dbg	line, "SAUCE/menustates/bgmtest.c", 146
L0087:	lda     _joypad1+1
	and     #$10
	jeq     L0002
;
; code_checker();
;
	.dbg	line, "SAUCE/menustates/bgmtest.c", 147
	jsr     _code_checker
;
; if (gameState == STATE_FUNSETTINGS) return;
;
	.dbg	line, "SAUCE/menustates/bgmtest.c", 148
	ldx     #$00
	lda     _gameState
	cmp     #$F0
	jne     L0002
	rts

	.dbg	line
.endproc

; ---------------------------------------------------------------
; void __near__ set_fun_settings (void)
; ---------------------------------------------------------------

.segment	"XCD_BANK_06"

.proc	_set_fun_settings: near

	.dbg	func, "set_fun_settings", "00", static, "_set_fun_settings"

.segment	"XCD_BANK_06"

;
; switch (settingvalue) {
;
	.dbg	line, "SAUCE/menustates/funsettings.c", 160
	lda     _settingvalue
;
; };
;
	.dbg	line, "SAUCE/menustates/funsettings.c", 177
	beq     L0015
	cmp     #$01
	beq     L0016
	cmp     #$02
	beq     L0017
	cmp     #$03
	beq     L0018
	cmp     #$04
	beq     L001A
	cmp     #$05
	beq     L001B
	cmp     #$06
	beq     L001E
	cmp     #$07
	beq     L0021
	cmp     #$08
	beq     L0022
	rts
;
; case 0x00: invisible ^= 1; break;
;
	.dbg	line, "SAUCE/menustates/funsettings.c", 161
L0015:	lda     _invisible
	eor     #$01
	sta     _invisible
	rts
;
; case 0x01: options ^= platformer; break;
;
	.dbg	line, "SAUCE/menustates/funsettings.c", 162
L0016:	lda     _options
	eor     #$04
	sta     _options
	rts
;
; case 0x02: retro_mode ^= 1; break;
;
	.dbg	line, "SAUCE/menustates/funsettings.c", 163
L0017:	lda     _retro_mode
	eor     #$01
	sta     _retro_mode
	rts
;
; if (discomode & 0x10) discomode = 0;
;
	.dbg	line, "SAUCE/menustates/funsettings.c", 165
L0018:	lda     _discomode
	and     #$10
	beq     L0019
	lda     #$00
	sta     _discomode
;
; else {
;
	.dbg	line, "SAUCE/menustates/funsettings.c", 166
	rts
;
; discomode = discomode << 1;
;
	.dbg	line, "SAUCE/menustates/funsettings.c", 167
L0019:	lda     _discomode
	asl     a
	sta     _discomode
;
; if (discomode == 0) ++discomode;
;
	.dbg	line, "SAUCE/menustates/funsettings.c", 168
	lda     _discomode
	bne     L0003
	inc     _discomode
;
; break;
;
	.dbg	line, "SAUCE/menustates/funsettings.c", 171
	rts
;
; case 0x04: invisblocks ^= 1; break;
;
	.dbg	line, "SAUCE/menustates/funsettings.c", 172
L001A:	lda     _invisblocks
	eor     #$01
	sta     _invisblocks
	rts
;
; case 0x05: cam_seesaw = (cam_seesaw > 0 ? 0 : 1); break;
;
	.dbg	line, "SAUCE/menustates/funsettings.c", 173
L001B:	lda     _cam_seesaw
	beq     L001C
	lda     #$00
	jmp     L001D
L001C:	lda     #$01
L001D:	sta     _cam_seesaw
	rts
;
; case 0x06: gameboy_mode = (gameboy_mode == 8 ? 0 : gameboy_mode + 1); break;
;
	.dbg	line, "SAUCE/menustates/funsettings.c", 174
L001E:	lda     _gameboy_mode
	cmp     #$08
	bne     L001F
	lda     #$00
	jmp     L0020
L001F:	lda     _gameboy_mode
	clc
	adc     #$01
L0020:	sta     _gameboy_mode
	rts
;
; case 0x07: cursedmusic ^= 0x40; break;
;
	.dbg	line, "SAUCE/menustates/funsettings.c", 175
L0021:	lda     _cursedmusic
	eor     #$40
	sta     _cursedmusic
	rts
;
; case 0x08: practice_music_sync ^= 0x01; break;
;
	.dbg	line, "SAUCE/menustates/funsettings.c", 176
L0022:	lda     _practice_music_sync
	eor     #$01
	sta     _practice_music_sync
;
; }
;
	.dbg	line, "SAUCE/menustates/funsettings.c", 178
L0003:	rts

	.dbg	line
.endproc

; ---------------------------------------------------------------
; void __near__ state_funsettings (void)
; ---------------------------------------------------------------

.segment	"XCD_BANK_06"

.proc	_state_funsettings: near

	.dbg	func, "state_funsettings", "00", static, "_state_funsettings"

.segment	"XCD_BANK_06"

;
; mmc3_set_2kb_chr_bank_0(0xFF);
;
	.dbg	line, "SAUCE/menustates/funsettings.c", 21
	lda     #$FF
	jsr     _mmc3_set_2kb_chr_bank_0
;
; mmc3_set_2kb_chr_bank_1(MOUSEBANK);
;
	.dbg	line, "SAUCE/menustates/funsettings.c", 22
	lda     #$60
	jsr     _mmc3_set_2kb_chr_bank_1
;
; pal_bg(paletteMenu);
;
	.dbg	line, "SAUCE/menustates/funsettings.c", 24
	lda     #<(_paletteMenu)
	ldx     #>(_paletteMenu)
	jsr     _pal_bg
;
; vram_adr(NAMETABLE_A);
;
	.dbg	line, "SAUCE/menustates/funsettings.c", 26
	lda     #$20
	sta     $2006
	lda     #$00
	sta     $2006
;
; vram_unrle(funsettingscreen);
;
	.dbg	line, "SAUCE/menustates/funsettings.c", 27
	lda     #<(_funsettingscreen)
	ldx     #>(_funsettingscreen)
	jsr     _vram_unrle
;
; one_vram_buffer('c', NTADR_A(4, 5)); // settingvalue is set to 0 by default 
;
	.dbg	line, "SAUCE/menustates/funsettings.c", 28
	lda     #$9F
	sta     sreg+0
	ldx     #$20
	lda     #$A4
	jsr     __one_vram_buffer
;
; settingvalue = 0; 
;
	.dbg	line, "SAUCE/menustates/funsettings.c", 31
	ldx     #$00
	txa
	sta     _settingvalue
;
; ppu_on_all();
;
	.dbg	line, "SAUCE/menustates/funsettings.c", 33
	jsr     _ppu_on_all
;
; pal_fade_in();
;
	.dbg	line, "SAUCE/menustates/funsettings.c", 35
	ldx     #$04
	lda     #$00
	jsr     __pal_fade_to
;
; ppu_wait_nmi();
;
	.dbg	line, "SAUCE/menustates/funsettings.c", 38
L0002:	jsr     _ppu_wait_nmi
;
; oam_clear();
;
	.dbg	line, "SAUCE/menustates/funsettings.c", 39
	jsr     _oam_clear
;
; crossPRGBankJump0(check_if_music_stopped);
;
	.dbg	line, "SAUCE/menustates/funsettings.c", 40
	lda     #<_check_if_music_stopped
	ldx     #>_check_if_music_stopped
	ldy     #<.bank(_check_if_music_stopped)
	jsr     crossPRGBankJump
	lda     ptr3
	ldx     ptr3+1
;
; mouse_and_cursor();
;
	.dbg	line, "SAUCE/menustates/funsettings.c", 41
	jsr     _mouse_and_cursor
;
; if (mouse.left_press) {
;
	.dbg	line, "SAUCE/menustates/funsettings.c", 43
	lda     _mouse
	and     #$10
	jeq     L0036
;
; if (mouse.x >= 0x2D && mouse.x <= 0xDD) {
;
	.dbg	line, "SAUCE/menustates/funsettings.c", 44
	lda     _mouse+3
	cmp     #$2D
	jcc     L009C
	cmp     #$DE
	jcs     L009C
;
; if (mouse.y >= 0x24 && mouse.y <= 0x2C) {
;
	.dbg	line, "SAUCE/menustates/funsettings.c", 45
	lda     _mouse+2
	cmp     #$24
	bcc     L007C
	cmp     #$2D
	bcs     L007C
;
; settingvalue = 0; set_fun_settings();
;
	.dbg	line, "SAUCE/menustates/funsettings.c", 46
	ldx     #$00
	txa
;
; else if (mouse.y >= 0x34 && mouse.y <= 0x3C) {
;
	.dbg	line, "SAUCE/menustates/funsettings.c", 48
	jmp     L00B7
L007C:	lda     _mouse+2
	cmp     #$34
	bcc     L0080
	cmp     #$3D
	bcs     L0080
;
; settingvalue = 1; set_fun_settings();
;
	.dbg	line, "SAUCE/menustates/funsettings.c", 49
	ldx     #$00
	lda     #$01
;
; else if (mouse.y >= 0x44 && mouse.y <= 0x4C) {
;
	.dbg	line, "SAUCE/menustates/funsettings.c", 51
	jmp     L00B7
L0080:	lda     _mouse+2
	cmp     #$44
	bcc     L0084
	cmp     #$4D
	bcs     L0084
;
; settingvalue = 2; set_fun_settings();
;
	.dbg	line, "SAUCE/menustates/funsettings.c", 52
	ldx     #$00
	lda     #$02
;
; else if (mouse.y >= 0x54 && mouse.y <= 0x5C) {
;
	.dbg	line, "SAUCE/menustates/funsettings.c", 54
	jmp     L00B7
L0084:	lda     _mouse+2
	cmp     #$54
	bcc     L0088
	cmp     #$5D
	bcs     L0088
;
; settingvalue = 3; set_fun_settings();
;
	.dbg	line, "SAUCE/menustates/funsettings.c", 55
	ldx     #$00
	lda     #$03
;
; else if (mouse.y >= 0x64 && mouse.y <= 0x6C) {
;
	.dbg	line, "SAUCE/menustates/funsettings.c", 57
	jmp     L00B7
L0088:	lda     _mouse+2
	cmp     #$64
	bcc     L008C
	cmp     #$6D
	bcs     L008C
;
; settingvalue = 4; set_fun_settings();
;
	.dbg	line, "SAUCE/menustates/funsettings.c", 58
	ldx     #$00
	lda     #$04
;
; else if (mouse.y >= 0x74 && mouse.y <= 0x7C) {
;
	.dbg	line, "SAUCE/menustates/funsettings.c", 60
	jmp     L00B7
L008C:	lda     _mouse+2
	cmp     #$74
	bcc     L0090
	cmp     #$7D
	bcs     L0090
;
; settingvalue = 5; set_fun_settings();
;
	.dbg	line, "SAUCE/menustates/funsettings.c", 61
	ldx     #$00
	lda     #$05
;
; else if (mouse.y >= 0x84 && mouse.y <= 0x8C) {
;
	.dbg	line, "SAUCE/menustates/funsettings.c", 63
	jmp     L00B7
L0090:	lda     _mouse+2
	cmp     #$84
	bcc     L0094
	cmp     #$8D
	bcs     L0094
;
; settingvalue = 6; set_fun_settings();
;
	.dbg	line, "SAUCE/menustates/funsettings.c", 64
	ldx     #$00
	lda     #$06
;
; else if (mouse.y >= 0x94 && mouse.y <= 0x9C) {
;
	.dbg	line, "SAUCE/menustates/funsettings.c", 66
	jmp     L00B7
L0094:	lda     _mouse+2
	cmp     #$94
	bcc     L0098
	cmp     #$9D
	bcs     L0098
;
; settingvalue = 7; set_fun_settings();
;
	.dbg	line, "SAUCE/menustates/funsettings.c", 67
	ldx     #$00
	lda     #$07
;
; else if (mouse.y >= 0xA4 && mouse.y <= 0xAC) {
;
	.dbg	line, "SAUCE/menustates/funsettings.c", 69
	jmp     L00B7
L0098:	lda     _mouse+2
	cmp     #$A4
	bcc     L009C
	cmp     #$AD
	bcs     L009C
;
; settingvalue = 8; set_fun_settings();
;
	.dbg	line, "SAUCE/menustates/funsettings.c", 70
	ldx     #$00
	lda     #$08
L00B7:	sta     _settingvalue
	jsr     _set_fun_settings
;
; if ((mouse.x >= 0x1D && mouse.x <= 0xDD) && (mouse.y >= 0xBC && mouse.y <= 0xC4)) {  
;
	.dbg	line, "SAUCE/menustates/funsettings.c", 74
L009C:	lda     _mouse+3
	cmp     #$1D
	bcc     L0036
	cmp     #$DE
	bcs     L0036
	lda     _mouse+2
	cmp     #$BC
	bcc     L0036
	cmp     #$C5
	bcs     L0036
;
; gameState = last_gameState;
;
	.dbg	line, "SAUCE/menustates/funsettings.c", 75
	lda     _last_gameState
	sta     _gameState
;
; return;
;
	.dbg	line, "SAUCE/menustates/funsettings.c", 76
	rts
;
; if (invisible)  one_vram_buffer('g', NTADR_A(26, 5)); // believe it or not, 
;
	.dbg	line, "SAUCE/menustates/funsettings.c", 80
L0036:	lda     _invisible
	beq     L0040
	lda     #$8F
;
; else  one_vram_buffer('f', NTADR_A(26, 5)); // this is auto optimized by cc65
;
	.dbg	line, "SAUCE/menustates/funsettings.c", 81
	jmp     L00CA
L0040:	lda     #$0F
L00CA:	sta     sreg+0
	ldx     #$20
	lda     #$BA
	jsr     __one_vram_buffer
;
; if ((options & platformer))  one_vram_buffer('g', NTADR_A(26, 7)); // believe it or not, 
;
	.dbg	line, "SAUCE/menustates/funsettings.c", 83
	lda     _options
	and     #$04
	beq     L00A8
	lda     #$8F
;
; else  one_vram_buffer('f', NTADR_A(26, 7)); // this is auto optimized by cc65
;
	.dbg	line, "SAUCE/menustates/funsettings.c", 84
	jmp     L00CB
L00A8:	lda     #$0F
L00CB:	sta     sreg+0
	ldx     #$20
	lda     #$FA
	jsr     __one_vram_buffer
;
; if (retro_mode)  one_vram_buffer('g', NTADR_A(26, 9)); // believe it or not, 
;
	.dbg	line, "SAUCE/menustates/funsettings.c", 86
	lda     _retro_mode
	beq     L0044
	lda     #$8F
;
; else  one_vram_buffer('f', NTADR_A(26, 9)); // this is auto optimized by cc65
;
	.dbg	line, "SAUCE/menustates/funsettings.c", 87
	jmp     L00CC
L0044:	lda     #$0F
L00CC:	sta     sreg+0
	ldx     #$21
	lda     #$3A
	jsr     __one_vram_buffer
;
; if (discomode)  one_vram_buffer('g', NTADR_A(26, 11)); // believe it or not, 
;
	.dbg	line, "SAUCE/menustates/funsettings.c", 89
	lda     _discomode
	beq     L0046
	lda     #$8F
;
; else  one_vram_buffer('f', NTADR_A(26, 11)); // this is auto optimized by cc65
;
	.dbg	line, "SAUCE/menustates/funsettings.c", 90
	jmp     L00CD
L0046:	lda     #$0F
L00CD:	sta     sreg+0
	ldx     #$21
	lda     #$7A
	jsr     __one_vram_buffer
;
; if (invisblocks)  one_vram_buffer('g', NTADR_A(26, 13)); // believe it or not, 
;
	.dbg	line, "SAUCE/menustates/funsettings.c", 92
	lda     _invisblocks
	beq     L0048
	lda     #$8F
;
; else  one_vram_buffer('f', NTADR_A(26, 13)); // this is auto optimized by cc65
;
	.dbg	line, "SAUCE/menustates/funsettings.c", 93
	jmp     L00CE
L0048:	lda     #$0F
L00CE:	sta     sreg+0
	ldx     #$21
	lda     #$BA
	jsr     __one_vram_buffer
;
; if (cam_seesaw)  one_vram_buffer('g', NTADR_A(26, 15)); // believe it or not, 
;
	.dbg	line, "SAUCE/menustates/funsettings.c", 95
	lda     _cam_seesaw
	beq     L004A
	lda     #$8F
;
; else  one_vram_buffer('f', NTADR_A(26, 15)); // this is auto optimized by cc65
;
	.dbg	line, "SAUCE/menustates/funsettings.c", 96
	jmp     L00CF
L004A:	lda     #$0F
L00CF:	sta     sreg+0
	ldx     #$21
	lda     #$FA
	jsr     __one_vram_buffer
;
; if (cursedmusic & 0x40)  one_vram_buffer('g', NTADR_A(26, 19)); // believe it or not, 
;
	.dbg	line, "SAUCE/menustates/funsettings.c", 98
	lda     _cursedmusic
	and     #$40
	beq     L00A9
	lda     #$8F
;
; else  one_vram_buffer('f', NTADR_A(26, 19)); // this is auto optimized by cc65
;
	.dbg	line, "SAUCE/menustates/funsettings.c", 99
	jmp     L00D0
L00A9:	lda     #$0F
L00D0:	sta     sreg+0
	ldx     #$22
	lda     #$7A
	jsr     __one_vram_buffer
;
; if (practice_music_sync)  one_vram_buffer('g', NTADR_A(26, 21)); // believe it or not, 
;
	.dbg	line, "SAUCE/menustates/funsettings.c", 101
	lda     _practice_music_sync
	beq     L004E
	lda     #$8F
;
; else  one_vram_buffer('f', NTADR_A(26, 21)); // this is auto optimized by cc65
;
	.dbg	line, "SAUCE/menustates/funsettings.c", 102
	jmp     L00D1
L004E:	lda     #$0F
L00D1:	sta     sreg+0
	ldx     #$22
	lda     #$BA
	jsr     __one_vram_buffer
;
; __A__ = idx16_load_hi_NOC(gameboytexts, gameboy_mode);
;
	.dbg	line, "SAUCE/menustates/funsettings.c", 108
	lda     _gameboy_mode
	asl     a
	tay
;
; if (__A__) { draw_padded_text(gameboytexts[gameboy_mode & 0x7F], gameboy_text_size[gameboy_mode], 8, NTADR_A(19, 17));  one_vram_buffer('g', NTADR_A(26, 17)); }// believe it or not, 
;
	.dbg	line, "SAUCE/menustates/funsettings.c", 109
	ldx     _gameboytexts+1,y
	beq     L0050
	lda     _gameboy_mode
	asl     a
	tay
	lda     _gameboytexts+1,y
	sta     _xargs+1
	lda     _gameboytexts,y
	sta     _xargs
	ldy     _gameboy_mode
	lda     _gameboy_text_size,y
	sta     sreg+1
	lda     #$08
	sta     sreg
	ldx     #$62
	lda     #$33
	jsr     __draw_padded_text
	lda     #$8F
;
; else { one_vram_buffer_horz_repeat('$', 8, NTADR_A(19, 17)); one_vram_buffer('f', NTADR_A(26, 17)); }
;
	.dbg	line, "SAUCE/menustates/funsettings.c", 110
	jmp     L00D2
L0050:	ldx     #$08
	lda     #$FE
	stx     sreg+1
	sta     sreg
	ldx     #$62
	lda     #$33
	jsr     __one_vram_buffer_repeat
	lda     #$0F
L00D2:	sta     sreg+0
	ldx     #$22
	lda     #$3A
	jsr     __one_vram_buffer
;
; tmp1 = settingvalue;
;
	.dbg	line, "SAUCE/menustates/funsettings.c", 114
	lda     _settingvalue
	sta     _tmp1
;
; if (joypad1.press & (PAD_RIGHT | PAD_DOWN)) {
;
	.dbg	line, "SAUCE/menustates/funsettings.c", 116
	lda     _joypad1+1
	and     #$05
	beq     L00AB
;
; if (settingvalue == 8) { settingvalue = 0; }
;
	.dbg	line, "SAUCE/menustates/funsettings.c", 117
	lda     _settingvalue
	cmp     #$08
	bne     L00AA
	lda     #$00
	sta     _settingvalue
;
; else { settingvalue++;  }
;
	.dbg	line, "SAUCE/menustates/funsettings.c", 118
	jmp     L00AB
L00AA:	inc     _settingvalue
;
; if (joypad1.press & (PAD_LEFT | PAD_UP)) {
;
	.dbg	line, "SAUCE/menustates/funsettings.c", 121
L00AB:	lda     _joypad1+1
	and     #$0A
	beq     L00AD
;
; if (settingvalue == 0) { settingvalue = 8; }
;
	.dbg	line, "SAUCE/menustates/funsettings.c", 122
	lda     _settingvalue
	bne     L00AC
	lda     #$08
	sta     _settingvalue
;
; else { settingvalue--;  }
;
	.dbg	line, "SAUCE/menustates/funsettings.c", 123
	jmp     L00AD
L00AC:	dec     _settingvalue
;
; if (tmp1 != settingvalue) {
;
	.dbg	line, "SAUCE/menustates/funsettings.c", 126
L00AD:	lda     _tmp1
	cmp     _settingvalue
	beq     L00AE
;
; one_vram_buffer(' ', NTADR_A(4, 5)+((tmp1<<8)>>2));
;
	.dbg	line, "SAUCE/menustates/funsettings.c", 129
	lda     #$FF
	sta     sreg+0
	ldx     _tmp1
	lda     #$00
	jsr     asrax2
	clc
	adc     #$A4
	pha
	txa
	adc     #$20
	tax
	pla
	jsr     __one_vram_buffer
;
; one_vram_buffer('c', NTADR_A(4, 5)+((settingvalue<<8)>>2));
;
	.dbg	line, "SAUCE/menustates/funsettings.c", 130
	lda     #$9F
	sta     sreg+0
	ldx     _settingvalue
	lda     #$00
	jsr     asrax2
	clc
	adc     #$A4
	pha
	txa
	adc     #$20
	tax
	pla
	jsr     __one_vram_buffer
;
; one_vram_buffer('X'-0x1B, NTADR_A(26, 11));
;
	.dbg	line, "SAUCE/menustates/funsettings.c", 133
L00AE:	lda     #$DD
	sta     sreg+0
	ldx     #$21
	lda     #$7A
	jsr     __one_vram_buffer
;
; if (discomode & 0x02) { one_vram_buffer('2' - 0x20, NTADR_A(25, 11)); }
;
	.dbg	line, "SAUCE/menustates/funsettings.c", 134
	lda     _discomode
	and     #$02
	beq     L00AF
	lda     #$B2
	sta     sreg+0
	ldx     #$21
	lda     #$79
;
; else if (discomode & 0x04) { one_vram_buffer('3' - 0x20, NTADR_A(25, 11));}
;
	.dbg	line, "SAUCE/menustates/funsettings.c", 135
	jmp     L0075
L00AF:	lda     _discomode
	and     #$04
	beq     L00B0
	lda     #$B3
	sta     sreg+0
	ldx     #$21
	lda     #$79
;
; else if (discomode & 0x08) { one_vram_buffer('4' - 0x20, NTADR_A(25, 11));}
;
	.dbg	line, "SAUCE/menustates/funsettings.c", 136
	jmp     L0075
L00B0:	lda     _discomode
	and     #$08
	beq     L00B1
	lda     #$B4
	sta     sreg+0
	ldx     #$21
	lda     #$79
;
; else if (discomode & 0x10) { one_vram_buffer('5' - 0x20, NTADR_A(25, 11));}
;
	.dbg	line, "SAUCE/menustates/funsettings.c", 137
	jmp     L0075
L00B1:	lda     _discomode
	and     #$10
	beq     L00B2
	lda     #$B5
	sta     sreg+0
	ldx     #$21
	lda     #$79
;
; else if (discomode & 0x01) { one_vram_buffer('1' - 0x20, NTADR_A(25, 11));}
;
	.dbg	line, "SAUCE/menustates/funsettings.c", 138
	jmp     L0075
L00B2:	lda     _discomode
	and     #$01
	beq     L00B3
	lda     #$B1
	sta     sreg+0
	ldx     #$21
	lda     #$79
;
; else { one_vram_buffer(' '-0x01, NTADR_A(25, 11)); one_vram_buffer(0x0F, NTADR_A(26, 11)); }
;
	.dbg	line, "SAUCE/menustates/funsettings.c", 139
	jmp     L0075
L00B3:	lda     #$FE
	sta     sreg+0
	ldx     #$21
	lda     #$79
	jsr     __one_vram_buffer
	lda     #$0F
	sta     sreg+0
	ldx     #$21
	lda     #$7A
L0075:	jsr     __one_vram_buffer
;
; if (joypad1.press & (PAD_START | PAD_A)) {
;
	.dbg	line, "SAUCE/menustates/funsettings.c", 141
	lda     _joypad1+1
	ldx     #$00
	and     #$90
	beq     L0064
;
; set_fun_settings();
;
	.dbg	line, "SAUCE/menustates/funsettings.c", 142
	jsr     _set_fun_settings
;
; if (joypad1.press_b) {
;
	.dbg	line, "SAUCE/menustates/funsettings.c", 145
L0064:	lda     _joypad1+1
	and     #$40
	beq     L0065
;
; gameState = last_gameState;
;
	.dbg	line, "SAUCE/menustates/funsettings.c", 146
	lda     _last_gameState
	sta     _gameState
;
; return;
;
	.dbg	line, "SAUCE/menustates/funsettings.c", 147
	rts
;
; gameboy_check();
;
	.dbg	line, "SAUCE/menustates/funsettings.c", 150
L0065:	ldy     _gameboy_mode
	lda     _gameboy_check_table,y
	jsr     _color_emphasis
;
; kandoframecnt++;
;
	.dbg	line, "SAUCE/menustates/funsettings.c", 153
	inc     _kandoframecnt
;
; if (kandoframecnt & 1 && mouse_timer) mouse_timer--; 
;
	.dbg	line, "SAUCE/menustates/funsettings.c", 154
	lda     _kandoframecnt
	ldx     #$00
	and     #$01
	jeq     L0002
	lda     _mouse_timer
	jeq     L0002
	dec     _mouse_timer
;
; while (1) {
;
	.dbg	line, "SAUCE/menustates/funsettings.c", 37
	jmp     L0002

	.dbg	line
.endproc

; ---------------------------------------------------------------
; void __near__ state_instructions (void)
; ---------------------------------------------------------------

.segment	"XCD_BANK_02"

.proc	_state_instructions: near

	.dbg	func, "state_instructions", "00", static, "_state_instructions"

.segment	"XCD_BANK_02"

;
; oam_clear();
;
	.dbg	line, "SAUCE/menustates/instructions.c", 8
	jsr     _oam_clear
;
; mmc3_set_8kb_chr(MENUBANK);
;
	.dbg	line, "SAUCE/menustates/instructions.c", 10
	lda     #$62
	sta     _xargs
	jsr     __mmc3_set_8kb_chr
;
; mmc3_set_2kb_chr_bank_0(0xFF);
;
	.dbg	line, "SAUCE/menustates/instructions.c", 11
	lda     #$FF
	jsr     _mmc3_set_2kb_chr_bank_0
;
; mmc3_set_2kb_chr_bank_1(MOUSEBANK);
;
	.dbg	line, "SAUCE/menustates/instructions.c", 12
	lda     #$60
	jsr     _mmc3_set_2kb_chr_bank_1
;
; pal_bg(palette_Credits);
;
	.dbg	line, "SAUCE/menustates/instructions.c", 14
	lda     #<(_palette_Credits)
	ldx     #>(_palette_Credits)
	jsr     _pal_bg
;
; vram_adr(NAMETABLE_A);
;
	.dbg	line, "SAUCE/menustates/instructions.c", 16
	lda     #$20
	sta     $2006
	lda     #$00
	sta     $2006
;
; vram_unrle(instructions);
;
	.dbg	line, "SAUCE/menustates/instructions.c", 17
	lda     #<(_instructions)
	ldx     #>(_instructions)
	jsr     _vram_unrle
;
; ppu_on_all();
;
	.dbg	line, "SAUCE/menustates/instructions.c", 19
	jsr     _ppu_on_all
;
; pal_fade_in();
;
	.dbg	line, "SAUCE/menustates/instructions.c", 21
	ldx     #$04
	lda     #$00
	jsr     __pal_fade_to
;
; oam_clear();
;
	.dbg	line, "SAUCE/menustates/instructions.c", 24
L0002:	jsr     _oam_clear
;
; mouse_and_cursor();
;
	.dbg	line, "SAUCE/menustates/instructions.c", 25
	jsr     _mouse_and_cursor
;
; ppu_wait_nmi();
;
	.dbg	line, "SAUCE/menustates/instructions.c", 27
	jsr     _ppu_wait_nmi
;
; newrand();
;
	.dbg	line, "SAUCE/menustates/instructions.c", 29
	jsr     _newrand
;
; kandoframecnt++;
;
	.dbg	line, "SAUCE/menustates/instructions.c", 30
	inc     _kandoframecnt
;
; && !(mouse.status_computed & MOUSE_LEFT_PRESS)
;
	.dbg	line, "SAUCE/menustates/instructions.c", 33
	lda     _joypad1+1
	bne     L000B
	lda     _mouse
	ldx     #$00
	and     #$10
;
; );
;
	.dbg	line, "SAUCE/menustates/instructions.c", 35
	bne     L000B
	lda     #$01
	jmp     L0002
;
; gameState = STATE_MENU;
;
	.dbg	line, "SAUCE/menustates/instructions.c", 36
L000B:	lda     #$01
	sta     _gameState
;
; }
;
	.dbg	line, "SAUCE/menustates/instructions.c", 38
	rts

	.dbg	line
.endproc

; ---------------------------------------------------------------
; void __near__ set_settings (void)
; ---------------------------------------------------------------

.segment	"XCD_BANK_02"

.proc	_set_settings: near

	.dbg	func, "set_settings", "00", static, "_set_settings"

.segment	"XCD_BANK_02"

;
; switch (settingvalue) {
;
	.dbg	line, "SAUCE/menustates/settings.c", 153
	ldx     #$00
	lda     _settingvalue
;
; }
;
	.dbg	line, "SAUCE/menustates/settings.c", 182
	beq     L0019
	cmp     #$01
	beq     L001A
	cmp     #$02
	beq     L001B
	cmp     #$03
	beq     L001C
	cmp     #$04
	beq     L001D
	cmp     #$05
	beq     L001E
	cmp     #$06
	beq     L001F
	cmp     #$07
	beq     L0022
	cmp     #$08
	beq     L0023
	cmp     #$09
	beq     L0014
	rts
;
; twoplayer ^= 1; break;
;
	.dbg	line, "SAUCE/menustates/settings.c", 155
L0019:	lda     _twoplayer
	eor     #$01
	sta     _twoplayer
	rts
;
; options ^= oneptwoplayer; break;
;
	.dbg	line, "SAUCE/menustates/settings.c", 157
L001A:	lda     _options
	eor     #$01
	sta     _options
	rts
;
; options ^= sfxoff; break;
;
	.dbg	line, "SAUCE/menustates/settings.c", 159
L001B:	lda     _options
	eor     #$40
	sta     _options
	rts
;
; options ^= musicoff; if (options & musicoff) { famistudio_music_stop(); music_update(); } else { music_play(xbgmlookuptable[menu_music]); } break;
;
	.dbg	line, "SAUCE/menustates/settings.c", 162
L001C:	lda     _options
	eor     #$80
	sta     _options
	and     #$80
	beq     L0008
	jsr     _famistudio_music_stop
	jmp     _music_update
L0008:	ldy     _menu_music
	lda     _xbgmlookuptable,y
	jmp     _music_play
;
; options ^= jumpsound; break;
;
	.dbg	line, "SAUCE/menustates/settings.c", 167
L001D:	lda     _options
	eor     #$02
	sta     _options
	rts
;
; viseffects ^= 1; if (!viseffects) trails = 0; break;
;
	.dbg	line, "SAUCE/menustates/settings.c", 169
L001E:	lda     _viseffects
	eor     #$01
	sta     _viseffects
	lda     _viseffects
	bne     L0003
	sta     _trails
	rts
;
; trails = trails == 2 ? 0 : trails + 1; break;     
;
	.dbg	line, "SAUCE/menustates/settings.c", 171
L001F:	lda     _trails
	cmp     #$02
	bne     L0020
	lda     #$00
	jmp     L0021
L0020:	lda     _trails
	clc
	adc     #$01
L0021:	sta     _trails
	rts
;
; auto_practicepoints ^= 1; break;
;
	.dbg	line, "SAUCE/menustates/settings.c", 173
L0022:	lda     _auto_practicepoints
	eor     #$01
	sta     _auto_practicepoints
	rts
;
; options ^= fullpalspeed; break;
;
	.dbg	line, "SAUCE/menustates/settings.c", 175
L0023:	lda     _options
	eor     #$10
	sta     _options
	rts
;
; if (joypad1.a && joypad1.press_start) {
;
	.dbg	line, "SAUCE/menustates/settings.c", 177
L0014:	lda     _joypad1
	and     #$80
	beq     L0025
	lda     _joypad1+1
	and     #$10
	bne     L0026
L0025:	rts
L0026:	lda     #$01
;
; setdefaultoptions();
;
	.dbg	line, "SAUCE/menustates/settings.c", 178
	jsr     _setdefaultoptions
;
; __asm__("JMP ($FFFC)"); // restart the game lmao 
;
	.dbg	line, "SAUCE/menustates/settings.c", 179
	jmp     ($FFFC)
;
; } 
;
	.dbg	line, "SAUCE/menustates/settings.c", 183
L0003:	rts

	.dbg	line
.endproc

; ---------------------------------------------------------------
; void __near__ state_settings (void)
; ---------------------------------------------------------------

.segment	"XCD_BANK_02"

.proc	_state_settings: near

	.dbg	func, "state_settings", "00", static, "_state_settings"

.segment	"XCD_BANK_02"

;
; mmc3_set_2kb_chr_bank_0(0xFF);
;
	.dbg	line, "SAUCE/menustates/settings.c", 21
	lda     #$FF
	jsr     _mmc3_set_2kb_chr_bank_0
;
; mmc3_set_2kb_chr_bank_1(MOUSEBANK);
;
	.dbg	line, "SAUCE/menustates/settings.c", 22
	lda     #$60
	jsr     _mmc3_set_2kb_chr_bank_1
;
; pal_bg(paletteSettings);
;
	.dbg	line, "SAUCE/menustates/settings.c", 24
	lda     #<(_paletteSettings)
	ldx     #>(_paletteSettings)
	jsr     _pal_bg
;
; vram_adr(NAMETABLE_A);
;
	.dbg	line, "SAUCE/menustates/settings.c", 26
	lda     #$20
	sta     $2006
	lda     #$00
	sta     $2006
;
; vram_unrle(settingscreen);
;
	.dbg	line, "SAUCE/menustates/settings.c", 27
	lda     #<(_settingscreen)
	ldx     #>(_settingscreen)
	jsr     _vram_unrle
;
; one_vram_buffer('c', NTADR_A(4, firstSettingY)); // settingvalue is set to 0
;
	.dbg	line, "SAUCE/menustates/settings.c", 29
	lda     #$9F
	sta     sreg+0
	ldx     #$20
	lda     #$64
	jsr     __one_vram_buffer
;
; if (framerate == SPEED_NTSC) {
;
	.dbg	line, "SAUCE/menustates/settings.c", 31
	ldx     #$00
	lda     _framerate
	cmp     #$01
	bne     L0079
;
; one_vram_buffer_horz_repeat(0xFF, 27-6+1, NTADR_A(6, firstSettingY+16));
;
	.dbg	line, "SAUCE/menustates/settings.c", 32
	ldx     #$16
	lda     #$FF
	stx     sreg+1
	sta     sreg
	ldx     #$62
	lda     #$66
	jsr     __one_vram_buffer_repeat
;
; settingvalue = 0;
;
	.dbg	line, "SAUCE/menustates/settings.c", 35
	ldx     #$00
L0079:	txa
	sta     _settingvalue
;
; ppu_on_all();
;
	.dbg	line, "SAUCE/menustates/settings.c", 37
	jsr     _ppu_on_all
;
; pal_fade_in();
;
	.dbg	line, "SAUCE/menustates/settings.c", 38
	ldx     #$04
	lda     #$00
	jsr     __pal_fade_to
;
; ppu_wait_nmi();
;
	.dbg	line, "SAUCE/menustates/settings.c", 41
L0003:	jsr     _ppu_wait_nmi
;
; oam_clear();
;
	.dbg	line, "SAUCE/menustates/settings.c", 42
	jsr     _oam_clear
;
; mouse_and_cursor();
;
	.dbg	line, "SAUCE/menustates/settings.c", 43
	jsr     _mouse_and_cursor
;
; if (twoplayer) one_vram_buffer('g', NTADR_A(26, firstSettingY+(SETTINGS_BTN_2PLAYER*2)));
;
	.dbg	line, "SAUCE/menustates/settings.c", 46
	lda     _twoplayer
	beq     L0006
	lda     #$8F
;
; else one_vram_buffer('f', NTADR_A(26, firstSettingY+(SETTINGS_BTN_2PLAYER*2)));
;
	.dbg	line, "SAUCE/menustates/settings.c", 47
	jmp     L00D8
L0006:	lda     #$0F
L00D8:	sta     sreg+0
	ldx     #$20
	lda     #$7A
	jsr     __one_vram_buffer
;
; if (options & oneptwoplayer) one_vram_buffer('g', NTADR_A(26, firstSettingY+(SETTINGS_BTN_P1CTRLP2*2)));
;
	.dbg	line, "SAUCE/menustates/settings.c", 49
	lda     _options
	and     #$01
	beq     L007A
	lda     #$8F
;
; else one_vram_buffer('f', NTADR_A(26, firstSettingY+(SETTINGS_BTN_P1CTRLP2*2)));
;
	.dbg	line, "SAUCE/menustates/settings.c", 50
	jmp     L00D9
L007A:	lda     #$0F
L00D9:	sta     sreg+0
	ldx     #$20
	lda     #$BA
	jsr     __one_vram_buffer
;
; if (options & sfxoff) one_vram_buffer('f', NTADR_A(26, firstSettingY+(SETTINGS_BTN_SFX*2)));
;
	.dbg	line, "SAUCE/menustates/settings.c", 52
	lda     _options
	and     #$40
	beq     L007B
	lda     #$0F
;
; else one_vram_buffer('g', NTADR_A(26, firstSettingY+(SETTINGS_BTN_SFX*2)));
;
	.dbg	line, "SAUCE/menustates/settings.c", 53
	jmp     L00DA
L007B:	lda     #$8F
L00DA:	sta     sreg+0
	ldx     #$20
	lda     #$FA
	jsr     __one_vram_buffer
;
; if (options & musicoff) one_vram_buffer('f', NTADR_A(26, firstSettingY+(SETTINGS_BTN_MUSIC*2)));
;
	.dbg	line, "SAUCE/menustates/settings.c", 55
	lda     _options
	and     #$80
	beq     L007C
	lda     #$0F
;
; else one_vram_buffer('g', NTADR_A(26, firstSettingY+(SETTINGS_BTN_MUSIC*2)));
;
	.dbg	line, "SAUCE/menustates/settings.c", 56
	jmp     L00DB
L007C:	lda     #$8F
L00DB:	sta     sreg+0
	ldx     #$21
	lda     #$3A
	jsr     __one_vram_buffer
;
; if (options & jumpsound) one_vram_buffer('g', NTADR_A(26, firstSettingY+(SETTINGS_BTN_CLICKSFX*2)));
;
	.dbg	line, "SAUCE/menustates/settings.c", 58
	lda     _options
	and     #$02
	beq     L007D
	lda     #$8F
;
; else one_vram_buffer('f', NTADR_A(26, firstSettingY+(SETTINGS_BTN_CLICKSFX*2)));
;
	.dbg	line, "SAUCE/menustates/settings.c", 59
	jmp     L00DC
L007D:	lda     #$0F
L00DC:	sta     sreg+0
	ldx     #$21
	lda     #$7A
	jsr     __one_vram_buffer
;
; if (viseffects) one_vram_buffer('g', NTADR_A(26, firstSettingY+(SETTINGS_BTN_VFX*2)));
;
	.dbg	line, "SAUCE/menustates/settings.c", 61
	lda     _viseffects
	beq     L0010
	lda     #$8F
;
; else one_vram_buffer('f', NTADR_A(26, firstSettingY+(SETTINGS_BTN_VFX*2)));
;
	.dbg	line, "SAUCE/menustates/settings.c", 62
	jmp     L00DD
L0010:	lda     #$0F
L00DD:	sta     sreg+0
	ldx     #$21
	lda     #$BA
	jsr     __one_vram_buffer
;
; if (trails == 1) one_vram_buffer('g', NTADR_A(26, firstSettingY+(SETTINGS_BTN_XTRATRAILS*2)));
;
	.dbg	line, "SAUCE/menustates/settings.c", 64
	lda     _trails
	cmp     #$01
	bne     L007E
	lda     #$8F
;
; else if (trails == 2) one_vram_buffer('*', NTADR_A(26, firstSettingY+(SETTINGS_BTN_XTRATRAILS*2)));
;
	.dbg	line, "SAUCE/menustates/settings.c", 65
	jmp     L00DE
L007E:	lda     _trails
	cmp     #$02
	bne     L007F
	lda     #$8E
;
; else one_vram_buffer('f', NTADR_A(26, firstSettingY+(SETTINGS_BTN_XTRATRAILS*2)));
;
	.dbg	line, "SAUCE/menustates/settings.c", 66
	jmp     L00DE
L007F:	lda     #$0F
L00DE:	sta     sreg+0
	ldx     #$21
	lda     #$FA
	jsr     __one_vram_buffer
;
; if (auto_practicepoints) one_vram_buffer('g', NTADR_A(26, firstSettingY+(SETTINGS_BTN_AUTOCHKPTS*2)));
;
	.dbg	line, "SAUCE/menustates/settings.c", 68
	lda     _auto_practicepoints
	beq     L0016
	lda     #$8F
;
; else one_vram_buffer('f', NTADR_A(26, firstSettingY+(SETTINGS_BTN_AUTOCHKPTS*2)));
;
	.dbg	line, "SAUCE/menustates/settings.c", 69
	jmp     L00DF
L0016:	lda     #$0F
L00DF:	sta     sreg+0
	ldx     #$22
	lda     #$3A
	jsr     __one_vram_buffer
;
; if (framerate != SPEED_NTSC) {
;
	.dbg	line, "SAUCE/menustates/settings.c", 71
	lda     _framerate
	cmp     #$01
	beq     L0081
;
; if (options & fullpalspeed) one_vram_buffer('g', NTADR_A(26, firstSettingY+(SETTINGS_BTN_PALFULLSPD*2)));
;
	.dbg	line, "SAUCE/menustates/settings.c", 72
	lda     _options
	and     #$10
	beq     L0080
	lda     #$8F
;
; else one_vram_buffer('f', NTADR_A(26, firstSettingY+(SETTINGS_BTN_PALFULLSPD*2)));
;
	.dbg	line, "SAUCE/menustates/settings.c", 73
	jmp     L00E0
L0080:	lda     #$0F
L00E0:	sta     sreg+0
	ldx     #$22
	lda     #$7A
	jsr     __one_vram_buffer
;
; tmp1 = settingvalue;
;
	.dbg	line, "SAUCE/menustates/settings.c", 76
L0081:	lda     _settingvalue
	sta     _tmp1
;
; if (mouse.left_press) {
;
	.dbg	line, "SAUCE/menustates/settings.c", 78
	lda     _mouse
	and     #$10
	jeq     L00B3
;
; if (mouse.x >= 0x2D && mouse.x <= 0xDD) {
;
	.dbg	line, "SAUCE/menustates/settings.c", 79
	lda     _mouse+3
	cmp     #$2D
	jcc     L00A8
	cmp     #$DE
	jcs     L00A8
;
; if (mouse.y >= 0x14 && mouse.y <= 0x1C) {
;
	.dbg	line, "SAUCE/menustates/settings.c", 80
	lda     _mouse+2
	cmp     #$14
	bcc     L0088
	cmp     #$1D
	bcs     L0088
;
; settingvalue = 0; set_settings();
;
	.dbg	line, "SAUCE/menustates/settings.c", 81
	ldx     #$00
	txa
;
; } else if (mouse.y >= 0x24 && mouse.y <= 0x2C) {
;
	.dbg	line, "SAUCE/menustates/settings.c", 82
	jmp     L00CE
L0088:	lda     _mouse+2
	cmp     #$24
	bcc     L008C
	cmp     #$2D
	bcs     L008C
;
; settingvalue = 1; set_settings();
;
	.dbg	line, "SAUCE/menustates/settings.c", 83
	ldx     #$00
	lda     #$01
;
; } else if (mouse.y >= 0x34 && mouse.y <= 0x3C) {
;
	.dbg	line, "SAUCE/menustates/settings.c", 84
	jmp     L00CE
L008C:	lda     _mouse+2
	cmp     #$34
	bcc     L0090
	cmp     #$3D
	bcs     L0090
;
; settingvalue = 2; set_settings();
;
	.dbg	line, "SAUCE/menustates/settings.c", 85
	ldx     #$00
	lda     #$02
;
; } else if (mouse.y >= 0x44 && mouse.y <= 0x4C) {
;
	.dbg	line, "SAUCE/menustates/settings.c", 86
	jmp     L00CE
L0090:	lda     _mouse+2
	cmp     #$44
	bcc     L0094
	cmp     #$4D
	bcs     L0094
;
; settingvalue = 3; set_settings();
;
	.dbg	line, "SAUCE/menustates/settings.c", 87
	ldx     #$00
	lda     #$03
;
; } else if (mouse.y >= 0x54 && mouse.y <= 0x5C) {
;
	.dbg	line, "SAUCE/menustates/settings.c", 88
	jmp     L00CE
L0094:	lda     _mouse+2
	cmp     #$54
	bcc     L0098
	cmp     #$5D
	bcs     L0098
;
; settingvalue = 4; set_settings();
;
	.dbg	line, "SAUCE/menustates/settings.c", 89
	ldx     #$00
	lda     #$04
;
; } else if (mouse.y >= 0x64 && mouse.y <= 0x6C) {
;
	.dbg	line, "SAUCE/menustates/settings.c", 90
	jmp     L00CE
L0098:	lda     _mouse+2
	cmp     #$64
	bcc     L009C
	cmp     #$6D
	bcs     L009C
;
; settingvalue = 5; set_settings();
;
	.dbg	line, "SAUCE/menustates/settings.c", 91
	ldx     #$00
	lda     #$05
;
; } else if (mouse.y >= 0x74 && mouse.y <= 0x7C) {
;
	.dbg	line, "SAUCE/menustates/settings.c", 92
	jmp     L00CE
L009C:	lda     _mouse+2
	cmp     #$74
	bcc     L00A0
	cmp     #$7D
	bcs     L00A0
;
; settingvalue = 6; set_settings();
;
	.dbg	line, "SAUCE/menustates/settings.c", 93
	ldx     #$00
	lda     #$06
;
; } else if (mouse.y >= 0x84 && mouse.y <= 0x8C) {
;
	.dbg	line, "SAUCE/menustates/settings.c", 94
	jmp     L00CE
L00A0:	lda     _mouse+2
	cmp     #$84
	bcc     L00A4
	cmp     #$8D
	bcs     L00A4
;
; settingvalue = 7; set_settings();
;
	.dbg	line, "SAUCE/menustates/settings.c", 95
	ldx     #$00
	lda     #$07
;
; } else if (mouse.y >= 0x94 && mouse.y <= 0x9C) {
;
	.dbg	line, "SAUCE/menustates/settings.c", 96
	jmp     L00CE
L00A4:	lda     _mouse+2
	cmp     #$94
	bcc     L00A8
	cmp     #$9D
	bcs     L00A8
;
; settingvalue = 8; set_settings();
;
	.dbg	line, "SAUCE/menustates/settings.c", 97
	ldx     #$00
	lda     #$08
L00CE:	sta     _settingvalue
	jsr     _set_settings
;
; if ((mouse.x >= 0x1D && mouse.x <= 0xDD) && (mouse.y >= 0xBC && mouse.y <= 0xC4)) {  
;
	.dbg	line, "SAUCE/menustates/settings.c", 100
L00A8:	lda     _mouse+3
	cmp     #$1D
	bcc     L00B3
	cmp     #$DE
	bcs     L00B3
	lda     _mouse+2
	cmp     #$BC
	bcc     L00B3
	cmp     #$C5
	jcc     L0004
;
; if (joypad1.press & (PAD_RIGHT | PAD_DOWN)) {
;
	.dbg	line, "SAUCE/menustates/settings.c", 106
L00B3:	lda     _joypad1+1
	and     #$05
	beq     L00B8
;
; if (settingvalue == settingCount)
;
	.dbg	line, "SAUCE/menustates/settings.c", 107
	lda     _settingvalue
	cmp     #$09
	bne     L00B4
;
; settingvalue = 0;
;
	.dbg	line, "SAUCE/menustates/settings.c", 108
	lda     #$00
	sta     _settingvalue
;
; else if (framerate == SPEED_NTSC && settingvalue == SETTINGS_BTN_PALFULLSPD-1)
;
	.dbg	line, "SAUCE/menustates/settings.c", 109
	jmp     L00B8
L00B4:	lda     _framerate
	cmp     #$01
	bne     L00B7
	lda     _settingvalue
	cmp     #$07
	bne     L00B7
;
; settingvalue = SETTINGS_BTN_PALFULLSPD+1; // Skip full PAL speed on NTSC
;
	.dbg	line, "SAUCE/menustates/settings.c", 110
	lda     #$09
	sta     _settingvalue
;
; else
;
	.dbg	line, "SAUCE/menustates/settings.c", 111
	jmp     L00B8
;
; settingvalue++;
;
	.dbg	line, "SAUCE/menustates/settings.c", 112
L00B7:	inc     _settingvalue
;
; if (joypad1.press & (PAD_LEFT | PAD_UP)) {
;
	.dbg	line, "SAUCE/menustates/settings.c", 115
L00B8:	lda     _joypad1+1
	and     #$0A
	beq     L00BD
;
; if (settingvalue == 0)
;
	.dbg	line, "SAUCE/menustates/settings.c", 116
	lda     _settingvalue
	bne     L00B9
;
; settingvalue = settingCount;
;
	.dbg	line, "SAUCE/menustates/settings.c", 117
	lda     #$09
	sta     _settingvalue
;
; else if (framerate == SPEED_NTSC && settingvalue == SETTINGS_BTN_PALFULLSPD+1)
;
	.dbg	line, "SAUCE/menustates/settings.c", 118
	jmp     L00BD
L00B9:	lda     _framerate
	cmp     #$01
	bne     L00BC
	lda     _settingvalue
	cmp     #$09
	bne     L00BC
;
; settingvalue = SETTINGS_BTN_PALFULLSPD-1; // Skip full PAL speed on NTSC
;
	.dbg	line, "SAUCE/menustates/settings.c", 119
	lda     #$07
	sta     _settingvalue
;
; else
;
	.dbg	line, "SAUCE/menustates/settings.c", 120
	jmp     L00BD
;
; settingvalue--;
;
	.dbg	line, "SAUCE/menustates/settings.c", 121
L00BC:	dec     _settingvalue
;
; if (tmp1 != settingvalue) {
;
	.dbg	line, "SAUCE/menustates/settings.c", 124
L00BD:	lda     _tmp1
	cmp     _settingvalue
	beq     L00BE
;
; one_vram_buffer(' ', NTADR_A(4, firstSettingY)+(  (tmp1<<8)>>2));
;
	.dbg	line, "SAUCE/menustates/settings.c", 127
	lda     #$FF
	sta     sreg+0
	ldx     _tmp1
	lda     #$00
	jsr     asrax2
	clc
	adc     #$64
	pha
	txa
	adc     #$20
	tax
	pla
	jsr     __one_vram_buffer
;
; one_vram_buffer('c', NTADR_A(4, firstSettingY)+((settingvalue<<8)>>2));
;
	.dbg	line, "SAUCE/menustates/settings.c", 128
	lda     #$9F
	sta     sreg+0
	ldx     _settingvalue
	lda     #$00
	jsr     asrax2
	clc
	adc     #$64
	pha
	txa
	adc     #$20
	tax
	pla
	jsr     __one_vram_buffer
;
; if (joypad1.press & (PAD_A | PAD_START)) {
;
	.dbg	line, "SAUCE/menustates/settings.c", 131
L00BE:	lda     _joypad1+1
	ldx     #$00
	and     #$90
	beq     L00BF
;
; set_settings();
;
	.dbg	line, "SAUCE/menustates/settings.c", 132
	jsr     _set_settings
;
; if (options & platformer) {
;
	.dbg	line, "SAUCE/menustates/settings.c", 134
L00BF:	lda     _options
	and     #$04
	beq     L0068
;
; twoplayer = 0;
;
	.dbg	line, "SAUCE/menustates/settings.c", 135
	lda     #$00
	sta     _twoplayer
;
; one_vram_buffer('X',NTADR_A(26,7));
;
	.dbg	line, "SAUCE/menustates/settings.c", 136
	lda     #$F8
	sta     sreg+0
	ldx     #$20
	lda     #$FA
	jsr     __one_vram_buffer
;
; if (twoplayer) options &= ~platformer;  
;
	.dbg	line, "SAUCE/menustates/settings.c", 138
L0068:	lda     _twoplayer
	beq     L0069
	lda     _options
	and     #$FB
	sta     _options
;
; if (joypad1.press_b) {
;
	.dbg	line, "SAUCE/menustates/settings.c", 140
L0069:	lda     _joypad1+1
	and     #$40
;
; break;
;
	.dbg	line, "SAUCE/menustates/settings.c", 141
	bne     L0004
;
; kandoframecnt++;
;
	.dbg	line, "SAUCE/menustates/settings.c", 143
	inc     _kandoframecnt
;
; if (kandoframecnt & 1 && mouse_timer) mouse_timer--; 
;
	.dbg	line, "SAUCE/menustates/settings.c", 144
	lda     _kandoframecnt
	ldx     #$00
	and     #$01
	jeq     L0003
	lda     _mouse_timer
	jeq     L0003
	dec     _mouse_timer
;
; while (1) {
;
	.dbg	line, "SAUCE/menustates/settings.c", 40
	jmp     L0003
;
; gameState = STATE_MENU;
;
	.dbg	line, "SAUCE/menustates/settings.c", 147
L0004:	lda     #$01
	sta     _gameState
;
; }
;
	.dbg	line, "SAUCE/menustates/settings.c", 148
	rts

	.dbg	line
.endproc

; ---------------------------------------------------------------
; void __near__ credits_loop (void)
; ---------------------------------------------------------------

.segment	"XCD_BANK_02"

.proc	_credits_loop: near

	.dbg	func, "credits_loop", "00", static, "_credits_loop"

.segment	"XCD_BANK_02"

;
; oam_clear();
;
	.dbg	line, "SAUCE/menustates/credits.c", 21
	jsr     _oam_clear
;
; mouse_and_cursor();
;
	.dbg	line, "SAUCE/menustates/credits.c", 23
	jsr     _mouse_and_cursor
;
; newrand();
;
	.dbg	line, "SAUCE/menustates/credits.c", 25
	jsr     _newrand
;
; kandoframecnt++;
;
	.dbg	line, "SAUCE/menustates/credits.c", 26
	ldx     #$00
	inc     _kandoframecnt
;
; if (!forced_credits &&
;
	.dbg	line, "SAUCE/menustates/credits.c", 34
	lda     _forced_credits
	bne     L0013
;
; (joypad1.press || ((mouse.connected)
;
	.dbg	line, "SAUCE/menustates/credits.c", 35
	lda     _joypad1+1
	bne     L0012
;
; ? mouse.left_press || mouse.right_press
;
	.dbg	line, "SAUCE/menustates/credits.c", 36
	lda     _mouse
	and     #$80
	beq     L0011
	lda     _mouse
	and     #$10
	bne     L0010
;
; : joypad2.press))) {
;
	.dbg	line, "SAUCE/menustates/credits.c", 37
	lda     _mouse
	and     #$08
	beq     L0008
L0010:	lda     #$01
	jmp     L0008
L0011:	lda     _joypad2+1
L0008:	cmp     #$00
	beq     L0002
L0012:	lda     #$01
	jmp     L0018
L0013:	txa
	jmp     L0002
;
; gameState = STATE_MENU; return;
;
	.dbg	line, "SAUCE/menustates/credits.c", 38
L0018:	sta     _gameState
	rts
;
; ppu_wait_nmi();
;
	.dbg	line, "SAUCE/menustates/credits.c", 46
L0002:	jsr     _ppu_wait_nmi
;
; tmp1++;
;
	.dbg	line, "SAUCE/menustates/credits.c", 47
	inc     _tmp1
;
; if (kandoframecnt & 1 && mouse_timer) mouse_timer--;
;
	.dbg	line, "SAUCE/menustates/credits.c", 48
	lda     _kandoframecnt
	and     #$01
	beq     L001A
	lda     _mouse_timer
	bne     L001B
L001A:	rts
L001B:	dec     _mouse_timer
;
; }
;
	.dbg	line, "SAUCE/menustates/credits.c", 49
	rts

	.dbg	line
.endproc

; ---------------------------------------------------------------
; void __near__ state_credits (void)
; ---------------------------------------------------------------

.segment	"XCD_BANK_02"

.proc	_state_credits: near

	.dbg	func, "state_credits", "00", static, "_state_credits"

.segment	"XCD_BANK_02"

;
; oam_clear();
;
	.dbg	line, "SAUCE/menustates/credits.c", 52
	jsr     _oam_clear
;
; mmc3_set_8kb_chr(MENUBANK);
;
	.dbg	line, "SAUCE/menustates/credits.c", 54
	lda     #$62
	sta     _xargs
	jsr     __mmc3_set_8kb_chr
;
; mmc3_set_2kb_chr_bank_0(0xFF); 
;
	.dbg	line, "SAUCE/menustates/credits.c", 55
	lda     #$FF
	jsr     _mmc3_set_2kb_chr_bank_0
;
; mmc3_set_2kb_chr_bank_1(MOUSEBANK); 
;
	.dbg	line, "SAUCE/menustates/credits.c", 56
	lda     #$60
	jsr     _mmc3_set_2kb_chr_bank_1
;
; pal_bg(palette_Credits);
;
	.dbg	line, "SAUCE/menustates/credits.c", 58
	lda     #<(_palette_Credits)
	ldx     #>(_palette_Credits)
	jsr     _pal_bg
;
; vram_adr(NAMETABLE_A);
;
	.dbg	line, "SAUCE/menustates/credits.c", 60
	lda     #$20
	sta     $2006
	lda     #$00
	sta     $2006
;
; vram_unrle(Credits);
;
	.dbg	line, "SAUCE/menustates/credits.c", 61
	lda     #<(_Credits)
	ldx     #>(_Credits)
	jsr     _vram_unrle
;
; vram_adr(NAMETABLE_B);
;
	.dbg	line, "SAUCE/menustates/credits.c", 62
	lda     #$24
	sta     $2006
	lda     #$00
	sta     $2006
;
; vram_unrle(Credits2);
;
	.dbg	line, "SAUCE/menustates/credits.c", 63
	lda     #<(_Credits2)
	ldx     #>(_Credits2)
	jsr     _vram_unrle
;
; vram_adr(NAMETABLE_D);
;
	.dbg	line, "SAUCE/menustates/credits.c", 65
	lda     #$2C
	sta     $2006
	lda     #$00
	sta     $2006
;
; vram_unrle(Credits3);
;
	.dbg	line, "SAUCE/menustates/credits.c", 66
	lda     #<(_Credits3)
	ldx     #>(_Credits3)
	jsr     _vram_unrle
;
; multi_vram_buffer_horz(ver, sizeof(ver)-1, NTADR_A(1,24));
;
	.dbg	line, "SAUCE/menustates/credits.c", 69
	lda     #<(_ver)
	ldx     #>(_ver)
	stx     sreg+1
	sta     sreg
	lda     #$04
	sta     _xargs
	ldx     #$63
	lda     #$01
	jsr     __multi_vram_buffer
;
; multi_vram_buffer_horz(verNum, sizeof(verNum), NTADR_A(6,24));
;
	.dbg	line, "SAUCE/menustates/credits.c", 70
	lda     #<(_verNum)
	ldx     #>(_verNum)
	stx     sreg+1
	sta     sreg
	lda     #$05
	sta     _xargs
	ldx     #$63
	lda     #$06
	jsr     __multi_vram_buffer
;
; ppu_on_all();
;
	.dbg	line, "SAUCE/menustates/credits.c", 72
	jsr     _ppu_on_all
;
; ppu_wait_nmi();
;
	.dbg	line, "SAUCE/menustates/credits.c", 73
	jsr     _ppu_wait_nmi
;
; pal_fade_in();
;
	.dbg	line, "SAUCE/menustates/credits.c", 75
	ldx     #$04
	lda     #$00
	jsr     __pal_fade_to
;
; ppu_wait_nmi();
;
	.dbg	line, "SAUCE/menustates/credits.c", 85
	jsr     _ppu_wait_nmi
;
; tmp1 = 0;
;
	.dbg	line, "SAUCE/menustates/credits.c", 87
	lda     #$00
	sta     _tmp1
;
; credits_loop();
;
	.dbg	line, "SAUCE/menustates/credits.c", 89
L0002:	jsr     _credits_loop
;
; if (gameState != STATE_CREDITS) return;
;
	.dbg	line, "SAUCE/menustates/credits.c", 90
	lda     _gameState
	bne     L0001
;
; } while (tmp1 != 0);
;
	.dbg	line, "SAUCE/menustates/credits.c", 91
	lda     _tmp1
	bne     L0002
;
; credits_loop();
;
	.dbg	line, "SAUCE/menustates/credits.c", 96
L0003:	jsr     _credits_loop
;
; set_scroll_x(tmp1<<2);
;
	.dbg	line, "SAUCE/menustates/credits.c", 97
	ldx     #$00
	lda     _tmp1
	jsr     aslax2
	jsr     _set_scroll_x
;
; if (gameState != STATE_CREDITS) return;
;
	.dbg	line, "SAUCE/menustates/credits.c", 98
	lda     _gameState
	bne     L0001
;
; } while (tmp1 < 64);
;
	.dbg	line, "SAUCE/menustates/credits.c", 99
	lda     _tmp1
	cmp     #$40
	bcc     L0003
;
; set_scroll_x(256);
;
	.dbg	line, "SAUCE/menustates/credits.c", 101
	ldx     #$01
	lda     #$00
	jsr     _set_scroll_x
;
; tmp1 = 0;
;
	.dbg	line, "SAUCE/menustates/credits.c", 102
	lda     #$00
	sta     _tmp1
;
; credits_loop();
;
	.dbg	line, "SAUCE/menustates/credits.c", 104
L000A:	jsr     _credits_loop
;
; if (gameState != STATE_CREDITS) return;
;
	.dbg	line, "SAUCE/menustates/credits.c", 105
	lda     _gameState
	bne     L0001
;
; } while (tmp1 != 0);
;
	.dbg	line, "SAUCE/menustates/credits.c", 106
	lda     _tmp1
	bne     L000A
;
; credits_loop();
;
	.dbg	line, "SAUCE/menustates/credits.c", 110
L000B:	jsr     _credits_loop
;
; set_scroll_y(tmp1<<2);
;
	.dbg	line, "SAUCE/menustates/credits.c", 111
	ldx     #$00
	lda     _tmp1
	jsr     aslax2
	jsr     _set_scroll_y
;
; if (gameState != STATE_CREDITS) return;
;
	.dbg	line, "SAUCE/menustates/credits.c", 112
	lda     _gameState
	bne     L0001
;
; } while (tmp1 < (0xF0 >> 2));
;
	.dbg	line, "SAUCE/menustates/credits.c", 113
	lda     _tmp1
	cmp     #$3C
	bcc     L000B
;
; tmp1 = 0;
;
	.dbg	line, "SAUCE/menustates/credits.c", 115
	lda     #$00
	sta     _tmp1
;
; set_scroll_y(256);
;
	.dbg	line, "SAUCE/menustates/credits.c", 116
	ldx     #$01
	jsr     _set_scroll_y
;
; credits_loop();
;
	.dbg	line, "SAUCE/menustates/credits.c", 120
L0012:	jsr     _credits_loop
;
; if (gameState != STATE_CREDITS) return;
;
	.dbg	line, "SAUCE/menustates/credits.c", 121
	lda     _gameState
	bne     L0001
;
; } while (tmp1 != 0);
;
	.dbg	line, "SAUCE/menustates/credits.c", 122
	lda     _tmp1
	bne     L0012
;
; forced_credits = 0;
;
	.dbg	line, "SAUCE/menustates/credits.c", 124
	sta     _forced_credits
;
; gameState = STATE_MENU;
;
	.dbg	line, "SAUCE/menustates/credits.c", 125
	lda     #$01
	sta     _gameState
;
; }
;
	.dbg	line, "SAUCE/menustates/credits.c", 129
L0001:	rts

	.dbg	line
.endproc

; ---------------------------------------------------------------
; void __near__ everything_else (void)
; ---------------------------------------------------------------

.segment	"CODE"

.proc	_everything_else: near

	.dbg	func, "everything_else", "00", static, "_everything_else"

.segment	"CODE"

;
; ppu_wait_nmi();
;
	.dbg	line, "SAUCE/gamestates/state_game.h", 326
	jsr     _ppu_wait_nmi
;
; music_update();
;
	.dbg	line, "SAUCE/gamestates/state_game.h", 327
	jsr     _music_update
;
; orbhitonthisframe[0] = 0;
;
	.dbg	line, "SAUCE/gamestates/state_game.h", 329
	lda     #$00
	sta     _orbhitonthisframe
;
; orbhitonthisframe[1] = 0;
;
	.dbg	line, "SAUCE/gamestates/state_game.h", 330
	sta     _orbhitonthisframe+1
;
; if (!twoplayer && !(mouse.status_computed & MOUSE_CONNECTED)) {
;
	.dbg	line, "SAUCE/gamestates/state_game.h", 331
	lda     _twoplayer
	bne     L0002
	lda     _mouse
	and     #$80
	bne     L0002
;
; joypad2.hold = joypad1.hold;
;
	.dbg	line, "SAUCE/gamestates/state_game.h", 333
	lda     _joypad1
	sta     _joypad2
;
; joypad2.press = joypad1.press;
;
	.dbg	line, "SAUCE/gamestates/state_game.h", 334
	lda     _joypad1+1
	sta     _joypad2+1
;
; joypad2.release = joypad1.release;
;
	.dbg	line, "SAUCE/gamestates/state_game.h", 335
	lda     _joypad1+2
	sta     _joypad2+2
;
; set_player_banks();
;
	.dbg	line, "SAUCE/gamestates/state_game.h", 339
L0002:	jsr     _set_player_banks
;
; if (nullscapes_active && !(kandoframecnt & 7)) nullscapes_orb_type++;
;
	.dbg	line, "SAUCE/gamestates/state_game.h", 341
	lda     _nullscapes_active
	beq     L00EF
	lda     _kandoframecnt
	and     #$07
	bne     L00EF
	inc     _nullscapes_orb_type
;
; if (nullscapes_active == 1 && nullscapes_orb_type >= 4) nullscapes_orb_type = 0;
;
	.dbg	line, "SAUCE/gamestates/state_game.h", 342
L00EF:	lda     _nullscapes_active
	cmp     #$01
	bne     L00F2
	lda     _nullscapes_orb_type
	cmp     #$04
	bcs     L00F6
;
; else if (nullscapes_active == 2 && nullscapes_orb_type >= 6) nullscapes_orb_type = 0;
;
	.dbg	line, "SAUCE/gamestates/state_game.h", 343
L00F2:	lda     _nullscapes_active
	cmp     #$02
	bne     L000F
	lda     _nullscapes_orb_type
	cmp     #$06
	bcs     L00F6
;
; else if (!nullscapes_active && nullscapes_orb_type >= 1) nullscapes_orb_type = 0;
;
	.dbg	line, "SAUCE/gamestates/state_game.h", 344
L000F:	lda     _nullscapes_active
	bne     L0014
	lda     _nullscapes_orb_type
	beq     L0014
L00F6:	lda     #$00
	sta     _nullscapes_orb_type
;
; if (!kandodebugmode) {
;
	.dbg	line, "SAUCE/gamestates/state_game.h", 346
L0014:	lda     _kandodebugmode
;
; else {
;
	.dbg	line, "SAUCE/gamestates/state_game.h", 350
	beq     L0019
;
; mouse_and_cursor();
;
	.dbg	line, "SAUCE/gamestates/state_game.h", 351
	jsr     _mouse_and_cursor
;
; if (mouse.connected) {
;
	.dbg	line, "SAUCE/gamestates/state_game.h", 354
L0019:	lda     _mouse
	and     #$80
	beq     L001C
;
; if (mouse.left_press) joypad1.press_a = 1;
;
	.dbg	line, "SAUCE/gamestates/state_game.h", 355
	lda     _mouse
	and     #$10
	beq     L001B
	lda     _joypad1+1
	ora     #$80
	sta     _joypad1+1
;
; if (mouse.left) joypad1.a = 1;
;
	.dbg	line, "SAUCE/gamestates/state_game.h", 356
L001B:	lda     _mouse+1
	and     #$40
	beq     L001C
	lda     _joypad1
	ora     #$80
	sta     _joypad1
;
; if (options & platformer || force_platformer) twoplayer = 0;
;
	.dbg	line, "SAUCE/gamestates/state_game.h", 359
L001C:	lda     _options
	and     #$04
	bne     L00F7
	lda     _force_platformer
	beq     L00F8
L00F7:	lda     #$00
	sta     _twoplayer
;
; if ((options & oneptwoplayer) && twoplayer) {
;
	.dbg	line, "SAUCE/gamestates/state_game.h", 361
L00F8:	lda     _options
	and     #$01
	beq     L0020
	lda     _twoplayer
	beq     L0020
;
; joypad2.hold = joypad1.hold<<1; // read the second controller
;
	.dbg	line, "SAUCE/gamestates/state_game.h", 363
	lda     _joypad1
	asl     a
	sta     _joypad2
;
; joypad2.press = joypad1.press<<1;
;
	.dbg	line, "SAUCE/gamestates/state_game.h", 364
	lda     _joypad1+1
	asl     a
	sta     _joypad2+1
;
; else if (twoplayer) {
;
	.dbg	line, "SAUCE/gamestates/state_game.h", 367
	jmp     L016E
L0020:	lda     _twoplayer
	beq     L00FC
;
; dual = 1;
;
	.dbg	line, "SAUCE/gamestates/state_game.h", 369
L016E:	lda     #$01
	sta     _dual
;
; if (!(joypad1.hold & (PAD_A | PAD_UP))) {
;
	.dbg	line, "SAUCE/gamestates/state_game.h", 372
L00FC:	lda     _joypad1
	and     #$88
	bne     L0026
;
; if (dashing[0]) currplayer_vel_y = 0;
;
	.dbg	line, "SAUCE/gamestates/state_game.h", 373
	lda     _dashing
	beq     L00FE
	lda     #$00
	sta     _currplayer_vel_y
	sta     _currplayer_vel_y+1
;
; dashing[0] = 0;
;
	.dbg	line, "SAUCE/gamestates/state_game.h", 374
L00FE:	sta     _dashing
;
; if (kandodebugmode) {
;
	.dbg	line, "SAUCE/gamestates/state_game.h", 378
L0026:	lda     _kandodebugmode
	beq     L0102
;
; if (mouse.left) {
;
	.dbg	line, "SAUCE/gamestates/state_game.h", 380
	lda     _mouse+1
	and     #$40
	beq     L0101
;
; kandodebugmode = 2;
;
	.dbg	line, "SAUCE/gamestates/state_game.h", 381
	lda     #$02
	sta     _kandodebugmode
;
; target_x_scroll_stop = 0xE000;
;
	.dbg	line, "SAUCE/gamestates/state_game.h", 383
	ldx     #$E0
	lda     #$00
	sta     _target_x_scroll_stop
	stx     _target_x_scroll_stop+1
;
; curr_x_scroll_stop = 0xE000;
;
	.dbg	line, "SAUCE/gamestates/state_game.h", 384
	sta     _curr_x_scroll_stop
	stx     _curr_x_scroll_stop+1
;
; high_byte(currplayer_y) = (mouse.y + high_byte(scroll_y)) - 10;
;
	.dbg	line, "SAUCE/gamestates/state_game.h", 385
	lda     _mouse+2
	clc
	adc     _scroll_y+1
	sec
	sbc     #$0A
	sta     _currplayer_y+1
;
; high_byte(currplayer_x) = mouse.x - 10 < 0 ? mouse.x : mouse.x - 10;
;
	.dbg	line, "SAUCE/gamestates/state_game.h", 386
	ldx     #$00
	lda     _mouse+3
	sec
	sbc     #$0A
	bcs     L002B
	dex
L002B:	cpx     #$80
	bcc     L00FF
	lda     _mouse+3
	jmp     L0100
L00FF:	lda     _mouse+3
	sec
	sbc     #$0A
L0100:	sta     _currplayer_x+1
;
; if (high_byte(currplayer_x) > 226) high_byte(currplayer_x) = 226;
;
	.dbg	line, "SAUCE/gamestates/state_game.h", 387
	cmp     #$E3
	bcc     L0102
	lda     #$E2
	sta     _currplayer_x+1
;
; else {
;
	.dbg	line, "SAUCE/gamestates/state_game.h", 390
	jmp     L0102
;
; kandodebugmode = 1;
;
	.dbg	line, "SAUCE/gamestates/state_game.h", 391
L0101:	lda     #$01
	sta     _kandodebugmode
;
; target_x_scroll_stop = 0x5000;
;
	.dbg	line, "SAUCE/gamestates/state_game.h", 392
	ldx     #$50
	lda     #$00
	sta     _target_x_scroll_stop
	stx     _target_x_scroll_stop+1
;
; cube_data[0] = 0;
;
	.dbg	line, "SAUCE/gamestates/state_game.h", 393
	sta     _cube_data
;
; if (options & jumpsound) {
;
	.dbg	line, "SAUCE/gamestates/state_game.h", 399
L0102:	lda     _options
	and     #$02
	beq     L0032
;
; if (joypad1.press_a || joypad1.press_up) {
;
	.dbg	line, "SAUCE/gamestates/state_game.h", 400
	lda     _joypad1+1
	and     #$80
	bne     L0103
	lda     _joypad1+1
	and     #$08
	beq     L0032
;
; sfx_play(sfx_click, 0);
;
	.dbg	line, "SAUCE/gamestates/state_game.h", 401
L0103:	ldx     #$00
	lda     #$01
	jsr     __sfx_play
;
; if (joypad1.press_start || (mouse.right_press && !(mouse.status_raw & MOUSE_LEFT))) {
;
	.dbg	line, "SAUCE/gamestates/state_game.h", 407
L0032:	lda     _joypad1+1
	and     #$10
	bne     L0036
	lda     _mouse
	and     #$08
	jeq     L0083
	lda     _mouse+1
	and     #$40
	jne     L0083
;
; pauseStatus = 1;
;
	.dbg	line, "SAUCE/gamestates/state_game.h", 408
L0036:	lda     #$01
	sta     _pauseStatus
;
; famistudio_music_pause(1);
;
	.dbg	line, "SAUCE/gamestates/state_game.h", 409
	jsr     _famistudio_music_pause
;
; famistudio_update();
;
	.dbg	line, "SAUCE/gamestates/state_game.h", 410
	jsr     _famistudio_update
;
; color_emphasis(COL_EMP_DARK);
;
	.dbg	line, "SAUCE/gamestates/state_game.h", 411
	lda     #$E0
	jsr     _color_emphasis
;
; mouse.right_press = 0;
;
	.dbg	line, "SAUCE/gamestates/state_game.h", 412
	lda     _mouse
	and     #$F7
	sta     _mouse
;
; joypad1.press = 0;
;
	.dbg	line, "SAUCE/gamestates/state_game.h", 413
	lda     #$00
	sta     _joypad1+1
;
; exittimer = 0;
;
	.dbg	line, "SAUCE/gamestates/state_game.h", 414
	sta     _exittimer
	sta     _exittimer+1
;
; kandokidshack3 = 0;
;
	.dbg	line, "SAUCE/gamestates/state_game.h", 420
	sta     _kandokidshack3
;
; kandokidshack4 = 0;
;
	.dbg	line, "SAUCE/gamestates/state_game.h", 421
	sta     _kandokidshack4
;
; while (!(joypad1.press & PAD_START) && !(mouse.status_computed & MOUSE_RIGHT_PRESS)) {
;
	.dbg	line, "SAUCE/gamestates/state_game.h", 422
	jmp     L012A
;
; if (VRAM_UPDATE == 1) {
;
	.dbg	line, "SAUCE/gamestates/state_game.h", 423
L010B:	lda     _VRAM_UPDATE
	cmp     #$01
	bne     L010C
;
; ppu_wait_nmi();
;
	.dbg	line, "SAUCE/gamestates/state_game.h", 424
	jsr     _ppu_wait_nmi
;
; VRAM_UPDATE = 1;
;
	.dbg	line, "SAUCE/gamestates/state_game.h", 427
L010C:	lda     #$01
	sta     _VRAM_UPDATE
;
; if (mouse.right) exittimer++;
;
	.dbg	line, "SAUCE/gamestates/state_game.h", 429
	lda     _mouse+1
	and     #$80
	beq     L010E
	inc     _exittimer
	bne     L0044
	inc     _exittimer+1
;
; else exittimer = 0;
;
	.dbg	line, "SAUCE/gamestates/state_game.h", 430
	jmp     L0044
L010E:	sta     _exittimer
	sta     _exittimer+1
;
; if ((joypad1.up) && (joypad1.press_b)) {
;
	.dbg	line, "SAUCE/gamestates/state_game.h", 433
L0044:	lda     _joypad1
	and     #$08
	beq     L0045
	lda     _joypad1+1
	and     #$40
	beq     L0045
;
; kandokidshack3++;
;
	.dbg	line, "SAUCE/gamestates/state_game.h", 434
	inc     _kandokidshack3
;
; if ((joypad1.down) && (joypad1.press_b)) {
;
	.dbg	line, "SAUCE/gamestates/state_game.h", 436
L0045:	lda     _joypad1
	and     #$04
	beq     L0049
	lda     _joypad1+1
	and     #$40
	beq     L0049
;
; kandokidshack4++;
;
	.dbg	line, "SAUCE/gamestates/state_game.h", 437
	inc     _kandokidshack4
;
; if ((controllingplayer->press_b || mouse.left_press) && !(controllingplayer->hold & (PAD_UP | PAD_DOWN))) {
;
	.dbg	line, "SAUCE/gamestates/state_game.h", 441
L0049:	ldy     #$01
	lda     (_controllingplayer),y
	and     #$40
	bne     L0115
	lda     _mouse
	and     #$10
	beq     L004D
L0115:	dey
	lda     (_controllingplayer),y
	and     #$0C
	bne     L004D
;
; famistudio_music_pause(0);
;
	.dbg	line, "SAUCE/gamestates/state_game.h", 442
	jsr     _famistudio_music_pause
;
; mmc3_set_prg_bank_1(GET_BANK(store_practice_state));
;
	.dbg	line, "SAUCE/gamestates/state_game.h", 443
	lda     #<.bank(_store_practice_state)
	jsr     _mmc3_set_prg_bank_1
;
; store_practice_state();
;
	.dbg	line, "SAUCE/gamestates/state_game.h", 444
	jsr     _store_practice_state
;
; joypad1.press = PAD_START;
;
	.dbg	line, "SAUCE/gamestates/state_game.h", 446
	lda     #$10
	sta     _joypad1+1
;
; orbed[currplayer] = 1;
;
	.dbg	line, "SAUCE/gamestates/state_game.h", 447
	ldy     _currplayer
	lda     #$01
	sta     _orbed,y
;
; if (joypad1.select || exittimer == 100) { 
;
	.dbg	line, "SAUCE/gamestates/state_game.h", 449
L004D:	lda     _joypad1
	and     #$20
	bne     L0119
	lda     _exittimer+1
	bne     L0054
	lda     _exittimer
	cmp     #$64
	bne     L0054
;
; gameState = STATE_LEVELSELECT; 
;
	.dbg	line, "SAUCE/gamestates/state_game.h", 450
L0119:	lda     #$06
	sta     _gameState
;
; sfx_play(sfx_exit_level,0);
;
	.dbg	line, "SAUCE/gamestates/state_game.h", 451
	ldx     #$00
	lda     #$07
	jsr     __sfx_play
;
; music_update();
;
	.dbg	line, "SAUCE/gamestates/state_game.h", 452
	jsr     _music_update
;
; gameboy_check();
;
	.dbg	line, "SAUCE/gamestates/state_game.h", 453
	ldy     _gameboy_mode
	lda     _gameboy_check_table,y
	jsr     _color_emphasis
;
; pauseStatus = 0;
;
	.dbg	line, "SAUCE/gamestates/state_game.h", 454
	lda     #$00
	sta     _pauseStatus
;
; return;
;
	.dbg	line, "SAUCE/gamestates/state_game.h", 455
	rts
;
; if ((joypad1.press_left) && DEBUG_MODE) {
;
	.dbg	line, "SAUCE/gamestates/state_game.h", 457
L0054:	lda     _joypad1+1
	and     #$02
	beq     L005E
	lda     _DEBUG_MODE
	beq     L005E
;
; gravity_mod == 4 ? gravity_mod = 0 : gravity_mod++;
;
	.dbg	line, "SAUCE/gamestates/state_game.h", 458
	lda     _gravity_mod
	cmp     #$04
	bne     L011D
	lda     #$00
	sta     _gravity_mod
	jmp     L005E
L011D:	inc     _gravity_mod
;
; if ((joypad1.down) && (joypad1.press_a)) {
;
	.dbg	line, "SAUCE/gamestates/state_game.h", 462
L005E:	lda     _joypad1
	and     #$04
	beq     L005F
	lda     _joypad1+1
	and     #$80
	beq     L005F
;
; kandokidshack++;
;
	.dbg	line, "SAUCE/gamestates/state_game.h", 463
	inc     _kandokidshack
;
; else if ((joypad1.up) && (joypad1.press_a)) {
;
	.dbg	line, "SAUCE/gamestates/state_game.h", 465
	jmp     L012A
L005F:	lda     _joypad1
	and     #$08
	beq     L0064
	lda     _joypad1+1
	and     #$80
	beq     L0064
;
; kandokidshack2++;
;
	.dbg	line, "SAUCE/gamestates/state_game.h", 466
	inc     _kandokidshack2
;
; else if ((joypad1.press_a) && DEBUG_MODE) {
;
	.dbg	line, "SAUCE/gamestates/state_game.h", 470
	jmp     L012A
L0064:	lda     _joypad1+1
	and     #$80
	beq     L012A
	lda     _DEBUG_MODE
	beq     L012A
;
; nocamlock = 1;
;
	.dbg	line, "SAUCE/gamestates/state_game.h", 471
	lda     #$01
	sta     _nocamlock
;
; gamemode == GAMEMODE_FOOTBALL ? gamemode = GAMEMODE_CUBE : gamemode++;
;
	.dbg	line, "SAUCE/gamestates/state_game.h", 473
	lda     _gamemode
	cmp     #$0B
	bne     L0127
	ldx     #$00
	txa
	sta     _gamemode
	jmp     L0129
L0127:	inc     _gamemode
;
; cube_data[0] = 0;
;
	.dbg	line, "SAUCE/gamestates/state_game.h", 477
	ldx     #$00
	txa
L0129:	sta     _cube_data
;
; ppu_off();
;
	.dbg	line, "SAUCE/gamestates/state_game.h", 478
	jsr     _ppu_off
;
; set_player_banks();
;
	.dbg	line, "SAUCE/gamestates/state_game.h", 479
	jsr     _set_player_banks
;
; oam_clear();
;
	.dbg	line, "SAUCE/gamestates/state_game.h", 480
	jsr     _oam_clear
;
; crossPRGBankJump0(drawplayerone);
;
	.dbg	line, "SAUCE/gamestates/state_game.h", 481
	lda     #<_drawplayerone
	ldx     #>_drawplayerone
	ldy     #<.bank(_drawplayerone)
	jsr     crossPRGBankJump
;
; mmc3_set_prg_bank_1(GET_BANK(draw_sprites)); 
;
	.dbg	line, "SAUCE/gamestates/state_game.h", 482
	lda     #<.bank(_draw_sprites)
	jsr     _mmc3_set_prg_bank_1
;
; draw_sprites();
;
	.dbg	line, "SAUCE/gamestates/state_game.h", 483
	jsr     _draw_sprites
;
; ppu_on_all();
;
	.dbg	line, "SAUCE/gamestates/state_game.h", 484
	jsr     _ppu_on_all
;
; while (!(joypad1.press & PAD_START) && !(mouse.status_computed & MOUSE_RIGHT_PRESS)) {
;
	.dbg	line, "SAUCE/gamestates/state_game.h", 422
L012A:	lda     _joypad1+1
	and     #$10
	bne     L012B
	lda     _mouse
	ldx     #$00
	and     #$08
	jeq     L010B
L012B:	lda     #$00
;
; pauseStatus = 0;
;
	.dbg	line, "SAUCE/gamestates/state_game.h", 487
	sta     _pauseStatus
;
; gameboy_check();
;
	.dbg	line, "SAUCE/gamestates/state_game.h", 488
	ldy     _gameboy_mode
	lda     _gameboy_check_table,y
	jsr     _color_emphasis
;
; famistudio_music_pause(0);
;
	.dbg	line, "SAUCE/gamestates/state_game.h", 489
	lda     #$00
	jsr     _famistudio_music_pause
;
; if (kandokidshack != 9) kandokidshack = 0;
;
	.dbg	line, "SAUCE/gamestates/state_game.h", 490
	lda     _kandokidshack
	cmp     #$09
	beq     L012F
	lda     #$00
	sta     _kandokidshack
;
; if (kandokidshack2 != 7) kandokidshack2 = 0;
;
	.dbg	line, "SAUCE/gamestates/state_game.h", 491
L012F:	lda     _kandokidshack2
	cmp     #$07
	beq     L0130
	lda     #$00
	sta     _kandokidshack2
;
; if ((DEBUG_MODE != 2 && DEBUG_MODE != 3) && kandokidshack3 == 12) { DEBUG_MODE = !DEBUG_MODE; cheated = 1; }
;
	.dbg	line, "SAUCE/gamestates/state_game.h", 492
L0130:	lda     _DEBUG_MODE
	cmp     #$02
	beq     L0136
	cmp     #$03
	beq     L0136
	lda     _kandokidshack3
	cmp     #$0C
	bne     L0136
	lda     _DEBUG_MODE
	jsr     bnega
	sta     _DEBUG_MODE
	lda     #$01
	sta     _cheated
;
; if ((DEBUG_MODE == 1) && kandokidshack3 == (0b00010010 + 0b00001100)) DEBUG_MODE = 2;
;
	.dbg	line, "SAUCE/gamestates/state_game.h", 493
L0136:	lda     _DEBUG_MODE
	cmp     #$01
	bne     L0139
	lda     _kandokidshack3
	cmp     #$1E
	bne     L0139
	lda     #$02
	sta     _DEBUG_MODE
;
; if ((DEBUG_MODE == 2) && kandokidshack4 == (0b00001001 + 0b00011010 + 0b01000111 - 0b01000000)) DEBUG_MODE = 3;
;
	.dbg	line, "SAUCE/gamestates/state_game.h", 494
L0139:	lda     _DEBUG_MODE
	cmp     #$02
	bne     L013C
	lda     _kandokidshack4
	cmp     #$2A
	bne     L013C
	lda     #$03
	sta     _DEBUG_MODE
;
; else if (kandokidshack3 == 20) { kandodebugmode ^= 1; cheated = 1; }
;
	.dbg	line, "SAUCE/gamestates/state_game.h", 495
	jmp     L0083
L013C:	lda     _kandokidshack3
	cmp     #$14
	bne     L013D
	lda     _kandodebugmode
	eor     #$01
	sta     _kandodebugmode
	lda     #$01
	sta     _cheated
;
; else kandokidshack3 = 0;
;
	.dbg	line, "SAUCE/gamestates/state_game.h", 496
	jmp     L0083
L013D:	lda     #$00
	sta     _kandokidshack3
;
; if (joypad1.press_select && practice_point_count == 0)
;
	.dbg	line, "SAUCE/gamestates/state_game.h", 502
L0083:	lda     _joypad1+1
	and     #$20
	beq     L0141
	lda     _practice_point_count
	bne     L0141
;
; DEBUG_MODE = !DEBUG_MODE; 
;
	.dbg	line, "SAUCE/gamestates/state_game.h", 504
	lda     _DEBUG_MODE
	jsr     bnega
	sta     _DEBUG_MODE
;
; cheated = 1;
;
	.dbg	line, "SAUCE/gamestates/state_game.h", 505
	lda     #$01
	sta     _cheated
;
; cube_data[0] &= 2; 
;
	.dbg	line, "SAUCE/gamestates/state_game.h", 506
	lda     _cube_data
	and     #$02
	sta     _cube_data
;
; cube_data[1] &= 2; 
;
	.dbg	line, "SAUCE/gamestates/state_game.h", 507
	lda     _cube_data+1
	and     #$02
	sta     _cube_data+1
;
; if (practice_point_count > 1 && (joypad1.press_select || (mouse.left && mouse.right_press)) && !(joypad1.hold & (PAD_UP | PAD_DOWN))) {
;
	.dbg	line, "SAUCE/gamestates/state_game.h", 511
L0141:	lda     _practice_point_count
	cmp     #$02
	bcc     L0092
	lda     _joypad1+1
	and     #$20
	bne     L0149
	lda     _mouse+1
	and     #$40
	beq     L0092
	lda     _mouse
	and     #$08
	beq     L0092
L0149:	lda     _joypad1
	and     #$0C
	bne     L0092
;
; curr_practice_point--;
;
	.dbg	line, "SAUCE/gamestates/state_game.h", 512
	dec     _curr_practice_point
;
; if (latest_practice_point) latest_practice_point--;
;
	.dbg	line, "SAUCE/gamestates/state_game.h", 513
	lda     _latest_practice_point
	beq     L014D
	dec     _latest_practice_point
;
; if (curr_practice_point >= practice_point_count)
;
	.dbg	line, "SAUCE/gamestates/state_game.h", 514
L014D:	lda     _curr_practice_point
	jsr     pusha0
	lda     _practice_point_count
	jsr     tosicmp0
	bcc     L0092
;
; curr_practice_point = practice_point_count - 1;
;
	.dbg	line, "SAUCE/gamestates/state_game.h", 515
	lda     _practice_point_count
	sec
	sbc     #$01
	sta     _curr_practice_point
;
; if ((controllingplayer->press_b) && practice_point_count && !(twoplayer && (options & oneptwoplayer))) crossPRGBankJump0(store_practice_state);
;
	.dbg	line, "SAUCE/gamestates/state_game.h", 518
L0092:	ldy     #$01
	lda     (_controllingplayer),y
	and     #$40
	beq     L0094
	lda     _practice_point_count
	beq     L0094
	lda     _twoplayer
	beq     L0098
	lda     _options
	and     #$01
	beq     L0098
	tya
L0098:	jsr     bnega
	beq     L0094
	lda     #<_store_practice_state
	ldx     #>_store_practice_state
	ldy     #<.bank(_store_practice_state)
	jsr     crossPRGBankJump
;
; if (auto_practicepoints && auto_practicepoint_timer) auto_practicepoint_timer--;
;
	.dbg	line, "SAUCE/gamestates/state_game.h", 521
L0094:	lda     _auto_practicepoints
	beq     L009B
	lda     _auto_practicepoint_timer
	ora     _auto_practicepoint_timer+1
	beq     L009B
	lda     _auto_practicepoint_timer
	bne     L009F
	dec     _auto_practicepoint_timer+1
L009F:	dec     _auto_practicepoint_timer
;
; if (practicebuffer) practicebuffer--;
;
	.dbg	line, "SAUCE/gamestates/state_game.h", 523
L009B:	lda     _practicebuffer
	beq     L00A0
	dec     _practicebuffer
;
; if (practice_point_count && !auto_practicepoint_timer) { 
;
	.dbg	line, "SAUCE/gamestates/state_game.h", 525
L00A0:	lda     _practice_point_count
	beq     L00AA
	lda     _auto_practicepoint_timer
	ora     _auto_practicepoint_timer+1
	bne     L00AA
;
; if (gamemode == 0 || gamemode == 2 || gamemode == 4 || gamemode == 5 || gamemode == 8) {
;
	.dbg	line, "SAUCE/gamestates/state_game.h", 526
	lda     _gamemode
	beq     L0156
	cmp     #$02
	beq     L0156
	cmp     #$04
	beq     L0156
	cmp     #$05
	beq     L0156
	cmp     #$08
	bne     L00A5
;
; if (currplayer_vel_y == 0) crossPRGBankJump0(store_practice_state); practicebuffer = 4;
;
	.dbg	line, "SAUCE/gamestates/state_game.h", 527
L0156:	lda     _currplayer_vel_y
	ora     _currplayer_vel_y+1
	bne     L0157
	lda     #<_store_practice_state
	ldx     #>_store_practice_state
	ldy     #<.bank(_store_practice_state)
	jsr     crossPRGBankJump
L0157:	lda     #$04
	sta     _practicebuffer
;
; else crossPRGBankJump0(store_practice_state); 
;
	.dbg	line, "SAUCE/gamestates/state_game.h", 529
	jmp     L00AA
L00A5:	lda     #<_store_practice_state
	ldx     #>_store_practice_state
	ldy     #<.bank(_store_practice_state)
	jsr     crossPRGBankJump
;
; if (joypad1.press_right && DEBUG_MODE && !(options & platformer) && !force_platformer) {
;
	.dbg	line, "SAUCE/gamestates/state_game.h", 533
L00AA:	lda     _joypad1+1
	and     #$01
	beq     L00AB
	lda     _DEBUG_MODE
	beq     L00AB
	lda     _options
	and     #$04
	bne     L00AB
	lda     _force_platformer
	bne     L00AB
;
; invert_gravity(currplayer_gravity);
;
	.dbg	line, "SAUCE/gamestates/state_game.h", 534
	tax
	lda     _currplayer_gravity
	eor     #$FF
	sta     _currplayer_gravity
;
; update_currplayer_table_idx();
;
	.dbg	line, "SAUCE/gamestates/state_game.h", 535
	jsr     _update_currplayer_table_idx
;
; if (joypad1.press_down && DEBUG_MODE) {
;
	.dbg	line, "SAUCE/gamestates/state_game.h", 538
L00AB:	lda     _joypad1+1
	and     #$04
	beq     L00AF
	lda     _DEBUG_MODE
	beq     L00AF
;
; currplayer_mini ^= 1;
;
	.dbg	line, "SAUCE/gamestates/state_game.h", 539
	ldx     #$00
	lda     _currplayer_mini
	eor     #$01
	sta     _currplayer_mini
;
; update_currplayer_table_idx();
;
	.dbg	line, "SAUCE/gamestates/state_game.h", 540
	jsr     _update_currplayer_table_idx
;
; if (joypad1.select && DEBUG_MODE) {
;
	.dbg	line, "SAUCE/gamestates/state_game.h", 543
L00AF:	lda     _joypad1
	and     #$20
	beq     L015B
	lda     _DEBUG_MODE
	beq     L015B
;
; if (++END_LEVEL_TIMER > 60) {
;
	.dbg	line, "SAUCE/gamestates/state_game.h", 544
	inc     _END_LEVEL_TIMER
	lda     _END_LEVEL_TIMER
	cmp     #$3D
	bcc     L00B8
;
; crossPRGBankJump0(end_level_debug);
;
	.dbg	line, "SAUCE/gamestates/state_game.h", 545
	lda     #<_end_level_debug
	ldx     #>_end_level_debug
	ldy     #<.bank(_end_level_debug)
	jsr     crossPRGBankJump
;
; } else {
;
	.dbg	line, "SAUCE/gamestates/state_game.h", 547
	jmp     L00B8
;
; END_LEVEL_TIMER = 0;
;
	.dbg	line, "SAUCE/gamestates/state_game.h", 548
L015B:	sta     _END_LEVEL_TIMER
;
; crossPRGBankJump0(decrement_was_on_slope);
;
	.dbg	line, "SAUCE/gamestates/state_game.h", 554
L00B8:	lda     #<_decrement_was_on_slope
	ldx     #>_decrement_was_on_slope
	ldy     #<.bank(_decrement_was_on_slope)
	jsr     crossPRGBankJump
;
; check_for_cube_data_2_set();
;
	.dbg	line, "SAUCE/gamestates/state_game.h", 556
	jsr     _check_for_cube_data_2_set
;
; if (orbed[currplayer]) {
;
	.dbg	line, "SAUCE/gamestates/state_game.h", 558
	ldy     _currplayer
	lda     _orbed,y
	beq     L00BB
;
; if (!(controllingplayer->hold & (PAD_A | PAD_UP)) && !(mouse.status_raw & MOUSE_LEFT)) orbed[currplayer] = 0;
;
	.dbg	line, "SAUCE/gamestates/state_game.h", 559
	ldy     #$00
	lda     (_controllingplayer),y
	and     #$88
	bne     L00BB
	lda     _mouse+1
	and     #$40
	bne     L00BB
	ldy     _currplayer
	sta     _orbed,y
;
; crossPRGBankJump0(sprite_collide);
;
	.dbg	line, "SAUCE/gamestates/state_game.h", 562
L00BB:	lda     #<_sprite_collide
	ldx     #>_sprite_collide
	ldy     #<.bank(_sprite_collide)
	jsr     crossPRGBankJump
;
; if (retro_mode) { if (gamemode == GAMEMODE_CUBE) gamemode = GAMEMODE_ROBOT; }
;
	.dbg	line, "SAUCE/gamestates/state_game.h", 564
	lda     _retro_mode
	beq     L00C1
	lda     _gamemode
	bne     L00C1
	lda     #$04
	sta     _gamemode
;
; crossPRGBankJump0(movement);
;
	.dbg	line, "SAUCE/gamestates/state_game.h", 572
L00C1:	lda     #<_movement
	ldx     #>_movement
	ldy     #<.bank(_movement)
	jsr     crossPRGBankJump
;
; processXMovement = 1;
;
	.dbg	line, "SAUCE/gamestates/state_game.h", 574
	lda     #$01
	sta     _processXMovement
;
; runthecolls();
;
	.dbg	line, "SAUCE/gamestates/state_game.h", 576
	jsr     _runthecolls
;
; processXMovement = 0;
;
	.dbg	line, "SAUCE/gamestates/state_game.h", 578
	lda     #$00
	sta     _processXMovement
;
; dblocked[currplayer] = 0;
;
	.dbg	line, "SAUCE/gamestates/state_game.h", 580
	ldy     _currplayer
	sta     _dblocked,y
;
; if (invincible_counter) invincible_counter--;
;
	.dbg	line, "SAUCE/gamestates/state_game.h", 581
	lda     _invincible_counter
	beq     L00C3
	dec     _invincible_counter
;
; crossPRGBankJump0(do_the_scroll_thing);
;
	.dbg	line, "SAUCE/gamestates/state_game.h", 583
L00C3:	lda     #<_do_the_scroll_thing
	ldx     #>_do_the_scroll_thing
	ldy     #<.bank(_do_the_scroll_thing)
	jsr     crossPRGBankJump
	lda     ptr3
	ldx     ptr3+1
;
; check_spr_objects();
;
	.dbg	line, "SAUCE/gamestates/state_game.h", 585
	jsr     _check_spr_objects
;
; mmc3_set_prg_bank_1(GET_BANK(sprite_collide));
;
	.dbg	line, "SAUCE/gamestates/state_game.h", 589
	lda     #<.bank(_sprite_collide)
	jsr     _mmc3_set_prg_bank_1
;
; player_x[0] = currplayer_x;
;
	.dbg	line, "SAUCE/gamestates/state_game.h", 591
	lda     _currplayer_x+1
	sta     _player_x+1
	lda     _currplayer_x
	sta     _player_x
;
; player_y[0] = currplayer_y;
;
	.dbg	line, "SAUCE/gamestates/state_game.h", 592
	lda     _currplayer_y+1
	sta     _player_y+1
	lda     _currplayer_y
	sta     _player_y
;
; player_vel_x[0] = currplayer_vel_x;
;
	.dbg	line, "SAUCE/gamestates/state_game.h", 593
	lda     _currplayer_vel_x+1
	sta     _player_vel_x+1
	lda     _currplayer_vel_x
	sta     _player_vel_x
;
; player_vel_y[0] = currplayer_vel_y;
;
	.dbg	line, "SAUCE/gamestates/state_game.h", 594
	lda     _currplayer_vel_y+1
	sta     _player_vel_y+1
	lda     _currplayer_vel_y
	sta     _player_vel_y
;
; player_gravity[0] = currplayer_gravity;
;
	.dbg	line, "SAUCE/gamestates/state_game.h", 595
	lda     _currplayer_gravity
	sta     _player_gravity
;
; player_mini[0] = currplayer_mini;
;
	.dbg	line, "SAUCE/gamestates/state_game.h", 596
	lda     _currplayer_mini
	sta     _player_mini
;
; slope_frames[0] = currplayer_slope_frames;
;
	.dbg	line, "SAUCE/gamestates/state_game.h", 597
	lda     _currplayer_slope_frames
	sta     _slope_frames
;
; was_on_slope_counter[0] = currplayer_was_on_slope_counter;
;
	.dbg	line, "SAUCE/gamestates/state_game.h", 598
	lda     _currplayer_was_on_slope_counter
	sta     _was_on_slope_counter
;
; slope_type[0] = currplayer_slope_type;
;
	.dbg	line, "SAUCE/gamestates/state_game.h", 599
	lda     _currplayer_slope_type
	sta     _slope_type
;
; last_slope_type[0] = currplayer_last_slope_type;
;
	.dbg	line, "SAUCE/gamestates/state_game.h", 600
	lda     _currplayer_last_slope_type
	sta     _last_slope_type
;
; if (dual) { 
;
	.dbg	line, "SAUCE/gamestates/state_game.h", 604
	lda     _dual
	bne     L0177
;
; }
;
	.dbg	line, "SAUCE/gamestates/state_game.h", 681
	rts
;
; currplayer = 1;     //take focus
;
	.dbg	line, "SAUCE/gamestates/state_game.h", 605
L0177:	lda     #$01
	sta     _currplayer
;
; if (!(joypad2.hold & (PAD_A | PAD_UP))) {
;
	.dbg	line, "SAUCE/gamestates/state_game.h", 606
	lda     _joypad2
	and     #$88
	bne     L00C6
;
; if (dashing[1]) currplayer_vel_y = currplayer_gravity ? -0x0100 : 0x0100;
;
	.dbg	line, "SAUCE/gamestates/state_game.h", 607
	lda     _dashing+1
	beq     L015F
	lda     _currplayer_gravity
	beq     L00C8
	ldx     #$FF
	jmp     L00EA
L00C8:	ldx     #$01
L00EA:	lda     #$00
	sta     _currplayer_vel_y
	stx     _currplayer_vel_y+1
;
; dashing[1] = 0;
;
	.dbg	line, "SAUCE/gamestates/state_game.h", 608
L015F:	sta     _dashing+1
;
; if (twoplayer || !(mouse.status_computed & MOUSE_CONNECTED)) controllingplayer = &joypad2;  //take controls
;
	.dbg	line, "SAUCE/gamestates/state_game.h", 610
L00C6:	lda     _twoplayer
	bne     L0160
	lda     _mouse
	and     #$80
	bne     L00CA
L0160:	lda     #>(_joypad2)
	sta     _controllingplayer+1
	lda     #<(_joypad2)
	sta     _controllingplayer
;
; currplayer_x = player_x[1];
;
	.dbg	line, "SAUCE/gamestates/state_game.h", 614
L00CA:	lda     _player_x+2+1
	sta     _currplayer_x+1
	lda     _player_x+2
	sta     _currplayer_x
;
; currplayer_y = player_y[1];
;
	.dbg	line, "SAUCE/gamestates/state_game.h", 615
	lda     _player_y+2+1
	sta     _currplayer_y+1
	lda     _player_y+2
	sta     _currplayer_y
;
; currplayer_vel_x = player_vel_x[1];
;
	.dbg	line, "SAUCE/gamestates/state_game.h", 616
	lda     _player_vel_x+2+1
	sta     _currplayer_vel_x+1
	lda     _player_vel_x+2
	sta     _currplayer_vel_x
;
; currplayer_vel_y = player_vel_y[1];
;
	.dbg	line, "SAUCE/gamestates/state_game.h", 617
	lda     _player_vel_y+2+1
	sta     _currplayer_vel_y+1
	lda     _player_vel_y+2
	sta     _currplayer_vel_y
;
; currplayer_gravity = player_gravity[1];
;
	.dbg	line, "SAUCE/gamestates/state_game.h", 618
	lda     _player_gravity+1
	sta     _currplayer_gravity
;
; currplayer_mini = player_mini[1];
;
	.dbg	line, "SAUCE/gamestates/state_game.h", 619
	lda     _player_mini+1
	sta     _currplayer_mini
;
; currplayer_slope_frames = slope_frames[1];
;
	.dbg	line, "SAUCE/gamestates/state_game.h", 620
	lda     _slope_frames+1
	sta     _currplayer_slope_frames
;
; currplayer_was_on_slope_counter = was_on_slope_counter[1];
;
	.dbg	line, "SAUCE/gamestates/state_game.h", 621
	lda     _was_on_slope_counter+1
	sta     _currplayer_was_on_slope_counter
;
; currplayer_slope_type = slope_type[1];
;
	.dbg	line, "SAUCE/gamestates/state_game.h", 622
	lda     _slope_type+1
	sta     _currplayer_slope_type
;
; currplayer_last_slope_type = last_slope_type[1];
;
	.dbg	line, "SAUCE/gamestates/state_game.h", 623
	ldx     #$00
	lda     _last_slope_type+1
	sta     _currplayer_last_slope_type
;
; update_currplayer_table_idx();
;
	.dbg	line, "SAUCE/gamestates/state_game.h", 624
	jsr     _update_currplayer_table_idx
;
; if (controllingplayer->press_right && DEBUG_MODE && !(options & platformer) && !force_platformer) { invert_gravity(currplayer_gravity); update_currplayer_table_idx(); }   //DEBUG GRAVITY
;
	.dbg	line, "SAUCE/gamestates/state_game.h", 627
	ldy     #$01
	lda     (_controllingplayer),y
	and     #$01
	beq     L00CE
	lda     _DEBUG_MODE
	beq     L00CE
	lda     _options
	and     #$04
	bne     L00CE
	lda     _force_platformer
	bne     L00CE
	tax
	lda     _currplayer_gravity
	eor     #$FF
	sta     _currplayer_gravity
	jsr     _update_currplayer_table_idx
;
; check_for_cube_data_2_set();
;
	.dbg	line, "SAUCE/gamestates/state_game.h", 628
L00CE:	jsr     _check_for_cube_data_2_set
;
; crossPRGBankJump0(decrement_was_on_slope);  
;
	.dbg	line, "SAUCE/gamestates/state_game.h", 630
	lda     #<_decrement_was_on_slope
	ldx     #>_decrement_was_on_slope
	ldy     #<.bank(_decrement_was_on_slope)
	jsr     crossPRGBankJump
;
; if (orbed[currplayer]) {
;
	.dbg	line, "SAUCE/gamestates/state_game.h", 631
	ldy     _currplayer
	lda     _orbed,y
	beq     L00D4
;
; if (!(controllingplayer->hold & (PAD_A | PAD_UP))) orbed[currplayer] = 0;
;
	.dbg	line, "SAUCE/gamestates/state_game.h", 632
	ldy     #$00
	lda     (_controllingplayer),y
	and     #$88
	bne     L00D4
	ldy     _currplayer
	sta     _orbed,y
;
; crossPRGBankJump0(sprite_collide);
;
	.dbg	line, "SAUCE/gamestates/state_game.h", 635
L00D4:	lda     #<_sprite_collide
	ldx     #>_sprite_collide
	ldy     #<.bank(_sprite_collide)
	jsr     crossPRGBankJump
;
; crossPRGBankJump0(movement);
;
	.dbg	line, "SAUCE/gamestates/state_game.h", 642
	lda     #<_movement
	ldx     #>_movement
	ldy     #<.bank(_movement)
	jsr     crossPRGBankJump
;
; if (dual && ((options & platformer) || force_platformer) && !twoplayer) { currplayer_x = player_x[0]; currplayer_vel_x = player_vel_x[0]; }
;
	.dbg	line, "SAUCE/gamestates/state_game.h", 644
	lda     _dual
	beq     L00D6
	lda     _options
	and     #$04
	bne     L0164
	lda     _force_platformer
	beq     L00D6
L0164:	lda     _twoplayer
;
; else if (dual && !(options & platformer) && !force_platformer) { currplayer_x = player_x[0]; currplayer_vel_x = player_vel_x[0]; }
;
	.dbg	line, "SAUCE/gamestates/state_game.h", 645
	beq     L0176
L00D6:	lda     _dual
	beq     L016C
	lda     _options
	and     #$04
	bne     L0170
	lda     _force_platformer
	bne     L0170
L0176:	lda     _player_x+1
	sta     _currplayer_x+1
	lda     _player_x
	sta     _currplayer_x
	lda     _player_vel_x+1
	sta     _currplayer_vel_x+1
	lda     _player_vel_x
	sta     _currplayer_vel_x
;
; processXMovement = 0;
;
	.dbg	line, "SAUCE/gamestates/state_game.h", 647
L0170:	lda     #$00
L016C:	sta     _processXMovement
;
; runthecolls();
;
	.dbg	line, "SAUCE/gamestates/state_game.h", 648
	jsr     _runthecolls
;
; processXMovement = 1;
;
	.dbg	line, "SAUCE/gamestates/state_game.h", 649
	lda     #$01
	sta     _processXMovement
;
; dblocked[currplayer] = 0;
;
	.dbg	line, "SAUCE/gamestates/state_game.h", 650
	ldy     _currplayer
	lda     #$00
	sta     _dblocked,y
;
; currplayer = 0;     //give back focus
;
	.dbg	line, "SAUCE/gamestates/state_game.h", 651
	sta     _currplayer
;
; controllingplayer = &joypad1;  //give back controls
;
	.dbg	line, "SAUCE/gamestates/state_game.h", 654
	lda     #>(_joypad1)
	sta     _controllingplayer+1
	lda     #<(_joypad1)
	sta     _controllingplayer
;
; player_x[1] = currplayer_x;
;
	.dbg	line, "SAUCE/gamestates/state_game.h", 657
	lda     _currplayer_x+1
	sta     _player_x+2+1
	lda     _currplayer_x
	sta     _player_x+2
;
; player_y[1] = currplayer_y;
;
	.dbg	line, "SAUCE/gamestates/state_game.h", 658
	lda     _currplayer_y+1
	sta     _player_y+2+1
	lda     _currplayer_y
	sta     _player_y+2
;
; player_vel_x[1] = currplayer_vel_x;
;
	.dbg	line, "SAUCE/gamestates/state_game.h", 659
	lda     _currplayer_vel_x+1
	sta     _player_vel_x+2+1
	lda     _currplayer_vel_x
	sta     _player_vel_x+2
;
; player_vel_y[1] = currplayer_vel_y;
;
	.dbg	line, "SAUCE/gamestates/state_game.h", 660
	lda     _currplayer_vel_y+1
	sta     _player_vel_y+2+1
	lda     _currplayer_vel_y
	sta     _player_vel_y+2
;
; player_gravity[1] = currplayer_gravity;
;
	.dbg	line, "SAUCE/gamestates/state_game.h", 661
	lda     _currplayer_gravity
	sta     _player_gravity+1
;
; player_mini[1] = currplayer_mini;
;
	.dbg	line, "SAUCE/gamestates/state_game.h", 662
	lda     _currplayer_mini
	sta     _player_mini+1
;
; slope_frames[1] = currplayer_slope_frames;
;
	.dbg	line, "SAUCE/gamestates/state_game.h", 663
	lda     _currplayer_slope_frames
	sta     _slope_frames+1
;
; was_on_slope_counter[1] = currplayer_was_on_slope_counter;
;
	.dbg	line, "SAUCE/gamestates/state_game.h", 664
	lda     _currplayer_was_on_slope_counter
	sta     _was_on_slope_counter+1
;
; slope_type[1] = currplayer_slope_type;
;
	.dbg	line, "SAUCE/gamestates/state_game.h", 665
	lda     _currplayer_slope_type
	sta     _slope_type+1
;
; last_slope_type[1] = currplayer_last_slope_type;
;
	.dbg	line, "SAUCE/gamestates/state_game.h", 666
	lda     _currplayer_last_slope_type
	sta     _last_slope_type+1
;
; currplayer_x = player_x[0];
;
	.dbg	line, "SAUCE/gamestates/state_game.h", 668
	lda     _player_x+1
	sta     _currplayer_x+1
	lda     _player_x
	sta     _currplayer_x
;
; currplayer_y = player_y[0];
;
	.dbg	line, "SAUCE/gamestates/state_game.h", 669
	lda     _player_y+1
	sta     _currplayer_y+1
	lda     _player_y
	sta     _currplayer_y
;
; currplayer_vel_x = player_vel_x[0];
;
	.dbg	line, "SAUCE/gamestates/state_game.h", 670
	lda     _player_vel_x+1
	sta     _currplayer_vel_x+1
	lda     _player_vel_x
	sta     _currplayer_vel_x
;
; currplayer_vel_y = player_vel_y[0];
;
	.dbg	line, "SAUCE/gamestates/state_game.h", 671
	lda     _player_vel_y+1
	sta     _currplayer_vel_y+1
	lda     _player_vel_y
	sta     _currplayer_vel_y
;
; currplayer_gravity = player_gravity[0];
;
	.dbg	line, "SAUCE/gamestates/state_game.h", 672
	lda     _player_gravity
	sta     _currplayer_gravity
;
; currplayer_mini = player_mini[0];
;
	.dbg	line, "SAUCE/gamestates/state_game.h", 673
	lda     _player_mini
	sta     _currplayer_mini
;
; currplayer_slope_frames = slope_frames[0];
;
	.dbg	line, "SAUCE/gamestates/state_game.h", 674
	lda     _slope_frames
	sta     _currplayer_slope_frames
;
; currplayer_was_on_slope_counter = was_on_slope_counter[0];
;
	.dbg	line, "SAUCE/gamestates/state_game.h", 675
	lda     _was_on_slope_counter
	sta     _currplayer_was_on_slope_counter
;
; currplayer_slope_type = slope_type[0];
;
	.dbg	line, "SAUCE/gamestates/state_game.h", 676
	lda     _slope_type
	sta     _currplayer_slope_type
;
; currplayer_last_slope_type = last_slope_type[0];
;
	.dbg	line, "SAUCE/gamestates/state_game.h", 677
	ldx     #$00
	lda     _last_slope_type
	sta     _currplayer_last_slope_type
;
; update_currplayer_table_idx();
;
	.dbg	line, "SAUCE/gamestates/state_game.h", 678
	jmp     _update_currplayer_table_idx

	.dbg	line
.endproc

; ---------------------------------------------------------------
; void __near__ check_for_cube_data_2_set (void)
; ---------------------------------------------------------------

.segment	"CODE"

.proc	_check_for_cube_data_2_set: near

	.dbg	func, "check_for_cube_data_2_set", "00", static, "_check_for_cube_data_2_set"

.segment	"CODE"

;
; if ((controllingplayer->press & (PAD_A | PAD_UP)) && currplayer_vel_y != 0 && (gamemode != GAMEMODE_UFO && gamemode != GAMEMODE_SHIP)) idx8_store(cube_data, currplayer, cube_data[currplayer] | 0x02);
;
	.dbg	line, "SAUCE/gamestates/state_game.h", 44
	ldy     #$01
	lda     (_controllingplayer),y
	and     #$88
	beq     L000E
	lda     _currplayer_vel_y
	ora     _currplayer_vel_y+1
	beq     L000E
	lda     _gamemode
	cmp     #$03
	beq     L000E
	cmp     #$01
	bne     L0011
	rts
L000E:	rts
L0011:	ldy     _currplayer
	lda     _cube_data,y
	ora     #$02
	sta     _cube_data,y
;
; }
;
	.dbg	line, "SAUCE/gamestates/state_game.h", 45
	rts

	.dbg	line
.endproc

; ---------------------------------------------------------------
; void __near__ runthecolls (void)
; ---------------------------------------------------------------

.segment	"CODE"

.proc	_runthecolls: near

	.dbg	func, "runthecolls", "00", static, "_runthecolls"

.segment	"CODE"

;
; if (!invincible_counter) {
;
	.dbg	line, "SAUCE/gamestates/state_game.h", 275
	lda     _invincible_counter
	bne     L0002
;
; x_movement_coll();
;
	.dbg	line, "SAUCE/gamestates/state_game.h", 276
	jsr     _x_movement_coll
;
; if (processXMovement) {
;
	.dbg	line, "SAUCE/gamestates/state_game.h", 279
L0002:	lda     _processXMovement
	beq     L0003
;
; x_movement();
;
	.dbg	line, "SAUCE/gamestates/state_game.h", 280
	jsr     _x_movement
;
; if (!invincible_counter) {
;
	.dbg	line, "SAUCE/gamestates/state_game.h", 285
L0003:	lda     _invincible_counter
	bne     L0004
;
; crossPRGBankJump0(bg_coll_death);
;
	.dbg	line, "SAUCE/gamestates/state_game.h", 286
	lda     #<_bg_coll_death
	ldx     #>_bg_coll_death
	ldy     #<.bank(_bg_coll_death)
	jmp     crossPRGBankJump
;
; }    
;
	.dbg	line, "SAUCE/gamestates/state_game.h", 288
L0004:	rts

	.dbg	line
.endproc

; ---------------------------------------------------------------
; void __near__ set_player_banks (void)
; ---------------------------------------------------------------

.segment	"CODE"

.proc	_set_player_banks: near

	.dbg	func, "set_player_banks", "00", static, "_set_player_banks"

.segment	"CODE"

;
; if (!retro_mode) {
;
	.dbg	line, "SAUCE/gamestates/state_game.h", 291
	lda     _retro_mode
	bne     L0002
;
; iconbank1 = 20; iconbank2 = 24; iconbank3 = iconbank;
;
	.dbg	line, "SAUCE/gamestates/state_game.h", 292
	lda     #$14
	sta     _iconbank1
	lda     #$18
	sta     _iconbank2
	lda     _iconbank
;
; else {
;
	.dbg	line, "SAUCE/gamestates/state_game.h", 294
	jmp     L0020
;
; iconbank1 = 22; iconbank2 = 26; iconbank3 = 18;
;
	.dbg	line, "SAUCE/gamestates/state_game.h", 295
L0002:	lda     #$16
	sta     _iconbank1
	lda     #$1A
	sta     _iconbank2
	lda     #$12
L0020:	sta     _iconbank3
;
; if ((gamemode == GAMEMODE_NINJA && !retro_mode) || gamemode == GAMEMODE_SNAKE) mmc3_set_2kb_chr_bank_0(NINJABANK);
;
	.dbg	line, "SAUCE/gamestates/state_game.h", 298
	lda     _gamemode
	cmp     #$08
	bne     L0024
	lda     _retro_mode
	beq     L0027
L0024:	lda     _gamemode
	cmp     #$0A
	bne     L0004
L0027:	lda     #$5C
;
; else if ((currplayer_mini && (gamemode != GAMEMODE_CUBE && gamemode != GAMEMODE_BALL && gamemode != GAMEMODE_ROBOT && gamemode != GAMEMODE_FOOTBALL)) || (gamemode == GAMEMODE_SWING) || (gamemode == GAMEMODE_WAVE || gamemode == GAMEMODE_SNAKE || gamemode == GAMEMODE_POGO)) mmc3_set_2kb_chr_bank_0(iconbank2);
;
	.dbg	line, "SAUCE/gamestates/state_game.h", 299
	jmp     _mmc3_set_2kb_chr_bank_0
L0004:	lda     _currplayer_mini
	beq     L002F
	lda     _gamemode
	beq     L002F
	cmp     #$02
	beq     L002F
	cmp     #$04
	beq     L002F
	cmp     #$0B
	bne     L0035
L002F:	lda     _gamemode
	cmp     #$07
	beq     L0035
	cmp     #$06
	beq     L0035
	cmp     #$0A
	beq     L0035
	cmp     #$09
	bne     L0036
L0035:	lda     _iconbank2
;
; else if (gamemode == GAMEMODE_CUBE || gamemode == GAMEMODE_SHIP || gamemode == GAMEMODE_UFO) mmc3_set_2kb_chr_bank_0(iconbank3);
;
	.dbg	line, "SAUCE/gamestates/state_game.h", 300
	jmp     _mmc3_set_2kb_chr_bank_0
L0036:	lda     _gamemode
	beq     L0039
	cmp     #$01
	beq     L0039
	cmp     #$03
	bne     L003A
L0039:	lda     _iconbank3
;
; else if (gamemode == GAMEMODE_FOOTBALL) mmc3_set_2kb_chr_bank_0(FOOTBALLBANK);
;
	.dbg	line, "SAUCE/gamestates/state_game.h", 301
	jmp     _mmc3_set_2kb_chr_bank_0
L003A:	lda     _gamemode
	cmp     #$0B
	bne     L003B
	lda     #$5E
;
; else mmc3_set_2kb_chr_bank_0(iconbank1);
;
	.dbg	line, "SAUCE/gamestates/state_game.h", 302
	jmp     _mmc3_set_2kb_chr_bank_0
L003B:	lda     _iconbank1
	jmp     _mmc3_set_2kb_chr_bank_0

	.dbg	line
.endproc

; ---------------------------------------------------------------
; void __near__ state_game (void)
; ---------------------------------------------------------------

.segment	"CODE"

.proc	_state_game: near

	.dbg	func, "state_game", "00", static, "_state_game"

.segment	"CODE"

;
; coin1_timer = 0;
;
	.dbg	line, "SAUCE/gamestates/state_game.h", 60
	lda     #$00
	sta     _coin1_timer
;
; coin2_timer = 0;
;
	.dbg	line, "SAUCE/gamestates/state_game.h", 61
	sta     _coin2_timer
;
; coin3_timer = 0;
;
	.dbg	line, "SAUCE/gamestates/state_game.h", 62
	sta     _coin3_timer
;
; kandokidshack = 0;
;
	.dbg	line, "SAUCE/gamestates/state_game.h", 63
	sta     _kandokidshack
;
; kandokidshack2 = 0;
;
	.dbg	line, "SAUCE/gamestates/state_game.h", 64
	sta     _kandokidshack2
;
; kandokidshack3 = 0;
;
	.dbg	line, "SAUCE/gamestates/state_game.h", 65
	sta     _kandokidshack3
;
; kandokidshack4 = 0;
;
	.dbg	line, "SAUCE/gamestates/state_game.h", 66
	sta     _kandokidshack4
;
; animating = 0;
;
	.dbg	line, "SAUCE/gamestates/state_game.h", 67
	sta     _animating
;
; orbactive = 0;
;
	.dbg	line, "SAUCE/gamestates/state_game.h", 68
	sta     _orbactive
;
; nocamlock = 0;
;
	.dbg	line, "SAUCE/gamestates/state_game.h", 69
	sta     _nocamlock
;
; currplayer = 0;
;
	.dbg	line, "SAUCE/gamestates/state_game.h", 70
	sta     _currplayer
;
; END_LEVEL_TIMER = 0;
;
	.dbg	line, "SAUCE/gamestates/state_game.h", 71
	sta     _END_LEVEL_TIMER
;
; kandoframecnt = 0;
;
	.dbg	line, "SAUCE/gamestates/state_game.h", 72
	sta     _kandoframecnt
;
; practice_point_count = 0;
;
	.dbg	line, "SAUCE/gamestates/state_game.h", 73
	sta     _practice_point_count
;
; memfill(trail_sprites_visible, 0, sizeof(trail_sprites_visible));
;
	.dbg	line, "SAUCE/gamestates/state_game.h", 74
	lda     #>(_trail_sprites_visible)
	sta     _xargs+1
	lda     #<(_trail_sprites_visible)
	sta     _xargs
	ldx     #$00
	lda     #$09
	stx     sreg+1
	sta     sreg
	txa
	jsr     __memfill
;
; memfill(attemptCounter, 0, sizeof(attemptCounter));
;
	.dbg	line, "SAUCE/gamestates/state_game.h", 75
	lda     #>(_attemptCounter)
	sta     _xargs+1
	lda     #<(_attemptCounter)
	sta     _xargs
	ldx     #$00
	lda     #$07
	stx     sreg+1
	sta     sreg
	txa
	jsr     __memfill
;
; outline_color = 0x30;
;
	.dbg	line, "SAUCE/gamestates/state_game.h", 77
	lda     #$30
	sta     _outline_color
;
; lastgcolortype = 0xFF;
;
	.dbg	line, "SAUCE/gamestates/state_game.h", 79
	lda     #$FF
	sta     _lastgcolortype
;
; lastbgcolortype = 0xFF;
;
	.dbg	line, "SAUCE/gamestates/state_game.h", 80
	sta     _lastbgcolortype
;
; if (trueFramerate == SPEED_PAL && options & fullpalspeed)
;
	.dbg	line, "SAUCE/gamestates/state_game.h", 82
	lda     _trueFramerate
	bne     L0065
	lda     _options
	and     #$10
	beq     L0065
;
; framerate = SPEED_PAL;
;
	.dbg	line, "SAUCE/gamestates/state_game.h", 83
	lda     #$00
;
; else
;
	.dbg	line, "SAUCE/gamestates/state_game.h", 84
	jmp     L0060
;
; framerate = SPEED_NTSC;
;
	.dbg	line, "SAUCE/gamestates/state_game.h", 85
L0065:	lda     #$01
L0060:	sta     _framerate
;
; use_auto_chrswitch = 1;
;
	.dbg	line, "SAUCE/gamestates/state_game.h", 89
	lda     #$01
	sta     _use_auto_chrswitch
;
; pal_bg(paletteDefault);
;
	.dbg	line, "SAUCE/gamestates/state_game.h", 91
	lda     #<(_paletteDefault)
	ldx     #>(_paletteDefault)
	jsr     _pal_bg
;
; pal_spr(paletteDefaultSP);  //needed
;
	.dbg	line, "SAUCE/gamestates/state_game.h", 92
	lda     #<(_paletteDefaultSP)
	ldx     #>(_paletteDefaultSP)
	jsr     _pal_spr
;
; crossPRGBankJump8(load_ground,0);
;
	.dbg	line, "SAUCE/gamestates/state_game.h", 94
	lda     #$00
	sta     ptr3
	lda     #<_load_ground
	ldx     #>_load_ground
	ldy     #<.bank(_load_ground)
	jsr     crossPRGBankJump
	lda     ptr3
	ldx     ptr3+1
;
; oam_clear();
;
	.dbg	line, "SAUCE/gamestates/state_game.h", 96
	jsr     _oam_clear
;
; controllingplayer = &joypad1;
;
	.dbg	line, "SAUCE/gamestates/state_game.h", 98
	lda     #>(_joypad1)
	sta     _controllingplayer+1
	lda     #<(_joypad1)
	sta     _controllingplayer
;
; mmc3_set_prg_bank_1(GET_BANK(reset_level));
;
	.dbg	line, "SAUCE/gamestates/state_game.h", 100
	lda     #<.bank(_reset_level)
	jsr     _mmc3_set_prg_bank_1
;
; reset_level();
;
	.dbg	line, "SAUCE/gamestates/state_game.h", 101
	jsr     _reset_level
;
; scroll_y = spawn_scroll_y_pos;
;
	.dbg	line, "SAUCE/gamestates/state_game.h", 103
	lda     _spawn_scroll_y_pos+1
	sta     _scroll_y+1
	lda     _spawn_scroll_y_pos
	sta     _scroll_y
;
; seam_scroll_y = (spawn_scroll_y_pos - 0x78); // [temp] 
;
	.dbg	line, "SAUCE/gamestates/state_game.h", 104
	ldx     _spawn_scroll_y_pos+1
	sec
	sbc     #$78
	bcs     L0007
	dex
L0007:	sta     _seam_scroll_y
	stx     _seam_scroll_y+1
;
; set_scroll_y(scroll_y);
;
	.dbg	line, "SAUCE/gamestates/state_game.h", 105
	lda     _scroll_y
	ldx     _scroll_y+1
	jsr     _set_scroll_y
;
; player_y[0] = spawn_y_pos;
;
	.dbg	line, "SAUCE/gamestates/state_game.h", 107
	lda     _spawn_y_pos+1
	sta     _player_y+1
	lda     _spawn_y_pos
	sta     _player_y
;
; player_y[1] = spawn_y_pos;
;
	.dbg	line, "SAUCE/gamestates/state_game.h", 108
	lda     _spawn_y_pos+1
	sta     _player_y+2+1
	lda     _spawn_y_pos
	sta     _player_y+2
;
; currplayer_y = spawn_y_pos; 
;
	.dbg	line, "SAUCE/gamestates/state_game.h", 109
	ldx     _spawn_y_pos+1
	sta     _currplayer_y
	stx     _currplayer_y+1
;
; update_currplayer_table_idx();
;
	.dbg	line, "SAUCE/gamestates/state_game.h", 111
	jsr     _update_currplayer_table_idx
;
; iconbank = (icon<<1) + 40;
;
	.dbg	line, "SAUCE/gamestates/state_game.h", 115
	lda     _icon
	asl     a
	clc
	adc     #$28
	sta     _iconbank
;
; pal_col(0x0A,0x0F);   //palette 2 set to 0x0F for mountains
;
	.dbg	line, "SAUCE/gamestates/state_game.h", 117
	lda     #$0F
	sta     _PAL_BUF_RAW+10
	tay
	lda     (_PAL_PTR),y
	sta     _PAL_BUF+10
;
; pal_col(0x0B,color1);   //palette 2 set to player color
;
	.dbg	line, "SAUCE/gamestates/state_game.h", 118
	lda     _icon_colors
	sta     _PAL_BUF_RAW+11
	tay
	lda     (_PAL_PTR),y
	sta     _PAL_BUF+11
;
; memfill(player_old_posy, 0, sizeof(player_old_posy));
;
	.dbg	line, "SAUCE/gamestates/state_game.h", 120
	lda     #>(_player_old_posy)
	sta     _xargs+1
	lda     #<(_player_old_posy)
	sta     _xargs
	ldx     #$00
	lda     #$09
	stx     sreg+1
	sta     sreg
	txa
	jsr     __memfill
;
; switch (discomode) {
;
	.dbg	line, "SAUCE/gamestates/state_game.h", 122
	lda     _discomode
;
; };
;
	.dbg	line, "SAUCE/gamestates/state_game.h", 134
	cmp     #$01
	beq     L0066
	cmp     #$02
	beq     L0067
	cmp     #$04
	beq     L0068
	cmp     #$08
	beq     L0069
	cmp     #$10
	beq     L006A
;
; pal_col(0x1D,color3);
;
	.dbg	line, "SAUCE/gamestates/state_game.h", 124
	lda     _icon_colors+2
	sta     _PAL_BUF_RAW+29
	tay
	lda     (_PAL_PTR),y
	sta     _PAL_BUF+29
;
; pal_col(0x1E,color1);
;
	.dbg	line, "SAUCE/gamestates/state_game.h", 125
	lda     _icon_colors
	sta     _PAL_BUF_RAW+30
	tay
	lda     (_PAL_PTR),y
	sta     _PAL_BUF+30
;
; pal_col(0x1F,color2);
;
	.dbg	line, "SAUCE/gamestates/state_game.h", 126
	lda     _icon_colors+1
	sta     _PAL_BUF_RAW+31
	ldx     #$00
	ldy     _icon_colors+1
	lda     (_PAL_PTR),y
	sta     _PAL_BUF+31
;
; break;
;
	.dbg	line, "SAUCE/gamestates/state_game.h", 127
	jmp     L006B
;
; case 0x01: discorefreshrate = 0x3F; break;
;
	.dbg	line, "SAUCE/gamestates/state_game.h", 128
L0066:	lda     #$3F
	jmp     L0061
;
; case 0x02: discorefreshrate = 0x1F; break;
;
	.dbg	line, "SAUCE/gamestates/state_game.h", 129
L0067:	lda     #$1F
	jmp     L0061
;
; case 0x04: discorefreshrate = 0x0F; break;
;
	.dbg	line, "SAUCE/gamestates/state_game.h", 130
L0068:	lda     #$0F
	jmp     L0061
;
; case 0x08: discorefreshrate = 0x07; break;
;
	.dbg	line, "SAUCE/gamestates/state_game.h", 131
L0069:	lda     #$07
	jmp     L0061
;
; case 0x10: discorefreshrate = 0x03; break;
;
	.dbg	line, "SAUCE/gamestates/state_game.h", 132
L006A:	lda     #$03
L0061:	sta     _discorefreshrate
;
; pal_set_update();
;
	.dbg	line, "SAUCE/gamestates/state_game.h", 136
	ldx     #$00
L006B:	inc     _PAL_UPDATE
	lda     _PAL_UPDATE
;
; newrand();
;
	.dbg	line, "SAUCE/gamestates/state_game.h", 142
L0011:	jsr     _newrand
;
; if (kandokidshack2 && !(kandoframecnt & 0x0F)) { icon == MAX_ICONS-1 ? icon = 0 : icon++;  iconbank = (icon<<1) + 40; }
;
	.dbg	line, "SAUCE/gamestates/state_game.h", 143
	lda     _kandokidshack2
	beq     L006F
	lda     _kandoframecnt
	and     #$0F
	bne     L006F
	lda     _icon
	cmp     #$19
	bne     L006D
	lda     #$00
	sta     _icon
	jmp     L006E
L006D:	inc     _icon
L006E:	lda     _icon
	asl     a
	clc
	adc     #$28
	sta     _iconbank
;
; pal_col(3,outline_color);
;
	.dbg	line, "SAUCE/gamestates/state_game.h", 144
L006F:	lda     _outline_color
	sta     _PAL_BUF_RAW+3
	tay
	lda     (_PAL_PTR),y
	sta     _PAL_BUF+3
;
; pal_col(7,outline_color);
;
	.dbg	line, "SAUCE/gamestates/state_game.h", 145
	lda     _outline_color
	sta     _PAL_BUF_RAW+7
	tay
	lda     (_PAL_PTR),y
	sta     _PAL_BUF+7
;
; pal_set_update();
;
	.dbg	line, "SAUCE/gamestates/state_game.h", 146
	inc     _PAL_UPDATE
;
; if ((kandoframecnt & 0x1F) == 0x10 ) mmc3_set_2kb_chr_bank_1(current_deco_type + 2);  //DECO
;
	.dbg	line, "SAUCE/gamestates/state_game.h", 149
	lda     _kandoframecnt
	and     #$1F
	cmp     #$10
	bne     L0070
	lda     _current_deco_type
	clc
	adc     #$02
;
; else if ((kandoframecnt & 0x1F) == 0x00) mmc3_set_2kb_chr_bank_1(current_deco_type);  //OR ADDITIONAL SPRITES         //
;
	.dbg	line, "SAUCE/gamestates/state_game.h", 150
	jmp     L0062
L0070:	lda     _kandoframecnt
	and     #$1F
	bne     L0071
	lda     _current_deco_type
L0062:	jsr     _mmc3_set_2kb_chr_bank_1
;
; if (((options & platformer) || force_platformer) && !practice_point_count) {
;
	.dbg	line, "SAUCE/gamestates/state_game.h", 152
L0071:	lda     _options
	and     #$04
	bne     L0072
	lda     _force_platformer
	beq     L0076
L0072:	lda     _practice_point_count
	bne     L0076
;
; if (famistudio_song_speed == 0x80) music_play(song);
;
	.dbg	line, "SAUCE/gamestates/state_game.h", 154
	lda     _famistudio_song_speed
	cmp     #$80
	bne     L0076
	lda     _song
	jsr     _music_play
;
; if (((forced_trails == 2) || trails == 2 || !(kandoframecnt & 0x1))) {
;
	.dbg	line, "SAUCE/gamestates/state_game.h", 175
L0076:	lda     _forced_trails
	cmp     #$02
	beq     L0077
	lda     _trails
	cmp     #$02
	beq     L0077
	lda     _kandoframecnt
	and     #$01
	jne     L002B
;
; if (!(kandoframecnt & 1)) {
;
	.dbg	line, "SAUCE/gamestates/state_game.h", 176
L0077:	lda     _kandoframecnt
	and     #$01
	jne     L002B
;
; if (old_trail_scroll_y >= scroll_y) {
;
	.dbg	line, "SAUCE/gamestates/state_game.h", 177
	lda     _old_trail_scroll_y
	cmp     _scroll_y
	lda     _old_trail_scroll_y+1
	sbc     _scroll_y+1
	bcc     L002C
;
; tmp6 = calculate_linear_scroll_y(sub_scroll_y_ext(scroll_y, old_trail_scroll_y));
;
	.dbg	line, "SAUCE/gamestates/state_game.h", 178
	lda     _scroll_y
	ldx     _scroll_y+1
	stx     sreg+1
	sta     sreg
	lda     _old_trail_scroll_y+1
	ldx     _old_trail_scroll_y
	jsr     __sub_scroll_y_ext
	jsr     _calculate_linear_scroll_y
	sta     _tmp6
	stx     _tmp6+1
;
; } else {
;
	.dbg	line, "SAUCE/gamestates/state_game.h", 179
	jmp     L002E
;
; tmp6 = calculate_linear_scroll_y(sub_scroll_y_ext(old_trail_scroll_y, scroll_y));
;
	.dbg	line, "SAUCE/gamestates/state_game.h", 180
L002C:	lda     _old_trail_scroll_y
	ldx     _old_trail_scroll_y+1
	stx     sreg+1
	sta     sreg
	lda     _scroll_y+1
	ldx     _scroll_y
	jsr     __sub_scroll_y_ext
	jsr     _calculate_linear_scroll_y
	sta     _tmp6
	stx     _tmp6+1
;
; tmp6 ^= 0xFFFF; tmp6++;
;
	.dbg	line, "SAUCE/gamestates/state_game.h", 181
	eor     #$FF
	sta     _tmp6
	txa
	eor     #$FF
	sta     _tmp6+1
	inc     _tmp6
	bne     L002E
	inc     _tmp6+1
;
; tmp3 = 7;
;
	.dbg	line, "SAUCE/gamestates/state_game.h", 183
L002E:	lda     #$07
	sta     _tmp3
;
; tmp5 = player_old_posy[tmp3] + tmp6;
;
	.dbg	line, "SAUCE/gamestates/state_game.h", 185
L002F:	ldy     _tmp3
	lda     _player_old_posy,y
	clc
	adc     _tmp6
	sta     _tmp5
	lda     #$00
	adc     _tmp6+1
	sta     _tmp5+1
;
; if (high_byte(tmp5) != 0) low_byte(tmp5) = 0;
;
	.dbg	line, "SAUCE/gamestates/state_game.h", 186
	lda     _tmp5+1
	beq     L0033
	lda     #$00
	sta     _tmp5
;
; (&player_old_posy[1])[tmp3] = tmp5;
;
	.dbg	line, "SAUCE/gamestates/state_game.h", 187
L0033:	ldy     _tmp3
	lda     _tmp5
	sta     _player_old_posy+1,y
;
; --tmp3;
;
	.dbg	line, "SAUCE/gamestates/state_game.h", 188
	dec     _tmp3
;
; } while ((int8_t)tmp3 >= 0);
;
	.dbg	line, "SAUCE/gamestates/state_game.h", 189
	bpl     L002F
;
; player_old_posy[0] = high_byte(player_y[0]);
;
	.dbg	line, "SAUCE/gamestates/state_game.h", 190
	lda     _player_y+1
	sta     _player_old_posy
;
; old_trail_scroll_y = scroll_y;
;
	.dbg	line, "SAUCE/gamestates/state_game.h", 191
	lda     _scroll_y+1
	sta     _old_trail_scroll_y+1
	lda     _scroll_y
	sta     _old_trail_scroll_y
;
; if (discomode && !(kandoframecnt & discorefreshrate)) {
;
	.dbg	line, "SAUCE/gamestates/state_game.h", 194
L002B:	lda     _discomode
	jeq     L007B
	lda     _kandoframecnt
	and     _discorefreshrate
	jne     L007B
;
; tmp3 = G_Table[discoframe] + 0x80;
;
	.dbg	line, "SAUCE/gamestates/state_game.h", 196
	ldy     _discoframe
	lda     _G_Table,y
	clc
	adc     #$80
	sta     _tmp3
;
; tmp2 = (tmp3 & 0x3F);        
;
	.dbg	line, "SAUCE/gamestates/state_game.h", 197
	and     #$3F
	sta     _tmp2
;
; pal_col(0, tmp2);
;
	.dbg	line, "SAUCE/gamestates/state_game.h", 198
	sta     _PAL_BUF_RAW
	ldy     _tmp2
	lda     (_PAL_PTR),y
	sta     _PAL_BUF
;
; pal_col(1, oneShadeDarker(tmp2)); 
;
	.dbg	line, "SAUCE/gamestates/state_game.h", 199
	ldy     _tmp2
	lda     palBrightTable3,y
	sta     _PAL_BUF_RAW+1
	ldy     _tmp2
	lda     palBrightTable3,y
	tay
	lda     (_PAL_PTR),y
	sta     _PAL_BUF+1
;
; pal_col(9, oneShadeDarker(tmp2)); 
;
	.dbg	line, "SAUCE/gamestates/state_game.h", 200
	ldy     _tmp2
	lda     palBrightTable3,y
	sta     _PAL_BUF_RAW+9
	ldy     _tmp2
	lda     palBrightTable3,y
	tay
	lda     (_PAL_PTR),y
	sta     _PAL_BUF+9
;
; tmp3 = 0xC0 + BG_Table[discoframe];
;
	.dbg	line, "SAUCE/gamestates/state_game.h", 202
	ldy     _discoframe
	lda     _BG_Table,y
	clc
	adc     #$C0
	sta     _tmp3
;
; tmp2 = (tmp3 & 0x3F);        
;
	.dbg	line, "SAUCE/gamestates/state_game.h", 203
	and     #$3F
	sta     _tmp2
;
; pal_col(6, tmp2);
;
	.dbg	line, "SAUCE/gamestates/state_game.h", 204
	sta     _PAL_BUF_RAW+6
	ldy     _tmp2
	lda     (_PAL_PTR),y
	sta     _PAL_BUF+6
;
; pal_col(5, oneShadeDarker(tmp2)); 
;
	.dbg	line, "SAUCE/gamestates/state_game.h", 205
	ldy     _tmp2
	lda     palBrightTable3,y
	sta     _PAL_BUF_RAW+5
	ldy     _tmp2
	lda     palBrightTable3,y
	tay
	lda     (_PAL_PTR),y
	sta     _PAL_BUF+5
;
; pal_col(0x0D, oneShadeDarker(tmp2)); 
;
	.dbg	line, "SAUCE/gamestates/state_game.h", 206
	ldy     _tmp2
	lda     palBrightTable3,y
	sta     _PAL_BUF_RAW+13
	ldy     _tmp2
	lda     palBrightTable3,y
	tay
	lda     (_PAL_PTR),y
	sta     _PAL_BUF+13
;
; pal_set_update();
;
	.dbg	line, "SAUCE/gamestates/state_game.h", 207
	inc     _PAL_UPDATE
;
; discoframe++;
;
	.dbg	line, "SAUCE/gamestates/state_game.h", 209
	inc     _discoframe
;
; if (discoframe == 12) discoframe = 0;
;
	.dbg	line, "SAUCE/gamestates/state_game.h", 210
	lda     _discoframe
	cmp     #$0C
	bne     L007B
	lda     #$00
	sta     _discoframe
;
; kandoframecnt++;
;
	.dbg	line, "SAUCE/gamestates/state_game.h", 213
L007B:	inc     _kandoframecnt
;
; if (slowmode && (kandokidshack4 == 15)) {
;
	.dbg	line, "SAUCE/gamestates/state_game.h", 214
	lda     _slowmode
	beq     L003F
	lda     _kandokidshack4
	cmp     #$0F
	bne     L003F
;
; if ((kandoframecnt & 3)) { 
;
	.dbg	line, "SAUCE/gamestates/state_game.h", 215
	lda     _kandoframecnt
	ldx     #$00
	and     #$03
	beq     L0046
;
; ppu_wait_nmi(); 
;
	.dbg	line, "SAUCE/gamestates/state_game.h", 216
	jsr     _ppu_wait_nmi
;
; check_for_cube_data_2_set();
;
	.dbg	line, "SAUCE/gamestates/state_game.h", 217
	jsr     _check_for_cube_data_2_set
;
; else { everything_else(); }   //do the normal state_game stuff
;
	.dbg	line, "SAUCE/gamestates/state_game.h", 220
	jmp     L004D
;
; else if ((slowmode || (kandokidshack4 == 15)) && !(kandoframecnt & 1)) { 
;
	.dbg	line, "SAUCE/gamestates/state_game.h", 222
L003F:	lda     _slowmode
	bne     L007F
	lda     _kandokidshack4
	cmp     #$0F
	beq     L007F
	ldx     #$00
	txa
	jmp     L0046
L007F:	lda     _kandoframecnt
	ldx     #$00
	and     #$01
	beq     L0082
	txa
	jmp     L0046
L0082:	lda     #$01
;
; ppu_wait_nmi(); 
;
	.dbg	line, "SAUCE/gamestates/state_game.h", 223
	jsr     _ppu_wait_nmi
;
; if (!(kandokidshack4 == 15)) music_update();
;
	.dbg	line, "SAUCE/gamestates/state_game.h", 224
	ldx     #$00
	lda     _kandokidshack4
	cmp     #$0F
	beq     L004C
	jsr     _music_update
;
; check_for_cube_data_2_set();
;
	.dbg	line, "SAUCE/gamestates/state_game.h", 225
L004C:	jsr     _check_for_cube_data_2_set
;
; else {
;
	.dbg	line, "SAUCE/gamestates/state_game.h", 228
	jmp     L004D
;
; everything_else();    //do the normal state_game stuff
;
	.dbg	line, "SAUCE/gamestates/state_game.h", 229
L0046:	jsr     _everything_else
;
; oam_clear();
;
	.dbg	line, "SAUCE/gamestates/state_game.h", 233
L004D:	jsr     _oam_clear
;
; mmc3_set_prg_bank_1(GET_BANK(draw_screen));
;
	.dbg	line, "SAUCE/gamestates/state_game.h", 235
	lda     #<.bank(_draw_screen)
	jsr     _mmc3_set_prg_bank_1
;
; draw_screen(); 
;
	.dbg	line, "SAUCE/gamestates/state_game.h", 236
	jsr     _draw_screen
;
; mmc3_set_prg_bank_1(GET_BANK(draw_sprites)); 
;
	.dbg	line, "SAUCE/gamestates/state_game.h", 237
	lda     #<.bank(_draw_sprites)
	jsr     _mmc3_set_prg_bank_1
;
; draw_sprites();
;
	.dbg	line, "SAUCE/gamestates/state_game.h", 238
	jsr     _draw_sprites
;
; if (kandodebugmode) { if (mouse_timer) oam_spr(mouse.x, mouse.y - 1, (0xAD), 2); } 
;
	.dbg	line, "SAUCE/gamestates/state_game.h", 240
	lda     _kandodebugmode
	beq     L004F
	lda     _mouse_timer
	beq     L004F
	lda     _mouse+2
	sec
	sbc     #$01
	sta     ptr1+1
	lda     _mouse+3
	sta     sreg
	lda     ptr1+1
	sta     sreg+1
	ldx     #$AD
	lda     #$02
	jsr     __oam_spr
;
; if (level_resetting_flag) level_resetting_flag--;
;
	.dbg	line, "SAUCE/gamestates/state_game.h", 243
L004F:	lda     _level_resetting_flag
	beq     L008A
	dec     _level_resetting_flag
;
; timewarp_done = 0;
;
	.dbg	line, "SAUCE/gamestates/state_game.h", 244
	lda     #$00
L008A:	sta     _timewarp_done
;
; if ((DEBUG_MODE == 1) || (DEBUG_MODE == 2)) gray_line();
;
	.dbg	line, "SAUCE/gamestates/state_game.h", 246
	tax
	lda     _DEBUG_MODE
	cmp     #$01
	beq     L0084
	cmp     #$02
	bne     L0052
	lda     #$01
L0084:	jsr     _gray_line
;
; if (!DEBUG_MODE && kandodebugmode != 2) {
;
	.dbg	line, "SAUCE/gamestates/state_game.h", 247
L0052:	lda     _DEBUG_MODE
	bne     L005D
	lda     _kandodebugmode
	cmp     #$02
	beq     L005D
;
; if (high_byte(player_x[0]) > 0x20) {
;
	.dbg	line, "SAUCE/gamestates/state_game.h", 248
	lda     _player_x+1
	cmp     #$21
	lda     #$00
	bcc     L0088
;
; if (cube_data[0] & 1 || cube_data[1] & 1) {
;
	.dbg	line, "SAUCE/gamestates/state_game.h", 249
	lda     _cube_data
	and     #$01
	bne     L0086
	lda     _cube_data+1
	and     #$01
	beq     L005D
;
; death_animation();
;
	.dbg	line, "SAUCE/gamestates/state_game.h", 250
L0086:	jsr     _death_animation
;
; mmc3_set_prg_bank_1(GET_BANK(reset_level));
;
	.dbg	line, "SAUCE/gamestates/state_game.h", 251
	lda     #<.bank(_reset_level)
	jsr     _mmc3_set_prg_bank_1
;
; reset_level();
;
	.dbg	line, "SAUCE/gamestates/state_game.h", 252
	jsr     _reset_level
;
; } else cube_data[0] = cube_data[1] = 0;
;
	.dbg	line, "SAUCE/gamestates/state_game.h", 264
	jmp     L005D
L0088:	sta     _cube_data+1
	sta     _cube_data
;
; if (gameState != STATE_GAME) return;
;
	.dbg	line, "SAUCE/gamestates/state_game.h", 267
L005D:	ldx     #$00
	lda     _gameState
	cmp     #$02
	bne     L0012
;
; if (mouse_timer) mouse_timer--;
;
	.dbg	line, "SAUCE/gamestates/state_game.h", 268
	lda     _mouse_timer
	jeq     L0011
	dec     _mouse_timer
;
; while (1) {
;
	.dbg	line, "SAUCE/gamestates/state_game.h", 138
	jmp     L0011
;
; }
;
	.dbg	line, "SAUCE/gamestates/state_game.h", 272
L0012:	rts

	.dbg	line
.endproc

; ---------------------------------------------------------------
; void __near__ checkcointimer (void)
; ---------------------------------------------------------------

.segment	"XCD_BANK_06"

.proc	_checkcointimer: near

	.dbg	func, "checkcointimer", "00", static, "_checkcointimer"

.segment	"XCD_BANK_06"

;
; if (tmp1 == 1){
;
	.dbg	line, "SAUCE/gamestates/state_lvldone.h", 305
	lda     _tmp1
	cmp     #$01
	bne     L0002
;
; sfx_play(sfx_coin,0);
;
	.dbg	line, "SAUCE/gamestates/state_lvldone.h", 306
	ldx     #$00
	lda     #$03
	jsr     __sfx_play
;
; tmp1 = 50;
;
	.dbg	line, "SAUCE/gamestates/state_lvldone.h", 307
	lda     #$32
	sta     _tmp1
;
; }
;
	.dbg	line, "SAUCE/gamestates/state_lvldone.h", 309
L0002:	rts

	.dbg	line
.endproc

; ---------------------------------------------------------------
; void __near__ checkcoinproceed (void)
; ---------------------------------------------------------------

.segment	"XCD_BANK_06"

.proc	_checkcoinproceed: near

	.dbg	func, "checkcoinproceed", "00", static, "_checkcoinproceed"

.segment	"XCD_BANK_06"

;
; if (tmp1 == 0 || tmp1 == 30) {
;
	.dbg	line, "SAUCE/gamestates/state_lvldone.h", 311
	lda     _tmp1
	beq     L0005
	cmp     #$1E
	beq     L0005
	rts
;
; tmp2++;
;
	.dbg	line, "SAUCE/gamestates/state_lvldone.h", 312
L0005:	inc     _tmp2
;
; tmp1 = 1;
;
	.dbg	line, "SAUCE/gamestates/state_lvldone.h", 313
	lda     #$01
	sta     _tmp1
;
; }
;
	.dbg	line, "SAUCE/gamestates/state_lvldone.h", 315
	rts

	.dbg	line
.endproc

; ---------------------------------------------------------------
; void __near__ lvl_done_update (void)
; ---------------------------------------------------------------

.segment	"XCD_BANK_06"

.proc	_lvl_done_update: near

	.dbg	func, "lvl_done_update", "00", static, "_lvl_done_update"

.segment	"XCD_BANK_06"

;
; if (menuselection) {
;
	.dbg	line, "SAUCE/gamestates/state_lvldone.h", 290
	lda     _menuselection
	beq     L0002
;
; one_vram_buffer(0xFF, NTADR_A(8,23));
;
	.dbg	line, "SAUCE/gamestates/state_lvldone.h", 291
	lda     #$FF
	sta     sreg+0
	ldx     #$22
	lda     #$E8
	jsr     __one_vram_buffer
;
; one_vram_buffer(0xFF, NTADR_A(9,23));
;
	.dbg	line, "SAUCE/gamestates/state_lvldone.h", 292
	lda     #$FF
	sta     sreg+0
	ldx     #$22
	lda     #$E9
	jsr     __one_vram_buffer
;
; one_vram_buffer(0x94, NTADR_A(22,23));
;
	.dbg	line, "SAUCE/gamestates/state_lvldone.h", 293
	lda     #$94
	sta     sreg+0
	ldx     #$22
	lda     #$F6
	jsr     __one_vram_buffer
;
; one_vram_buffer(0x95, NTADR_A(23,23));
;
	.dbg	line, "SAUCE/gamestates/state_lvldone.h", 294
	lda     #$95
;
; } else {
;
	.dbg	line, "SAUCE/gamestates/state_lvldone.h", 295
	jmp     L0007
;
; one_vram_buffer(0x94, NTADR_A(8,23));
;
	.dbg	line, "SAUCE/gamestates/state_lvldone.h", 296
L0002:	lda     #$94
	sta     sreg+0
	ldx     #$22
	lda     #$E8
	jsr     __one_vram_buffer
;
; one_vram_buffer(0x95, NTADR_A(9,23));
;
	.dbg	line, "SAUCE/gamestates/state_lvldone.h", 297
	lda     #$95
	sta     sreg+0
	ldx     #$22
	lda     #$E9
	jsr     __one_vram_buffer
;
; one_vram_buffer(0xFF, NTADR_A(22,23));
;
	.dbg	line, "SAUCE/gamestates/state_lvldone.h", 298
	lda     #$FF
	sta     sreg+0
	ldx     #$22
	lda     #$F6
	jsr     __one_vram_buffer
;
; one_vram_buffer(0xFF, NTADR_A(23,23));
;
	.dbg	line, "SAUCE/gamestates/state_lvldone.h", 299
	lda     #$FF
L0007:	sta     sreg+0
	ldx     #$22
	lda     #$F7
	jmp     __one_vram_buffer

	.dbg	line
.endproc

; ---------------------------------------------------------------
; void __near__ state_lvldone (void)
; ---------------------------------------------------------------

.segment	"XCD_BANK_06"

.proc	_state_lvldone: near

	.dbg	func, "state_lvldone", "00", static, "_state_lvldone"

.segment	"XCD_BANK_06"

;
; oam_clear();
;
	.dbg	line, "SAUCE/gamestates/state_lvldone.h", 19
	jsr     _oam_clear
;
; mmc3_set_1kb_chr_bank_0(LEVELCOMPLETEBANK);
;
	.dbg	line, "SAUCE/gamestates/state_lvldone.h", 21
	lda     #$6A
	jsr     _mmc3_set_1kb_chr_bank_0
;
; mmc3_set_1kb_chr_bank_1(PRACTICECOMPLETEBANK);
;
	.dbg	line, "SAUCE/gamestates/state_lvldone.h", 22
	lda     #$6E
	jsr     _mmc3_set_1kb_chr_bank_1
;
; mmc3_set_1kb_chr_bank_2(LEVELCOMPLETEBANK+2);
;
	.dbg	line, "SAUCE/gamestates/state_lvldone.h", 23
	lda     #$6C
	jsr     _mmc3_set_1kb_chr_bank_2
;
; mmc3_set_1kb_chr_bank_3(LEVELCOMPLETEBANK+3);
;
	.dbg	line, "SAUCE/gamestates/state_lvldone.h", 24
	lda     #$6D
	jsr     _mmc3_set_1kb_chr_bank_3
;
; mmc3_set_2kb_chr_bank_1(MOUSEBANK);
;
	.dbg	line, "SAUCE/gamestates/state_lvldone.h", 25
	lda     #$60
	jsr     _mmc3_set_2kb_chr_bank_1
;
; pal_bright(4);
;
	.dbg	line, "SAUCE/gamestates/state_lvldone.h", 28
	lda     #$04
	jsr     _pal_bright
;
; pal_bg(paletteMenu);
;
	.dbg	line, "SAUCE/gamestates/state_lvldone.h", 29
	lda     #<(_paletteMenu)
	ldx     #>(_paletteMenu)
	jsr     _pal_bg
;
; pal_col(0x0A,0x2A);
;
	.dbg	line, "SAUCE/gamestates/state_lvldone.h", 30
	lda     #$2A
	sta     _PAL_BUF_RAW+10
	tay
	lda     (_PAL_PTR),y
	sta     _PAL_BUF+10
;
; pal_col(0x0B,0x21);
;
	.dbg	line, "SAUCE/gamestates/state_lvldone.h", 31
	lda     #$21
	sta     _PAL_BUF_RAW+11
	tay
	lda     (_PAL_PTR),y
	sta     _PAL_BUF+11
;
; pal_set_update();
;
	.dbg	line, "SAUCE/gamestates/state_lvldone.h", 32
	inc     _PAL_UPDATE
;
; pal_spr(paletteDefaultSP);
;
	.dbg	line, "SAUCE/gamestates/state_lvldone.h", 34
	lda     #<(_paletteDefaultSP)
	ldx     #>(_paletteDefaultSP)
	jsr     _pal_spr
;
; vram_adr(NAMETABLE_C);
;
	.dbg	line, "SAUCE/gamestates/state_lvldone.h", 37
	lda     #$28
	sta     $2006
	lda     #$00
	sta     $2006
;
; vram_fill(0xfe, 0x3c0);
;
	.dbg	line, "SAUCE/gamestates/state_lvldone.h", 38
	lda     #$C0
	sta     sreg+0
	ldx     #$03
	lda     #$FE
	jsr     __vram_fill
;
; vram_fill(0x00, 0x3f);
;
	.dbg	line, "SAUCE/gamestates/state_lvldone.h", 39
	lda     #$3F
	sta     sreg+0
	ldx     #$00
	txa
	jsr     __vram_fill
;
; vram_adr(NAMETABLE_A);
;
	.dbg	line, "SAUCE/gamestates/state_lvldone.h", 42
	lda     #$20
	sta     $2006
	lda     #$00
	sta     $2006
;
; if (practice_point_count) {
;
	.dbg	line, "SAUCE/gamestates/state_lvldone.h", 43
	lda     _practice_point_count
	beq     L0002
;
; vram_unrle(practicedone);
;
	.dbg	line, "SAUCE/gamestates/state_lvldone.h", 44
	lda     #<(_practicedone)
	ldx     #>(_practicedone)
;
; } else {
;
	.dbg	line, "SAUCE/gamestates/state_lvldone.h", 45
	jmp     L0061
;
; vram_unrle(leveldone);
;
	.dbg	line, "SAUCE/gamestates/state_lvldone.h", 46
L0002:	lda     #<(_leveldone)
	ldx     #>(_leveldone)
L0061:	jsr     _vram_unrle
;
; display_attempt_counter(0xD0, NTADR_A(20, 13)); // Same bank as this
;
	.dbg	line, "SAUCE/gamestates/state_lvldone.h", 49
	lda     #$D0
	sta     sreg+0
	ldx     #$21
	lda     #$B4
	jsr     __display_attempt_counter
;
; if (DEBUG_MODE || kandokidshack || kandokidshack3 || kandokidshack4 || cheated) draw_padded_text(cheater, cheatersize, 18, NTADR_A(7, 14));
;
	.dbg	line, "SAUCE/gamestates/state_lvldone.h", 50
	lda     _DEBUG_MODE
	bne     L0005
	lda     _kandokidshack
	bne     L0005
	lda     _kandokidshack3
	bne     L0005
	lda     _kandokidshack4
	bne     L0005
	lda     _cheated
	beq     L0004
L0005:	lda     #>(_cheater)
	sta     _xargs+1
	lda     #<(_cheater)
	sta     _xargs
	lda     _cheatersize
	sta     sreg+1
	lda     #$12
	sta     sreg
	ldx     #$61
	lda     #$C7
	jsr     __draw_padded_text
;
; hexToDec(jumps);
;
	.dbg	line, "SAUCE/gamestates/state_lvldone.h", 54
L0004:	lda     _jumps
	ldx     _jumps+1
	jsr     _hexToDec
;
; tmp1 = 0;
;
	.dbg	line, "SAUCE/gamestates/state_lvldone.h", 55
	lda     #$00
	sta     _tmp1
;
; if (hexToDecOutputBuffer[4]) {
;
	.dbg	line, "SAUCE/gamestates/state_lvldone.h", 56
	lda     _hexToDecOutputBuffer+4
	beq     L0062
;
; one_vram_buffer(0xD0+hexToDecOutputBuffer[4], NTADR_A(18,15));
;
	.dbg	line, "SAUCE/gamestates/state_lvldone.h", 57
	clc
	adc     #$D0
	sta     sreg+0
	ldx     #$21
	lda     #$F2
	jsr     __one_vram_buffer
;
; tmp1++;
;
	.dbg	line, "SAUCE/gamestates/state_lvldone.h", 58
	inc     _tmp1
;
; if (hexToDecOutputBuffer[4] | hexToDecOutputBuffer[3]) {
;
	.dbg	line, "SAUCE/gamestates/state_lvldone.h", 61
L0062:	lda     _hexToDecOutputBuffer+4
	ora     _hexToDecOutputBuffer+3
	beq     L0063
;
; one_vram_buffer(0xD0+hexToDecOutputBuffer[3], NTADR_A(18+tmp1,15));
;
	.dbg	line, "SAUCE/gamestates/state_lvldone.h", 62
	lda     _hexToDecOutputBuffer+3
	clc
	adc     #$D0
	sta     sreg+0
	ldx     #$00
	lda     _tmp1
	clc
	adc     #$12
	bcc     L000B
	inx
L000B:	ora     #$E0
	pha
	txa
	ora     #$01
	tax
	pla
	pha
	txa
	ora     #$20
	tax
	pla
	jsr     __one_vram_buffer
;
; tmp1++;
;
	.dbg	line, "SAUCE/gamestates/state_lvldone.h", 63
	inc     _tmp1
;
; if (hexToDecOutputBuffer[4] | hexToDecOutputBuffer[3] | hexToDecOutputBuffer[2]) {
;
	.dbg	line, "SAUCE/gamestates/state_lvldone.h", 66
L0063:	lda     _hexToDecOutputBuffer+4
	ldx     #$00
	ora     _hexToDecOutputBuffer+3
	sta     ptr1
	lda     _hexToDecOutputBuffer+2
	ora     ptr1
	pha
	pla
	beq     L0064
;
; one_vram_buffer(0xD0+hexToDecOutputBuffer[2], NTADR_A(18+tmp1,15));
;
	.dbg	line, "SAUCE/gamestates/state_lvldone.h", 67
	lda     _hexToDecOutputBuffer+2
	clc
	adc     #$D0
	sta     sreg+0
	lda     _tmp1
	clc
	adc     #$12
	bcc     L000E
	inx
L000E:	ora     #$E0
	pha
	txa
	ora     #$01
	tax
	pla
	pha
	txa
	ora     #$20
	tax
	pla
	jsr     __one_vram_buffer
;
; tmp1++;
;
	.dbg	line, "SAUCE/gamestates/state_lvldone.h", 68
	inc     _tmp1
;
; if (hexToDecOutputBuffer[4] | hexToDecOutputBuffer[3] | hexToDecOutputBuffer[2] | hexToDecOutputBuffer[1]) {
;
	.dbg	line, "SAUCE/gamestates/state_lvldone.h", 71
L0064:	lda     _hexToDecOutputBuffer+4
	ldx     #$00
	ora     _hexToDecOutputBuffer+3
	sta     ptr1
	lda     _hexToDecOutputBuffer+2
	ora     ptr1
	sta     ptr1
	lda     _hexToDecOutputBuffer+1
	ora     ptr1
	pha
	pla
	beq     L0065
;
; one_vram_buffer(0xD0+hexToDecOutputBuffer[1], NTADR_A(18+tmp1,15));
;
	.dbg	line, "SAUCE/gamestates/state_lvldone.h", 72
	lda     _hexToDecOutputBuffer+1
	clc
	adc     #$D0
	sta     sreg+0
	lda     _tmp1
	clc
	adc     #$12
	bcc     L0011
	inx
L0011:	ora     #$E0
	pha
	txa
	ora     #$01
	tax
	pla
	pha
	txa
	ora     #$20
	tax
	pla
	jsr     __one_vram_buffer
;
; tmp1++;
;
	.dbg	line, "SAUCE/gamestates/state_lvldone.h", 73
	inc     _tmp1
;
; one_vram_buffer(0xD0+hexToDecOutputBuffer[0], NTADR_A(18+tmp1,15));
;
	.dbg	line, "SAUCE/gamestates/state_lvldone.h", 75
L0065:	lda     _hexToDecOutputBuffer
	clc
	adc     #$D0
	sta     sreg+0
	ldx     #$00
	lda     _tmp1
	clc
	adc     #$12
	bcc     L0013
	inx
L0013:	ora     #$E0
	pha
	txa
	ora     #$01
	tax
	pla
	pha
	txa
	ora     #$20
	tax
	pla
	jsr     __one_vram_buffer
;
; flush_vram_update2();
;
	.dbg	line, "SAUCE/gamestates/state_lvldone.h", 76
	jsr     _flush_vram_update2
;
; delay_spr_0 = 0x20;
;
	.dbg	line, "SAUCE/gamestates/state_lvldone.h", 78
	lda     #$20
	sta     _tmp4
;
; current_state = 0;
;
	.dbg	line, "SAUCE/gamestates/state_lvldone.h", 82
	lda     #$00
	sta     _tmp2
;
; if (!DEBUG_MODE && !kandokidshack && !kandokidshack3 && !kandokidshack4 && !practice_point_count) {
;
	.dbg	line, "SAUCE/gamestates/state_lvldone.h", 84
	lda     _DEBUG_MODE
	bne     L0014
	lda     _kandokidshack
	bne     L0014
	lda     _kandokidshack3
	bne     L0014
	lda     _kandokidshack4
	bne     L0014
	lda     _practice_point_count
	bne     L0014
;
; LEVELCOMPLETE[level] = 1;
;
	.dbg	line, "SAUCE/gamestates/state_lvldone.h", 85
	ldy     _level
	lda     #$01
	sta     _LEVELCOMPLETE,y
;
; if (coins & COIN_1) coin1_obtained[level] = 1;
;
	.dbg	line, "SAUCE/gamestates/state_lvldone.h", 87
	lda     _coins
	and     #$01
	beq     L0068
	ldy     _level
	lda     #$01
	sta     _coin1_obtained,y
;
; if (coins & COIN_2) coin2_obtained[level] = 1;
;
	.dbg	line, "SAUCE/gamestates/state_lvldone.h", 88
L0068:	lda     _coins
	and     #$02
	beq     L0069
	ldy     _level
	lda     #$01
	sta     _coin2_obtained,y
;
; if (coins & COIN_3) coin3_obtained[level] = 1;
;
	.dbg	line, "SAUCE/gamestates/state_lvldone.h", 89
L0069:	lda     _coins
	and     #$04
	beq     L001D
	ldy     _level
	lda     #$01
	sta     _coin3_obtained,y
;
; level_completeness_normal[level] = 100;
;
	.dbg	line, "SAUCE/gamestates/state_lvldone.h", 91
L001D:	ldy     _level
	lda     #$64
	sta     _level_completeness_normal,y
;
; } else {
;
	.dbg	line, "SAUCE/gamestates/state_lvldone.h", 92
	jmp     L006A
;
; level_completeness_practice[level] = 100;
;
	.dbg	line, "SAUCE/gamestates/state_lvldone.h", 93
L0014:	ldy     _level
	lda     #$64
	sta     _level_completeness_normal+128,y
;
; tmp1 = 0;
;
	.dbg	line, "SAUCE/gamestates/state_lvldone.h", 98
L006A:	lda     #$00
	sta     _tmp1
;
; tmpptr1 = NULL;
;
	.dbg	line, "SAUCE/gamestates/state_lvldone.h", 99
	sta     _tmpptr1
	sta     _tmpptr1+1
;
; tmp5 = 0x0000; // speed
;
	.dbg	line, "SAUCE/gamestates/state_lvldone.h", 101
	sta     _tmp5
	sta     _tmp5+1
;
; tmp6 = 0xf000; // real y 
;
	.dbg	line, "SAUCE/gamestates/state_lvldone.h", 102
	ldx     #$F0
	sta     _tmp6
	stx     _tmp6+1
;
; set_scroll_x(0);
;
	.dbg	line, "SAUCE/gamestates/state_lvldone.h", 104
	tax
	jsr     _set_scroll_x
;
; set_scroll_y(0xe8);
;
	.dbg	line, "SAUCE/gamestates/state_lvldone.h", 105
	ldx     #$00
	lda     #$E8
	jsr     _set_scroll_y
;
; ppu_on_all();
;
	.dbg	line, "SAUCE/gamestates/state_lvldone.h", 107
	jsr     _ppu_on_all
;
; sfx_play(sfx_level_complete, 0);
;
	.dbg	line, "SAUCE/gamestates/state_lvldone.h", 109
	ldx     #$00
	lda     #$02
	jsr     __sfx_play
;
; menuselection = 1;
;
	.dbg	line, "SAUCE/gamestates/state_lvldone.h", 110
	ldx     #$00
	lda     #$01
	sta     _menuselection
;
; ppu_wait_nmi();
;
	.dbg	line, "SAUCE/gamestates/state_lvldone.h", 117
L0022:	jsr     _ppu_wait_nmi
;
; kandoframecnt++;
;
	.dbg	line, "SAUCE/gamestates/state_lvldone.h", 121
	inc     _kandoframecnt
;
; if (kandoframecnt & 1 && mouse_timer) mouse_timer--;
;
	.dbg	line, "SAUCE/gamestates/state_lvldone.h", 123
	lda     _kandoframecnt
	ldx     #$00
	and     #$01
	beq     L006E
	lda     _mouse_timer
	beq     L006E
	dec     _mouse_timer
;
; switch (current_state) {
;
	.dbg	line, "SAUCE/gamestates/state_lvldone.h", 124
L006E:	lda     _tmp2
;
; }
;
	.dbg	line, "SAUCE/gamestates/state_lvldone.h", 276
	beq     L002B
	cmp     #$01
	beq     L002E
	cmp     #$02
	jeq     L0034
	cmp     #$03
	jeq     L0073
	cmp     #$04
	jeq     L0076
	cmp     #$05
	jeq     L0078
	cmp     #$06
	jeq     L007A
	cmp     #$07
	jeq     L0047
	jmp     L0087
;
; tmp5 += 0x40;
;
	.dbg	line, "SAUCE/gamestates/state_lvldone.h", 126
L002B:	lda     #$40
	clc
	adc     _tmp5
	sta     _tmp5
	bcc     L002C
	inc     _tmp5+1
;
; tmp6 -= tmp5;
;
	.dbg	line, "SAUCE/gamestates/state_lvldone.h", 127
L002C:	lda     _tmp5
	eor     #$FF
	sec
	adc     _tmp6
	sta     _tmp6
	lda     _tmp5+1
	eor     #$FF
	adc     _tmp6+1
	sta     _tmp6+1
;
; set_scroll_y(high_byte(tmp6));
;
	.dbg	line, "SAUCE/gamestates/state_lvldone.h", 128
	jsr     _set_scroll_y
;
; if (high_byte(tmp6) < 10) {
;
	.dbg	line, "SAUCE/gamestates/state_lvldone.h", 130
	lda     _tmp6+1
	cmp     #$0A
	jcs     L0087
;
; current_state = 1;
;
	.dbg	line, "SAUCE/gamestates/state_lvldone.h", 131
	lda     #$01
	sta     _tmp2
;
; tmp5 = -0x0600;
;
	.dbg	line, "SAUCE/gamestates/state_lvldone.h", 132
	ldx     #$FA
	lda     #$00
	sta     _tmp5
	stx     _tmp5+1
;
; break;
;
	.dbg	line, "SAUCE/gamestates/state_lvldone.h", 134
	jmp     L0087
;
; tmp5 += 0x40;
;
	.dbg	line, "SAUCE/gamestates/state_lvldone.h", 136
L002E:	lda     #$40
	clc
	adc     _tmp5
	sta     _tmp5
	bcc     L002F
	inc     _tmp5+1
;
; tmp6 -= tmp5;
;
	.dbg	line, "SAUCE/gamestates/state_lvldone.h", 137
L002F:	lda     _tmp5
	eor     #$FF
	sec
	adc     _tmp6
	sta     _tmp6
	lda     _tmp5+1
	eor     #$FF
	adc     _tmp6+1
	sta     _tmp6+1
;
; set_scroll_y(high_byte(tmp6));
;
	.dbg	line, "SAUCE/gamestates/state_lvldone.h", 138
	jsr     _set_scroll_y
;
; if (high_byte(tmp6) < 5 && !(high_byte(tmp5) & 0x80)) {
;
	.dbg	line, "SAUCE/gamestates/state_lvldone.h", 139
	lda     _tmp6+1
	cmp     #$05
	jcs     L0087
	lda     _tmp5+1
	and     #$80
	jne     L0087
;
; current_state = 2;
;
	.dbg	line, "SAUCE/gamestates/state_lvldone.h", 140
	lda     #$02
	sta     _tmp2
;
; tmp5 = -0x0300;
;
	.dbg	line, "SAUCE/gamestates/state_lvldone.h", 141
	ldx     #$FD
	lda     #$00
	sta     _tmp5
	stx     _tmp5+1
;
; break;
;
	.dbg	line, "SAUCE/gamestates/state_lvldone.h", 143
	jmp     L0087
;
; tmp5 += 0x40;
;
	.dbg	line, "SAUCE/gamestates/state_lvldone.h", 145
L0034:	lda     #$40
	clc
	adc     _tmp5
	sta     _tmp5
	bcc     L0035
	inc     _tmp5+1
;
; tmp6 -= tmp5;
;
	.dbg	line, "SAUCE/gamestates/state_lvldone.h", 146
L0035:	lda     _tmp5
	eor     #$FF
	sec
	adc     _tmp6
	sta     _tmp6
	lda     _tmp5+1
	eor     #$FF
	adc     _tmp6+1
	sta     _tmp6+1
;
; set_scroll_y(high_byte(tmp6));
;
	.dbg	line, "SAUCE/gamestates/state_lvldone.h", 147
	jsr     _set_scroll_y
;
; if (high_byte(tmp6) < 3 && !(high_byte(tmp5) & 0x80)) {
;
	.dbg	line, "SAUCE/gamestates/state_lvldone.h", 148
	lda     _tmp6+1
	cmp     #$03
	jcs     L0087
	lda     _tmp5+1
	and     #$80
	jne     L0087
;
; current_state = 3;
;
	.dbg	line, "SAUCE/gamestates/state_lvldone.h", 149
	lda     #$03
	sta     _tmp2
;
; set_scroll_y(0);
;
	.dbg	line, "SAUCE/gamestates/state_lvldone.h", 150
	ldx     #$00
	txa
	jsr     _set_scroll_y
;
; break;
;
	.dbg	line, "SAUCE/gamestates/state_lvldone.h", 152
	jmp     L0087
;
; kandokidshack = 0;
;
	.dbg	line, "SAUCE/gamestates/state_lvldone.h", 156
L0073:	txa
	sta     _kandokidshack
;
; kandokidshack2 = 0;
;
	.dbg	line, "SAUCE/gamestates/state_lvldone.h", 157
	sta     _kandokidshack2
;
; tmp2 = 0;
;
	.dbg	line, "SAUCE/gamestates/state_lvldone.h", 159
	sta     _tmp2
;
; __A__ = tmp2; __asm__("tay");
;
	.dbg	line, "SAUCE/gamestates/state_lvldone.h", 162
L0074:	ldy     _tmp2
;
; __A__ = kandokidshack;
;
	.dbg	line, "SAUCE/gamestates/state_lvldone.h", 163
	lda     _kandokidshack
;
; __asm__("clc \n adc %v, y", coin1_obtained);
;
	.dbg	line, "SAUCE/gamestates/state_lvldone.h", 164
	clc
	adc     _coin1_obtained,y
;
; __asm__("clc \n adc %v, y", coin2_obtained);
;
	.dbg	line, "SAUCE/gamestates/state_lvldone.h", 165
	clc
	adc     _coin2_obtained,y
;
; __asm__("clc \n adc %v, y", coin3_obtained);
;
	.dbg	line, "SAUCE/gamestates/state_lvldone.h", 166
	clc
	adc     _coin3_obtained,y
;
; kandokidshack = __A__;
;
	.dbg	line, "SAUCE/gamestates/state_lvldone.h", 167
	sta     _kandokidshack
;
; if (LEVELCOMPLETE[tmp2]) kandokidshack2 += stars_list[tmp2];
;
	.dbg	line, "SAUCE/gamestates/state_lvldone.h", 169
	ldy     _tmp2
	lda     _LEVELCOMPLETE,y
	beq     L0075
	ldy     _tmp2
	lda     _stars_list,y
	clc
	adc     _kandokidshack2
	sta     _kandokidshack2
;
; tmp2++;
;
	.dbg	line, "SAUCE/gamestates/state_lvldone.h", 170
L0075:	inc     _tmp2
;
; while (tmp2 < LEVEL_COUNT2);
;
	.dbg	line, "SAUCE/gamestates/state_lvldone.h", 175
	lda     _tmp2
	cmp     #$2C
	bcc     L0074
;
; tmp2 = 0;
;
	.dbg	line, "SAUCE/gamestates/state_lvldone.h", 178
	lda     #$00
	sta     _tmp2
;
; current_state = 4;
;
	.dbg	line, "SAUCE/gamestates/state_lvldone.h", 179
	lda     #$04
	sta     _tmp2
;
; tmp1 = 1;
;
	.dbg	line, "SAUCE/gamestates/state_lvldone.h", 180
	lda     #$01
	sta     _tmp1
;
; break;
;
	.dbg	line, "SAUCE/gamestates/state_lvldone.h", 181
	jmp     L0087
;
; if (coins & COIN_1){
;
	.dbg	line, "SAUCE/gamestates/state_lvldone.h", 183
L0076:	lda     _coins
	and     #$01
	beq     L0077
;
; one_vram_buffer(0x90, NTADR_A(11,18));
;
	.dbg	line, "SAUCE/gamestates/state_lvldone.h", 184
	lda     #$90
	sta     sreg+0
	ldx     #$22
	lda     #$4B
	jsr     __one_vram_buffer
;
; one_vram_buffer(0x91, NTADR_A(12,18));
;
	.dbg	line, "SAUCE/gamestates/state_lvldone.h", 185
	lda     #$91
	sta     sreg+0
	ldx     #$22
	lda     #$4C
	jsr     __one_vram_buffer
;
; one_vram_buffer(0xA0, NTADR_A(11,19));
;
	.dbg	line, "SAUCE/gamestates/state_lvldone.h", 186
	lda     #$A0
	sta     sreg+0
	ldx     #$22
	lda     #$6B
	jsr     __one_vram_buffer
;
; one_vram_buffer(0xA1, NTADR_A(12,19));
;
	.dbg	line, "SAUCE/gamestates/state_lvldone.h", 187
	lda     #$A1
	sta     sreg+0
	ldx     #$22
	lda     #$6C
	jsr     __one_vram_buffer
;
; checkcointimer();
;
	.dbg	line, "SAUCE/gamestates/state_lvldone.h", 188
	jsr     _checkcointimer
;
; tmp1--;
;
	.dbg	line, "SAUCE/gamestates/state_lvldone.h", 190
	ldx     #$00
L0077:	lda     _tmp1
	dec     _tmp1
;
; checkcoinproceed();
;
	.dbg	line, "SAUCE/gamestates/state_lvldone.h", 191
	jsr     _checkcoinproceed
;
; break;
;
	.dbg	line, "SAUCE/gamestates/state_lvldone.h", 192
	jmp     L0087
;
; if (coins & COIN_2){
;
	.dbg	line, "SAUCE/gamestates/state_lvldone.h", 194
L0078:	lda     _coins
	and     #$02
	beq     L0079
;
; one_vram_buffer(0x90, NTADR_A(15,18));
;
	.dbg	line, "SAUCE/gamestates/state_lvldone.h", 195
	lda     #$90
	sta     sreg+0
	ldx     #$22
	lda     #$4F
	jsr     __one_vram_buffer
;
; one_vram_buffer(0x91, NTADR_A(16,18));
;
	.dbg	line, "SAUCE/gamestates/state_lvldone.h", 196
	lda     #$91
	sta     sreg+0
	ldx     #$22
	lda     #$50
	jsr     __one_vram_buffer
;
; one_vram_buffer(0xA0, NTADR_A(15,19));
;
	.dbg	line, "SAUCE/gamestates/state_lvldone.h", 197
	lda     #$A0
	sta     sreg+0
	ldx     #$22
	lda     #$6F
	jsr     __one_vram_buffer
;
; one_vram_buffer(0xA1, NTADR_A(16,19));
;
	.dbg	line, "SAUCE/gamestates/state_lvldone.h", 198
	lda     #$A1
	sta     sreg+0
	ldx     #$22
	lda     #$70
	jsr     __one_vram_buffer
;
; checkcointimer();
;
	.dbg	line, "SAUCE/gamestates/state_lvldone.h", 199
	jsr     _checkcointimer
;
; tmp1--;
;
	.dbg	line, "SAUCE/gamestates/state_lvldone.h", 201
	ldx     #$00
L0079:	lda     _tmp1
	dec     _tmp1
;
; checkcoinproceed();
;
	.dbg	line, "SAUCE/gamestates/state_lvldone.h", 202
	jsr     _checkcoinproceed
;
; break;
;
	.dbg	line, "SAUCE/gamestates/state_lvldone.h", 203
	jmp     L0087
;
; if (coins & COIN_3){
;
	.dbg	line, "SAUCE/gamestates/state_lvldone.h", 205
L007A:	lda     _coins
	and     #$04
	beq     L007B
;
; one_vram_buffer(0x90, NTADR_A(19,18));
;
	.dbg	line, "SAUCE/gamestates/state_lvldone.h", 206
	lda     #$90
	sta     sreg+0
	ldx     #$22
	lda     #$53
	jsr     __one_vram_buffer
;
; one_vram_buffer(0x91, NTADR_A(20,18));
;
	.dbg	line, "SAUCE/gamestates/state_lvldone.h", 207
	lda     #$91
	sta     sreg+0
	ldx     #$22
	lda     #$54
	jsr     __one_vram_buffer
;
; one_vram_buffer(0xA0, NTADR_A(19,19));
;
	.dbg	line, "SAUCE/gamestates/state_lvldone.h", 208
	lda     #$A0
	sta     sreg+0
	ldx     #$22
	lda     #$73
	jsr     __one_vram_buffer
;
; one_vram_buffer(0xA1, NTADR_A(20,19));
;
	.dbg	line, "SAUCE/gamestates/state_lvldone.h", 209
	lda     #$A1
	sta     sreg+0
	ldx     #$22
	lda     #$74
	jsr     __one_vram_buffer
;
; checkcointimer();
;
	.dbg	line, "SAUCE/gamestates/state_lvldone.h", 210
	jsr     _checkcointimer
;
; tmp1--;
;
	.dbg	line, "SAUCE/gamestates/state_lvldone.h", 212
	ldx     #$00
L007B:	lda     _tmp1
	dec     _tmp1
;
; checkcoinproceed();
;
	.dbg	line, "SAUCE/gamestates/state_lvldone.h", 213
	jsr     _checkcoinproceed
;
; break;
;
	.dbg	line, "SAUCE/gamestates/state_lvldone.h", 214
	jmp     L0087
;
; lvl_done_update();
;
	.dbg	line, "SAUCE/gamestates/state_lvldone.h", 216
L0047:	jsr     _lvl_done_update
;
; oam_clear();
;
	.dbg	line, "SAUCE/gamestates/state_lvldone.h", 217
	jsr     _oam_clear
;
; mouse_and_cursor();
;
	.dbg	line, "SAUCE/gamestates/state_lvldone.h", 219
	jsr     _mouse_and_cursor
;
; if (mouse.left_press) {
;
	.dbg	line, "SAUCE/gamestates/state_lvldone.h", 221
	lda     _mouse
	and     #$10
	beq     L0051
;
; if (mouse.y >= 0xC5 && mouse.y <= 0xE3) {
;
	.dbg	line, "SAUCE/gamestates/state_lvldone.h", 222
	lda     _mouse+2
	cmp     #$C5
	bcc     L0051
	cmp     #$E4
	bcs     L0051
;
; if (mouse.x >= 0x36 && mouse.x <= 0x53) {
;
	.dbg	line, "SAUCE/gamestates/state_lvldone.h", 223
	lda     _mouse+3
	cmp     #$36
	bcc     L0082
	cmp     #$54
	bcs     L0082
;
; sfx_play(sfx_start_level, 0);
;
	.dbg	line, "SAUCE/gamestates/state_lvldone.h", 224
	ldx     #$00
	lda     #$08
	jsr     __sfx_play
;
; gameState = STATE_GAME;
;
	.dbg	line, "SAUCE/gamestates/state_lvldone.h", 225
	lda     #$02
	sta     _gameState
;
; coins = 0;
;
	.dbg	line, "SAUCE/gamestates/state_lvldone.h", 227
	lda     #$00
	sta     _coins
;
; return;     
;
	.dbg	line, "SAUCE/gamestates/state_lvldone.h", 228
	rts
;
; if (mouse.x >= 0xA6 && mouse.x <= 0xc3) {
;
	.dbg	line, "SAUCE/gamestates/state_lvldone.h", 230
L0082:	lda     _mouse+3
	cmp     #$A6
	bcc     L0051
	cmp     #$C4
	bcs     L0051
;
; sfx_play(sfx_exit_level, 0);
;
	.dbg	line, "SAUCE/gamestates/state_lvldone.h", 231
	ldx     #$00
	lda     #$07
	jsr     __sfx_play
;
; music_update();
;
	.dbg	line, "SAUCE/gamestates/state_lvldone.h", 232
	jsr     _music_update
;
; gameState = STATE_LEVELSELECT;
;
	.dbg	line, "SAUCE/gamestates/state_lvldone.h", 233
	lda     #$06
	sta     _gameState
;
; menuselection = 0;
;
	.dbg	line, "SAUCE/gamestates/state_lvldone.h", 234
	lda     #$00
	sta     _menuselection
;
; menuMusicCurrentlyPlaying = 0;
;
	.dbg	line, "SAUCE/gamestates/state_lvldone.h", 236
	sta     _menuMusicCurrentlyPlaying
;
; return;
;
	.dbg	line, "SAUCE/gamestates/state_lvldone.h", 237
	rts
;
; if (joypad1.press_left || joypad1.press_right) { menuselection ^= 1; lvl_done_update(); }
;
	.dbg	line, "SAUCE/gamestates/state_lvldone.h", 243
L0051:	lda     _joypad1+1
	and     #$02
	bne     L0056
	lda     _joypad1+1
	and     #$01
	beq     L0055
L0056:	ldx     #$00
	lda     _menuselection
	eor     #$01
	sta     _menuselection
	jsr     _lvl_done_update
;
; if (joypad1.press_start || joypad1.press_a){
;
	.dbg	line, "SAUCE/gamestates/state_lvldone.h", 244
L0055:	lda     _joypad1+1
	and     #$10
	bne     L0059
	lda     _joypad1+1
	and     #$80
	beq     L0087
L0059:	ldx     #$00
;
; if (menuselection) {
;
	.dbg	line, "SAUCE/gamestates/state_lvldone.h", 245
	lda     _menuselection
	beq     L0086
;
; sfx_play(sfx_exit_level, 0);
;
	.dbg	line, "SAUCE/gamestates/state_lvldone.h", 250
	lda     #$07
	jsr     __sfx_play
;
; music_update();
;
	.dbg	line, "SAUCE/gamestates/state_lvldone.h", 251
	jsr     _music_update
;
; gameState = STATE_LEVELSELECT;
;
	.dbg	line, "SAUCE/gamestates/state_lvldone.h", 252
	lda     #$06
	sta     _gameState
;
; menuselection = 0;
;
	.dbg	line, "SAUCE/gamestates/state_lvldone.h", 253
	lda     #$00
	sta     _menuselection
;
; menuMusicCurrentlyPlaying = 0;
;
	.dbg	line, "SAUCE/gamestates/state_lvldone.h", 256
	sta     _menuMusicCurrentlyPlaying
;
; return;
;
	.dbg	line, "SAUCE/gamestates/state_lvldone.h", 257
	rts
;
; sfx_play(sfx_start_level, 0);
;
	.dbg	line, "SAUCE/gamestates/state_lvldone.h", 261
L0086:	lda     #$08
	jsr     __sfx_play
;
; gameState = STATE_GAME;
;
	.dbg	line, "SAUCE/gamestates/state_lvldone.h", 262
	lda     #$02
	sta     _gameState
;
; coins = 0;
;
	.dbg	line, "SAUCE/gamestates/state_lvldone.h", 263
	lda     #$00
	sta     _coins
;
; return;
;
	.dbg	line, "SAUCE/gamestates/state_lvldone.h", 266
	rts
;
; kandoframecnt++;
;
	.dbg	line, "SAUCE/gamestates/state_lvldone.h", 277
L0087:	inc     _kandoframecnt
;
; if (kandoframecnt & 1 && mouse_timer) mouse_timer--; 
;
	.dbg	line, "SAUCE/gamestates/state_lvldone.h", 278
	lda     _kandoframecnt
	ldx     #$00
	and     #$01
	jeq     L0022
	lda     _mouse_timer
	jeq     L0022
	dec     _mouse_timer
;
; while (1) {
;
	.dbg	line, "SAUCE/gamestates/state_lvldone.h", 116
	jmp     L0022

	.dbg	line
.endproc

; ---------------------------------------------------------------
; void __near__ state_savefile_validate (void)
; ---------------------------------------------------------------

.segment	"XCD_BANK_02"

.proc	_state_savefile_validate: near

	.dbg	func, "state_savefile_validate", "00", static, "_state_savefile_validate"

.segment	"XCD_BANK_02"

;
; if ((SRAM_VALIDATE[2] != FLAG_SAVE_VER) && SRAM_VALIDATE[2] != 0x00) {
;
	.dbg	line, "SAUCE/gamestates/state_savefile_validate.h", 13
	ldx     #$00
	lda     _SRAM_VALIDATE+2
	cmp     #$24
	beq     L0015
	lda     _SRAM_VALIDATE+2
	beq     L0015
	lda     #$01
;
; setdefaultoptions();
;
	.dbg	line, "SAUCE/gamestates/state_savefile_validate.h", 14
	jsr     _setdefaultoptions
;
; if (SRAM_VALIDATE[0] != 0x13 || SRAM_VALIDATE[1] != 0x37 || SRAM_VALIDATE[2] != FLAG_SAVE_VER) {
;
	.dbg	line, "SAUCE/gamestates/state_savefile_validate.h", 18
	ldx     #$00
L0015:	lda     _SRAM_VALIDATE
	cmp     #$13
	bne     L0016
	lda     _SRAM_VALIDATE+1
	cmp     #$37
	bne     L0016
	lda     _SRAM_VALIDATE+2
	cmp     #$24
	beq     L0017
L0016:	lda     #$01
;
; setdefaultoptions();
;
	.dbg	line, "SAUCE/gamestates/state_savefile_validate.h", 19
	jsr     _setdefaultoptions
;
; mmc3_set_8kb_chr(MENUBANK);
;
	.dbg	line, "SAUCE/gamestates/state_savefile_validate.h", 25
L0017:	lda     #$62
	sta     _xargs
	jsr     __mmc3_set_8kb_chr
;
; mmc3_set_2kb_chr_bank_0(0xFF);  
;
	.dbg	line, "SAUCE/gamestates/state_savefile_validate.h", 26
	lda     #$FF
	jsr     _mmc3_set_2kb_chr_bank_0
;
; mmc3_set_2kb_chr_bank_1(MOUSEBANK); 
;
	.dbg	line, "SAUCE/gamestates/state_savefile_validate.h", 27
	lda     #$60
	jsr     _mmc3_set_2kb_chr_bank_1
;
; include_nested_dialog_string(dialogBox_saveFileSafetyHeader);
;
	.dbg	line, "SAUCE/gamestates/state_savefile_validate.h", 29
	lda     #<(_dialogBox_saveFileSafetyHeader)
	ldx     #>(_dialogBox_saveFileSafetyHeader)
	jsr     pushax
;
; draw_dialog_box(dialogBox_pleasePressB);    // also loads the palette
;
	.dbg	line, "SAUCE/gamestates/state_savefile_validate.h", 30
	lda     #<(_dialogBox_pleasePressB)
	ldx     #>(_dialogBox_pleasePressB)
	jsr     _draw_dialog_box
;
; set_scroll_x(0);
;
	.dbg	line, "SAUCE/gamestates/state_savefile_validate.h", 32
	ldx     #$00
	txa
	jsr     _set_scroll_x
;
; ppu_on_all();
;
	.dbg	line, "SAUCE/gamestates/state_savefile_validate.h", 34
	jsr     _ppu_on_all
;
; pal_fade_in();
;
	.dbg	line, "SAUCE/gamestates/state_savefile_validate.h", 36
	ldx     #$04
	lda     #$00
	jsr     __pal_fade_to
;
; ppu_wait_nmi();
;
	.dbg	line, "SAUCE/gamestates/state_savefile_validate.h", 40
L0009:	jsr     _ppu_wait_nmi
;
; oam_clear();
;
	.dbg	line, "SAUCE/gamestates/state_savefile_validate.h", 41
	jsr     _oam_clear
;
; mouse_and_cursor();
;
	.dbg	line, "SAUCE/gamestates/state_savefile_validate.h", 42
	jsr     _mouse_and_cursor
;
; newrand();
;
	.dbg	line, "SAUCE/gamestates/state_savefile_validate.h", 43
	jsr     _newrand
;
; if (joypad1.press || mouse.left_press || mouse.right_press) break;
;
	.dbg	line, "SAUCE/gamestates/state_savefile_validate.h", 44
	lda     _joypad1+1
	bne     L001C
	lda     _mouse
	and     #$10
	bne     L001C
	lda     _mouse
	and     #$08
	bne     L001C
;
; kandoframecnt++;
;
	.dbg	line, "SAUCE/gamestates/state_savefile_validate.h", 45
	inc     _kandoframecnt
;
; if (kandoframecnt & 1 && mouse_timer) mouse_timer--;    
;
	.dbg	line, "SAUCE/gamestates/state_savefile_validate.h", 46
	lda     _kandoframecnt
	ldx     #$00
	and     #$01
	beq     L0009
	lda     _mouse_timer
	beq     L0009
	dec     _mouse_timer
;
; } while (1);
;
	.dbg	line, "SAUCE/gamestates/state_savefile_validate.h", 47
	jmp     L0009
;
; gameState = STATE_CREDITS;
;
	.dbg	line, "SAUCE/gamestates/state_savefile_validate.h", 52
L001C:	lda     #$00
	sta     _gameState
;
; }
;
	.dbg	line, "SAUCE/gamestates/state_savefile_validate.h", 54
	rts

	.dbg	line
.endproc

; ---------------------------------------------------------------
; void __near__ main (void)
; ---------------------------------------------------------------

.segment	"CODE"

.proc	_main: near

	.dbg	func, "main", "00", static, "_main"

.segment	"CODE"

;
; ppu_off();
;
	.dbg	line, "SAUCE/famidash.c", 36
	jsr     _ppu_off
;
; pal_bright(0);
;
	.dbg	line, "SAUCE/famidash.c", 38
	lda     #$00
	jsr     _pal_bright
;
; ppu_mask(0x00 | (1 << 1) | (1 << 2));
;
	.dbg	line, "SAUCE/famidash.c", 40
	lda     #$06
	jsr     _ppu_mask
;
; bank_spr(1);
;
	.dbg	line, "SAUCE/famidash.c", 43
	lda     #$01
	jsr     _bank_spr
;
; set_vram_buffer();
;
	.dbg	line, "SAUCE/famidash.c", 45
	jsr     _set_vram_buffer
;
; pal_spr(paletteDefaultSP);
;
	.dbg	line, "SAUCE/famidash.c", 47
	lda     #<(_paletteDefaultSP)
	ldx     #>(_paletteDefaultSP)
	jsr     _pal_spr
;
; mmc3_disable_irq();
;
	.dbg	line, "SAUCE/famidash.c", 50
	jsr     _mmc3_disable_irq
;
; mouse.x = 0x78;
;
	.dbg	line, "SAUCE/famidash.c", 54
	lda     #$78
	sta     _mouse+3
;
; mouse.y = 0x60;
;
	.dbg	line, "SAUCE/famidash.c", 55
	lda     #$60
	sta     _mouse+2
;
; mouse_mask = 1;
;
	.dbg	line, "SAUCE/famidash.c", 56
	lda     #$01
	sta     _mouse_mask
;
; options &= ~debugtoggle;
;
	.dbg	line, "SAUCE/famidash.c", 59
	lda     _options
	and     #$F7
	sta     _options
;
; gameState = STATE_SAVEVALIDATE;
;
	.dbg	line, "SAUCE/famidash.c", 63
	lda     #$05
	sta     _gameState
;
; nmi_fs_updates_on();
;
	.dbg	line, "SAUCE/famidash.c", 64
	inc     _auto_fs_updates
;
; menuMusicCurrentlyPlaying = 0;
;
	.dbg	line, "SAUCE/famidash.c", 66
	lda     #$00
	sta     _menuMusicCurrentlyPlaying
;
; forceNoFadeOut = 0;
;
	.dbg	line, "SAUCE/famidash.c", 71
L0002:	lda     #$00
L0020:	sta     _forceNoFadeOut
;
; switch (gameState){
;
	.dbg	line, "SAUCE/famidash.c", 72
	lda     _gameState
;
; }
;
	.dbg	line, "SAUCE/famidash.c", 170
	cmp     #$01
	beq     L0017
	cmp     #$02
	beq     L000A
	cmp     #$03
	beq     L0018
	cmp     #$04
	beq     L0015
	cmp     #$05
	beq     L0016
	cmp     #$06
	beq     L001B
	cmp     #$07
	jeq     L001D
	cmp     #$08
	beq     L001C
	cmp     #$F0
	beq     L0019
	cmp     #$F1
	beq     L001A
	jmp     L001E
;
; mmc3_set_prg_bank_1(GET_BANK(state_soundtest));
;
	.dbg	line, "SAUCE/famidash.c", 74
L0015:	lda     #<.bank(_state_soundtest)
	jsr     _mmc3_set_prg_bank_1
;
; state_soundtest();
;
	.dbg	line, "SAUCE/famidash.c", 75
	jsr     _state_soundtest
;
; break;
;
	.dbg	line, "SAUCE/famidash.c", 76
	jmp     L001F
;
; music_play(song_scheming_weasel);
;
	.dbg	line, "SAUCE/famidash.c", 80
L0016:	lda     #$22
	jsr     _music_play
;
; mmc3_set_prg_bank_1(GET_BANK(state_savefile_validate));
;
	.dbg	line, "SAUCE/famidash.c", 82
	lda     #<.bank(_state_savefile_validate)
	jsr     _mmc3_set_prg_bank_1
;
; state_savefile_validate();
;
	.dbg	line, "SAUCE/famidash.c", 83
	jsr     _state_savefile_validate
;
; break;
;
	.dbg	line, "SAUCE/famidash.c", 84
	jmp     L001F
;
; mmc3_set_prg_bank_1(GET_BANK(state_menu));
;
	.dbg	line, "SAUCE/famidash.c", 96
L0017:	lda     #<.bank(_state_menu)
	jsr     _mmc3_set_prg_bank_1
;
; state_menu();
;
	.dbg	line, "SAUCE/famidash.c", 97
	jsr     _state_menu
;
; break;   
;
	.dbg	line, "SAUCE/famidash.c", 98
	jmp     L001F
;
; state_game();
;
	.dbg	line, "SAUCE/famidash.c", 104
L000A:	jsr     _state_game
;
; use_auto_chrswitch = 0;
;
	.dbg	line, "SAUCE/famidash.c", 105
	lda     #$00
	sta     _use_auto_chrswitch
;
; if (gameState == STATE_LVLDONE) forceNoFadeOut = 1;
;
	.dbg	line, "SAUCE/famidash.c", 106
	lda     _gameState
	cmp     #$03
	bne     L001F
	lda     #$01
	sta     _forceNoFadeOut
;
; break;
;
	.dbg	line, "SAUCE/famidash.c", 107
	jmp     L001F
;
; mmc3_set_prg_bank_1(GET_BANK(state_lvldone));
;
	.dbg	line, "SAUCE/famidash.c", 110
L0018:	lda     #<.bank(_state_lvldone)
	jsr     _mmc3_set_prg_bank_1
;
; state_lvldone();
;
	.dbg	line, "SAUCE/famidash.c", 111
	jsr     _state_lvldone
;
; break;
;
	.dbg	line, "SAUCE/famidash.c", 112
	jmp     L001F
;
; mmc3_set_prg_bank_1(GET_BANK(state_funsettings));
;
	.dbg	line, "SAUCE/famidash.c", 115
L0019:	lda     #<.bank(_state_funsettings)
	jsr     _mmc3_set_prg_bank_1
;
; state_funsettings();
;
	.dbg	line, "SAUCE/famidash.c", 116
	jsr     _state_funsettings
;
; break;
;
	.dbg	line, "SAUCE/famidash.c", 117
	jmp     L001F
;
; mmc3_set_prg_bank_1(GET_BANK(state_instructions));
;
	.dbg	line, "SAUCE/famidash.c", 120
L001A:	lda     #<.bank(_state_instructions)
	jsr     _mmc3_set_prg_bank_1
;
; state_instructions();
;
	.dbg	line, "SAUCE/famidash.c", 121
	jsr     _state_instructions
;
; break;
;
	.dbg	line, "SAUCE/famidash.c", 122
	jmp     L001F
;
; mmc3_set_prg_bank_1(GET_BANK(state_levelselect));
;
	.dbg	line, "SAUCE/famidash.c", 125
L001B:	lda     #<.bank(_state_levelselect)
	jsr     _mmc3_set_prg_bank_1
;
; state_levelselect();
;
	.dbg	line, "SAUCE/famidash.c", 126
	jsr     _state_levelselect
;
; break;
;
	.dbg	line, "SAUCE/famidash.c", 127
	jmp     L001F
;
; mmc3_set_prg_bank_1(GET_BANK(state_customize));
;
	.dbg	line, "SAUCE/famidash.c", 130
L001C:	lda     #<.bank(_state_customize)
	jsr     _mmc3_set_prg_bank_1
;
; state_customize();
;
	.dbg	line, "SAUCE/famidash.c", 131
	jsr     _state_customize
;
; break;
;
	.dbg	line, "SAUCE/famidash.c", 132
	jmp     L001F
;
; mmc3_set_prg_bank_1(GET_BANK(state_settings));
;
	.dbg	line, "SAUCE/famidash.c", 144
L001D:	lda     #<.bank(_state_settings)
	jsr     _mmc3_set_prg_bank_1
;
; state_settings();
;
	.dbg	line, "SAUCE/famidash.c", 145
	jsr     _state_settings
;
; break;
;
	.dbg	line, "SAUCE/famidash.c", 146
	jmp     L001F
;
; mmc3_set_prg_bank_1(GET_BANK(state_credits));
;
	.dbg	line, "SAUCE/famidash.c", 161
L001E:	lda     #<.bank(_state_credits)
	jsr     _mmc3_set_prg_bank_1
;
; state_credits();
;
	.dbg	line, "SAUCE/famidash.c", 162
	jsr     _state_credits
;
; framerate = trueFramerate;
;
	.dbg	line, "SAUCE/famidash.c", 171
L001F:	lda     _trueFramerate
	sta     _framerate
;
; cpuRegion = trueCpuRegion;
;
	.dbg	line, "SAUCE/famidash.c", 172
	lda     _trueCpuRegion
	sta     _cpuRegion
;
; fullRegion = trueFullRegion;
;
	.dbg	line, "SAUCE/famidash.c", 173
	lda     _trueFullRegion
	sta     _fullRegion
;
; nmi_fs_updates_on();
;
	.dbg	line, "SAUCE/famidash.c", 174
	ldx     #$00
	inc     _auto_fs_updates
;
; if (!forceNoFadeOut) pal_fade_out();
;
	.dbg	line, "SAUCE/famidash.c", 175
	lda     _forceNoFadeOut
	bne     L0013
	lda     #$04
	jsr     __pal_fade_to
;
; mmc3_disable_irq();
;
	.dbg	line, "SAUCE/famidash.c", 176
L0013:	jsr     _mmc3_disable_irq
;
; ppu_off();
;
	.dbg	line, "SAUCE/famidash.c", 177
	jsr     _ppu_off
;
; if (forceNoFadeOut) flush_vram_update2();
;
	.dbg	line, "SAUCE/famidash.c", 178
	lda     _forceNoFadeOut
	jeq     L0020
	jsr     _flush_vram_update2
;
; while (1){
;
	.dbg	line, "SAUCE/famidash.c", 70
	jmp     L0002

	.dbg	line
.endproc

